
/lib/x86_64-linux-gnu/libpthread-2.23.so:     file format elf64-x86-64


Disassembly of section .init:

0000000000005580 <_init>:
    5580:	48 83 ec 08          	sub    rsp,0x8
    5584:	e8 77 07 00 00       	call   5d00 <__pthread_initialize_minimal>
    5589:	48 83 c4 08          	add    rsp,0x8
    558d:	c3                   	ret    

Disassembly of section .plt:

0000000000005590 <__tsearch@plt-0x10>:
    5590:	ff 35 72 2a 21 00    	push   QWORD PTR [rip+0x212a72]        # 218008 <_GLOBAL_OFFSET_TABLE_+0x8>
    5596:	ff 25 74 2a 21 00    	jmp    QWORD PTR [rip+0x212a74]        # 218010 <_GLOBAL_OFFSET_TABLE_+0x10>
    559c:	0f 1f 40 00          	nop    DWORD PTR [rax+0x0]

00000000000055a0 <__tsearch@plt>:
    55a0:	ff 25 72 2a 21 00    	jmp    QWORD PTR [rip+0x212a72]        # 218018 <_GLOBAL_OFFSET_TABLE_+0x18>
    55a6:	68 00 00 00 00       	push   0x0
    55ab:	e9 e0 ff ff ff       	jmp    5590 <_init+0x10>

00000000000055b0 <__clone@plt>:
    55b0:	ff 25 6a 2a 21 00    	jmp    QWORD PTR [rip+0x212a6a]        # 218020 <_GLOBAL_OFFSET_TABLE_+0x20>
    55b6:	68 01 00 00 00       	push   0x1
    55bb:	e9 d0 ff ff ff       	jmp    5590 <_init+0x10>

00000000000055c0 <free@plt>:
    55c0:	ff 25 62 2a 21 00    	jmp    QWORD PTR [rip+0x212a62]        # 218028 <_GLOBAL_OFFSET_TABLE_+0x28>
    55c6:	68 02 00 00 00       	push   0x2
    55cb:	e9 c0 ff ff ff       	jmp    5590 <_init+0x10>

00000000000055d0 <__getrlimit@plt>:
    55d0:	ff 25 5a 2a 21 00    	jmp    QWORD PTR [rip+0x212a5a]        # 218030 <_GLOBAL_OFFSET_TABLE_+0x30>
    55d6:	68 03 00 00 00       	push   0x3
    55db:	e9 b0 ff ff ff       	jmp    5590 <_init+0x10>

00000000000055e0 <abort@plt>:
    55e0:	ff 25 52 2a 21 00    	jmp    QWORD PTR [rip+0x212a52]        # 218038 <_GLOBAL_OFFSET_TABLE_+0x38>
    55e6:	68 04 00 00 00       	push   0x4
    55eb:	e9 a0 ff ff ff       	jmp    5590 <_init+0x10>

00000000000055f0 <unlink@plt>:
    55f0:	ff 25 4a 2a 21 00    	jmp    QWORD PTR [rip+0x212a4a]        # 218040 <_GLOBAL_OFFSET_TABLE_+0x40>
    55f6:	68 05 00 00 00       	push   0x5
    55fb:	e9 90 ff ff ff       	jmp    5590 <_init+0x10>

0000000000005600 <_exit@plt>:
    5600:	ff 25 42 2a 21 00    	jmp    QWORD PTR [rip+0x212a42]        # 218048 <_GLOBAL_OFFSET_TABLE_+0x48>
    5606:	68 06 00 00 00       	push   0x6
    560b:	e9 80 ff ff ff       	jmp    5590 <_init+0x10>

0000000000005610 <__sched_getscheduler@plt>:
    5610:	ff 25 3a 2a 21 00    	jmp    QWORD PTR [rip+0x212a3a]        # 218050 <_GLOBAL_OFFSET_TABLE_+0x50>
    5616:	68 07 00 00 00       	push   0x7
    561b:	e9 70 ff ff ff       	jmp    5590 <_init+0x10>

0000000000005620 <__libc_dlclose@plt>:
    5620:	ff 25 32 2a 21 00    	jmp    QWORD PTR [rip+0x212a32]        # 218058 <_GLOBAL_OFFSET_TABLE_+0x58>
    5626:	68 08 00 00 00       	push   0x8
    562b:	e9 60 ff ff ff       	jmp    5590 <_init+0x10>

0000000000005630 <__libc_fatal@plt>:
    5630:	ff 25 2a 2a 21 00    	jmp    QWORD PTR [rip+0x212a2a]        # 218060 <_GLOBAL_OFFSET_TABLE_+0x60>
    5636:	68 09 00 00 00       	push   0x9
    563b:	e9 50 ff ff ff       	jmp    5590 <_init+0x10>

0000000000005640 <__statfs@plt>:
    5640:	ff 25 22 2a 21 00    	jmp    QWORD PTR [rip+0x212a22]        # 218068 <_GLOBAL_OFFSET_TABLE_+0x68>
    5646:	68 0a 00 00 00       	push   0xa
    564b:	e9 40 ff ff ff       	jmp    5590 <_init+0x10>

0000000000005650 <__sched_get_priority_max@plt>:
    5650:	ff 25 1a 2a 21 00    	jmp    QWORD PTR [rip+0x212a1a]        # 218070 <_GLOBAL_OFFSET_TABLE_+0x70>
    5656:	68 0b 00 00 00       	push   0xb
    565b:	e9 30 ff ff ff       	jmp    5590 <_init+0x10>

0000000000005660 <__mempcpy@plt>:
    5660:	ff 25 12 2a 21 00    	jmp    QWORD PTR [rip+0x212a12]        # 218078 <_GLOBAL_OFFSET_TABLE_+0x78>
    5666:	68 0c 00 00 00       	push   0xc
    566b:	e9 20 ff ff ff       	jmp    5590 <_init+0x10>

0000000000005670 <fclose@plt>:
    5670:	ff 25 0a 2a 21 00    	jmp    QWORD PTR [rip+0x212a0a]        # 218080 <_GLOBAL_OFFSET_TABLE_+0x80>
    5676:	68 0d 00 00 00       	push   0xd
    567b:	e9 10 ff ff ff       	jmp    5590 <_init+0x10>

0000000000005680 <strlen@plt>:
    5680:	ff 25 02 2a 21 00    	jmp    QWORD PTR [rip+0x212a02]        # 218088 <_GLOBAL_OFFSET_TABLE_+0x88>
    5686:	68 0e 00 00 00       	push   0xe
    568b:	e9 00 ff ff ff       	jmp    5590 <_init+0x10>

0000000000005690 <getuid@plt>:
    5690:	ff 25 fa 29 21 00    	jmp    QWORD PTR [rip+0x2129fa]        # 218090 <_GLOBAL_OFFSET_TABLE_+0x90>
    5696:	68 0f 00 00 00       	push   0xf
    569b:	e9 f0 fe ff ff       	jmp    5590 <_init+0x10>

00000000000056a0 <mmap@plt>:
    56a0:	ff 25 f2 29 21 00    	jmp    QWORD PTR [rip+0x2129f2]        # 218098 <_GLOBAL_OFFSET_TABLE_+0x98>
    56a6:	68 10 00 00 00       	push   0x10
    56ab:	e9 e0 fe ff ff       	jmp    5590 <_init+0x10>

00000000000056b0 <strchr@plt>:
    56b0:	ff 25 ea 29 21 00    	jmp    QWORD PTR [rip+0x2129ea]        # 2180a0 <_GLOBAL_OFFSET_TABLE_+0xa0>
    56b6:	68 11 00 00 00       	push   0x11
    56bb:	e9 d0 fe ff ff       	jmp    5590 <_init+0x10>

00000000000056c0 <__gettimeofday@plt>:
    56c0:	ff 25 e2 29 21 00    	jmp    QWORD PTR [rip+0x2129e2]        # 2180a8 <_GLOBAL_OFFSET_TABLE_+0xa8>
    56c6:	68 12 00 00 00       	push   0x12
    56cb:	e9 c0 fe ff ff       	jmp    5590 <_init+0x10>

00000000000056d0 <__assert_fail@plt>:
    56d0:	ff 25 da 29 21 00    	jmp    QWORD PTR [rip+0x2129da]        # 2180b0 <_GLOBAL_OFFSET_TABLE_+0xb0>
    56d6:	68 13 00 00 00       	push   0x13
    56db:	e9 b0 fe ff ff       	jmp    5590 <_init+0x10>

00000000000056e0 <memset@plt>:
    56e0:	ff 25 d2 29 21 00    	jmp    QWORD PTR [rip+0x2129d2]        # 2180b8 <_GLOBAL_OFFSET_TABLE_+0xb8>
    56e6:	68 14 00 00 00       	push   0x14
    56eb:	e9 a0 fe ff ff       	jmp    5590 <_init+0x10>

00000000000056f0 <__libc_fork@plt>:
    56f0:	ff 25 ca 29 21 00    	jmp    QWORD PTR [rip+0x2129ca]        # 2180c0 <_GLOBAL_OFFSET_TABLE_+0xc0>
    56f6:	68 15 00 00 00       	push   0x15
    56fb:	e9 90 fe ff ff       	jmp    5590 <_init+0x10>

0000000000005700 <__register_atfork@plt>:
    5700:	ff 25 c2 29 21 00    	jmp    QWORD PTR [rip+0x2129c2]        # 2180c8 <_GLOBAL_OFFSET_TABLE_+0xc8>
    5706:	68 16 00 00 00       	push   0x16
    570b:	e9 80 fe ff ff       	jmp    5590 <_init+0x10>

0000000000005710 <sched_yield@plt>:
    5710:	ff 25 ba 29 21 00    	jmp    QWORD PTR [rip+0x2129ba]        # 2180d0 <_GLOBAL_OFFSET_TABLE_+0xd0>
    5716:	68 17 00 00 00       	push   0x17
    571b:	e9 70 fe ff ff       	jmp    5590 <_init+0x10>

0000000000005720 <_dl_deallocate_tls@plt>:
    5720:	ff 25 b2 29 21 00    	jmp    QWORD PTR [rip+0x2129b2]        # 2180d8 <_GLOBAL_OFFSET_TABLE_+0xd8>
    5726:	68 18 00 00 00       	push   0x18
    572b:	e9 60 fe ff ff       	jmp    5590 <_init+0x10>

0000000000005730 <__call_tls_dtors@plt>:
    5730:	ff 25 aa 29 21 00    	jmp    QWORD PTR [rip+0x2129aa]        # 2180e0 <_GLOBAL_OFFSET_TABLE_+0xe0>
    5736:	68 19 00 00 00       	push   0x19
    573b:	e9 50 fe ff ff       	jmp    5590 <_init+0x10>

0000000000005740 <__sched_getparam@plt>:
    5740:	ff 25 a2 29 21 00    	jmp    QWORD PTR [rip+0x2129a2]        # 2180e8 <_GLOBAL_OFFSET_TABLE_+0xe8>
    5746:	68 1a 00 00 00       	push   0x1a
    574b:	e9 40 fe ff ff       	jmp    5590 <_init+0x10>

0000000000005750 <_setjmp@plt>:
    5750:	ff 25 9a 29 21 00    	jmp    QWORD PTR [rip+0x21299a]        # 2180f0 <_GLOBAL_OFFSET_TABLE_+0xf0>
    5756:	68 1b 00 00 00       	push   0x1b
    575b:	e9 30 fe ff ff       	jmp    5590 <_init+0x10>

0000000000005760 <calloc@plt>:
    5760:	ff 25 92 29 21 00    	jmp    QWORD PTR [rip+0x212992]        # 2180f8 <_GLOBAL_OFFSET_TABLE_+0xf8>
    5766:	68 1c 00 00 00       	push   0x1c
    576b:	e9 20 fe ff ff       	jmp    5590 <_init+0x10>

0000000000005770 <__getdelim@plt>:
    5770:	ff 25 8a 29 21 00    	jmp    QWORD PTR [rip+0x21298a]        # 218100 <_GLOBAL_OFFSET_TABLE_+0x100>
    5776:	68 1d 00 00 00       	push   0x1d
    577b:	e9 10 fe ff ff       	jmp    5590 <_init+0x10>

0000000000005780 <__getmntent_r@plt>:
    5780:	ff 25 82 29 21 00    	jmp    QWORD PTR [rip+0x212982]        # 218108 <_GLOBAL_OFFSET_TABLE_+0x108>
    5786:	68 1e 00 00 00       	push   0x1e
    578b:	e9 00 fe ff ff       	jmp    5590 <_init+0x10>

0000000000005790 <__fxstat64@plt>:
    5790:	ff 25 7a 29 21 00    	jmp    QWORD PTR [rip+0x21297a]        # 218110 <_GLOBAL_OFFSET_TABLE_+0x110>
    5796:	68 1f 00 00 00       	push   0x1f
    579b:	e9 f0 fd ff ff       	jmp    5590 <_init+0x10>

00000000000057a0 <strcmp@plt>:
    57a0:	ff 25 72 29 21 00    	jmp    QWORD PTR [rip+0x212972]        # 218118 <_GLOBAL_OFFSET_TABLE_+0x118>
    57a6:	68 20 00 00 00       	push   0x20
    57ab:	e9 e0 fd ff ff       	jmp    5590 <_init+0x10>

00000000000057b0 <__libc_thread_freeres@plt>:
    57b0:	ff 25 6a 29 21 00    	jmp    QWORD PTR [rip+0x21296a]        # 218120 <_GLOBAL_OFFSET_TABLE_+0x120>
    57b6:	68 21 00 00 00       	push   0x21
    57bb:	e9 d0 fd ff ff       	jmp    5590 <_init+0x10>

00000000000057c0 <__endmntent@plt>:
    57c0:	ff 25 62 29 21 00    	jmp    QWORD PTR [rip+0x212962]        # 218128 <_GLOBAL_OFFSET_TABLE_+0x128>
    57c6:	68 22 00 00 00       	push   0x22
    57cb:	e9 c0 fd ff ff       	jmp    5590 <_init+0x10>

00000000000057d0 <memcpy@plt>:
    57d0:	ff 25 5a 29 21 00    	jmp    QWORD PTR [rip+0x21295a]        # 218130 <_GLOBAL_OFFSET_TABLE_+0x130>
    57d6:	68 23 00 00 00       	push   0x23
    57db:	e9 b0 fd ff ff       	jmp    5590 <_init+0x10>

00000000000057e0 <prctl@plt>:
    57e0:	ff 25 52 29 21 00    	jmp    QWORD PTR [rip+0x212952]        # 218138 <_GLOBAL_OFFSET_TABLE_+0x138>
    57e6:	68 24 00 00 00       	push   0x24
    57eb:	e9 a0 fd ff ff       	jmp    5590 <_init+0x10>

00000000000057f0 <__libc_current_sigrtmax_private@plt>:
    57f0:	ff 25 4a 29 21 00    	jmp    QWORD PTR [rip+0x21294a]        # 218140 <_GLOBAL_OFFSET_TABLE_+0x140>
    57f6:	68 25 00 00 00       	push   0x25
    57fb:	e9 90 fd ff ff       	jmp    5590 <_init+0x10>

0000000000005800 <__tdelete@plt>:
    5800:	ff 25 42 29 21 00    	jmp    QWORD PTR [rip+0x212942]        # 218148 <_GLOBAL_OFFSET_TABLE_+0x148>
    5806:	68 26 00 00 00       	push   0x26
    580b:	e9 80 fd ff ff       	jmp    5590 <_init+0x10>

0000000000005810 <__sched_setscheduler@plt>:
    5810:	ff 25 3a 29 21 00    	jmp    QWORD PTR [rip+0x21293a]        # 218150 <_GLOBAL_OFFSET_TABLE_+0x150>
    5816:	68 27 00 00 00       	push   0x27
    581b:	e9 70 fd ff ff       	jmp    5590 <_init+0x10>

0000000000005820 <__libc_dlopen_mode@plt>:
    5820:	ff 25 32 29 21 00    	jmp    QWORD PTR [rip+0x212932]        # 218158 <_GLOBAL_OFFSET_TABLE_+0x158>
    5826:	68 28 00 00 00       	push   0x28
    582b:	e9 60 fd ff ff       	jmp    5590 <_init+0x10>

0000000000005830 <__getpagesize@plt>:
    5830:	ff 25 2a 29 21 00    	jmp    QWORD PTR [rip+0x21292a]        # 218160 <_GLOBAL_OFFSET_TABLE_+0x160>
    5836:	68 29 00 00 00       	push   0x29
    583b:	e9 50 fd ff ff       	jmp    5590 <_init+0x10>

0000000000005840 <malloc@plt>:
    5840:	ff 25 22 29 21 00    	jmp    QWORD PTR [rip+0x212922]        # 218168 <_GLOBAL_OFFSET_TABLE_+0x168>
    5846:	68 2a 00 00 00       	push   0x2a
    584b:	e9 40 fd ff ff       	jmp    5590 <_init+0x10>

0000000000005850 <sched_get_priority_min@plt>:
    5850:	ff 25 1a 29 21 00    	jmp    QWORD PTR [rip+0x21291a]        # 218170 <_GLOBAL_OFFSET_TABLE_+0x170>
    5856:	68 2b 00 00 00       	push   0x2b
    585b:	e9 30 fd ff ff       	jmp    5590 <_init+0x10>

0000000000005860 <_dl_make_stack_executable@plt>:
    5860:	ff 25 12 29 21 00    	jmp    QWORD PTR [rip+0x212912]        # 218178 <_GLOBAL_OFFSET_TABLE_+0x178>
    5866:	68 2c 00 00 00       	push   0x2c
    586b:	e9 20 fd ff ff       	jmp    5590 <_init+0x10>

0000000000005870 <__libc_pthread_init@plt>:
    5870:	ff 25 0a 29 21 00    	jmp    QWORD PTR [rip+0x21290a]        # 218180 <_GLOBAL_OFFSET_TABLE_+0x180>
    5876:	68 2d 00 00 00       	push   0x2d
    587b:	e9 10 fd ff ff       	jmp    5590 <_init+0x10>

0000000000005880 <__ctype_init@plt>:
    5880:	ff 25 02 29 21 00    	jmp    QWORD PTR [rip+0x212902]        # 218188 <_GLOBAL_OFFSET_TABLE_+0x188>
    5886:	68 2e 00 00 00       	push   0x2e
    588b:	e9 00 fd ff ff       	jmp    5590 <_init+0x10>

0000000000005890 <sscanf@plt>:
    5890:	ff 25 fa 28 21 00    	jmp    QWORD PTR [rip+0x2128fa]        # 218190 <_GLOBAL_OFFSET_TABLE_+0x190>
    5896:	68 2f 00 00 00       	push   0x2f
    589b:	e9 f0 fc ff ff       	jmp    5590 <_init+0x10>

00000000000058a0 <realloc@plt>:
    58a0:	ff 25 f2 28 21 00    	jmp    QWORD PTR [rip+0x2128f2]        # 218198 <_GLOBAL_OFFSET_TABLE_+0x198>
    58a6:	68 30 00 00 00       	push   0x30
    58ab:	e9 e0 fc ff ff       	jmp    5590 <_init+0x10>

00000000000058b0 <__libc_dlsym@plt>:
    58b0:	ff 25 ea 28 21 00    	jmp    QWORD PTR [rip+0x2128ea]        # 2181a0 <_GLOBAL_OFFSET_TABLE_+0x1a0>
    58b6:	68 31 00 00 00       	push   0x31
    58bb:	e9 d0 fc ff ff       	jmp    5590 <_init+0x10>

00000000000058c0 <__tfind@plt>:
    58c0:	ff 25 e2 28 21 00    	jmp    QWORD PTR [rip+0x2128e2]        # 2181a8 <_GLOBAL_OFFSET_TABLE_+0x1a8>
    58c6:	68 32 00 00 00       	push   0x32
    58cb:	e9 c0 fc ff ff       	jmp    5590 <_init+0x10>

00000000000058d0 <munmap@plt>:
    58d0:	ff 25 da 28 21 00    	jmp    QWORD PTR [rip+0x2128da]        # 2181b0 <_GLOBAL_OFFSET_TABLE_+0x1b0>
    58d6:	68 33 00 00 00       	push   0x33
    58db:	e9 b0 fc ff ff       	jmp    5590 <_init+0x10>

00000000000058e0 <__libc_current_sigrtmin_private@plt>:
    58e0:	ff 25 d2 28 21 00    	jmp    QWORD PTR [rip+0x2128d2]        # 2181b8 <_GLOBAL_OFFSET_TABLE_+0x1b8>
    58e6:	68 34 00 00 00       	push   0x34
    58eb:	e9 a0 fc ff ff       	jmp    5590 <_init+0x10>

00000000000058f0 <__madvise@plt>:
    58f0:	ff 25 ca 28 21 00    	jmp    QWORD PTR [rip+0x2128ca]        # 2181c0 <_GLOBAL_OFFSET_TABLE_+0x1c0>
    58f6:	68 35 00 00 00       	push   0x35
    58fb:	e9 90 fc ff ff       	jmp    5590 <_init+0x10>

0000000000005900 <mprotect@plt>:
    5900:	ff 25 c2 28 21 00    	jmp    QWORD PTR [rip+0x2128c2]        # 2181c8 <_GLOBAL_OFFSET_TABLE_+0x1c8>
    5906:	68 36 00 00 00       	push   0x36
    590b:	e9 80 fc ff ff       	jmp    5590 <_init+0x10>

0000000000005910 <fopen@plt>:
    5910:	ff 25 ba 28 21 00    	jmp    QWORD PTR [rip+0x2128ba]        # 2181d0 <_GLOBAL_OFFSET_TABLE_+0x1d0>
    5916:	68 37 00 00 00       	push   0x37
    591b:	e9 70 fc ff ff       	jmp    5590 <_init+0x10>

0000000000005920 <__mktemp@plt>:
    5920:	ff 25 b2 28 21 00    	jmp    QWORD PTR [rip+0x2128b2]        # 2181d8 <_GLOBAL_OFFSET_TABLE_+0x1d8>
    5926:	68 38 00 00 00       	push   0x38
    592b:	e9 60 fc ff ff       	jmp    5590 <_init+0x10>

0000000000005930 <__twalk@plt>:
    5930:	ff 25 aa 28 21 00    	jmp    QWORD PTR [rip+0x2128aa]        # 2181e0 <_GLOBAL_OFFSET_TABLE_+0x1e0>
    5936:	68 39 00 00 00       	push   0x39
    593b:	e9 50 fc ff ff       	jmp    5590 <_init+0x10>

0000000000005940 <_dl_allocate_tls@plt>:
    5940:	ff 25 a2 28 21 00    	jmp    QWORD PTR [rip+0x2128a2]        # 2181e8 <_GLOBAL_OFFSET_TABLE_+0x1e8>
    5946:	68 3a 00 00 00       	push   0x3a
    594b:	e9 40 fc ff ff       	jmp    5590 <_init+0x10>

0000000000005950 <__setmntent@plt>:
    5950:	ff 25 9a 28 21 00    	jmp    QWORD PTR [rip+0x21289a]        # 2181f0 <_GLOBAL_OFFSET_TABLE_+0x1f0>
    5956:	68 3b 00 00 00       	push   0x3b
    595b:	e9 30 fc ff ff       	jmp    5590 <_init+0x10>

0000000000005960 <sched_setparam@plt>:
    5960:	ff 25 92 28 21 00    	jmp    QWORD PTR [rip+0x212892]        # 2181f8 <_GLOBAL_OFFSET_TABLE_+0x1f8>
    5966:	68 3c 00 00 00       	push   0x3c
    596b:	e9 20 fc ff ff       	jmp    5590 <_init+0x10>

0000000000005970 <_dl_get_tls_static_info@plt>:
    5970:	ff 25 8a 28 21 00    	jmp    QWORD PTR [rip+0x21288a]        # 218200 <_GLOBAL_OFFSET_TABLE_+0x200>
    5976:	68 3d 00 00 00       	push   0x3d
    597b:	e9 10 fc ff ff       	jmp    5590 <_init+0x10>

0000000000005980 <sprintf@plt>:
    5980:	ff 25 82 28 21 00    	jmp    QWORD PTR [rip+0x212882]        # 218208 <_GLOBAL_OFFSET_TABLE_+0x208>
    5986:	68 3e 00 00 00       	push   0x3e
    598b:	e9 00 fc ff ff       	jmp    5590 <_init+0x10>

0000000000005990 <link@plt>:
    5990:	ff 25 7a 28 21 00    	jmp    QWORD PTR [rip+0x21287a]        # 218210 <_GLOBAL_OFFSET_TABLE_+0x210>
    5996:	68 3f 00 00 00       	push   0x3f
    599b:	e9 f0 fb ff ff       	jmp    5590 <_init+0x10>

00000000000059a0 <exit@plt>:
    59a0:	ff 25 72 28 21 00    	jmp    QWORD PTR [rip+0x212872]        # 218218 <_GLOBAL_OFFSET_TABLE_+0x218>
    59a6:	68 40 00 00 00       	push   0x40
    59ab:	e9 e0 fb ff ff       	jmp    5590 <_init+0x10>

00000000000059b0 <sched_get_priority_max@plt>:
    59b0:	ff 25 6a 28 21 00    	jmp    QWORD PTR [rip+0x21286a]        # 218220 <_GLOBAL_OFFSET_TABLE_+0x220>
    59b6:	68 41 00 00 00       	push   0x41
    59bb:	e9 d0 fb ff ff       	jmp    5590 <_init+0x10>

00000000000059c0 <getrlimit@plt>:
    59c0:	ff 25 62 28 21 00    	jmp    QWORD PTR [rip+0x212862]        # 218228 <_GLOBAL_OFFSET_TABLE_+0x228>
    59c6:	68 42 00 00 00       	push   0x42
    59cb:	e9 c0 fb ff ff       	jmp    5590 <_init+0x10>

00000000000059d0 <__libc_alloca_cutoff@plt>:
    59d0:	ff 25 5a 28 21 00    	jmp    QWORD PTR [rip+0x21285a]        # 218230 <_GLOBAL_OFFSET_TABLE_+0x230>
    59d6:	68 43 00 00 00       	push   0x43
    59db:	e9 b0 fb ff ff       	jmp    5590 <_init+0x10>

00000000000059e0 <_dl_allocate_tls_init@plt>:
    59e0:	ff 25 52 28 21 00    	jmp    QWORD PTR [rip+0x212852]        # 218238 <_GLOBAL_OFFSET_TABLE_+0x238>
    59e6:	68 44 00 00 00       	push   0x44
    59eb:	e9 a0 fb ff ff       	jmp    5590 <_init+0x10>

00000000000059f0 <__libc_allocate_rtsig_private@plt>:
    59f0:	ff 25 4a 28 21 00    	jmp    QWORD PTR [rip+0x21284a]        # 218240 <_GLOBAL_OFFSET_TABLE_+0x240>
    59f6:	68 45 00 00 00       	push   0x45
    59fb:	e9 90 fb ff ff       	jmp    5590 <_init+0x10>

0000000000005a00 <__sched_get_priority_min@plt>:
    5a00:	ff 25 42 28 21 00    	jmp    QWORD PTR [rip+0x212842]        # 218248 <_GLOBAL_OFFSET_TABLE_+0x248>
    5a06:	68 46 00 00 00       	push   0x46
    5a0b:	e9 80 fb ff ff       	jmp    5590 <_init+0x10>

Disassembly of section .plt.got:

0000000000005a10 <.plt.got>:
    5a10:	ff 25 a2 25 21 00    	jmp    QWORD PTR [rip+0x2125a2]        # 217fb8 <_DYNAMIC+0x268>
    5a16:	66 90                	xchg   ax,ax
    5a18:	ff 25 c2 25 21 00    	jmp    QWORD PTR [rip+0x2125c2]        # 217fe0 <_DYNAMIC+0x290>
    5a1e:	66 90                	xchg   ax,ax
    5a20:	ff 25 c2 25 21 00    	jmp    QWORD PTR [rip+0x2125c2]        # 217fe8 <_DYNAMIC+0x298>
    5a26:	66 90                	xchg   ax,ax

Disassembly of section .text:

0000000000005a30 <deregister_tm_clones>:
    5a30:	48 8d 3d 69 28 21 00 	lea    rdi,[rip+0x212869]        # 2182a0 <__TMC_END__>
    5a37:	48 8d 05 69 28 21 00 	lea    rax,[rip+0x212869]        # 2182a7 <__nptl_initial_report_events+0x6>
    5a3e:	55                   	push   rbp
    5a3f:	48 29 f8             	sub    rax,rdi
    5a42:	48 89 e5             	mov    rbp,rsp
    5a45:	48 83 f8 0e          	cmp    rax,0xe
    5a49:	76 15                	jbe    5a60 <deregister_tm_clones+0x30>
    5a4b:	48 8b 05 2e 25 21 00 	mov    rax,QWORD PTR [rip+0x21252e]        # 217f80 <_DYNAMIC+0x230>
    5a52:	48 85 c0             	test   rax,rax
    5a55:	74 09                	je     5a60 <deregister_tm_clones+0x30>
    5a57:	5d                   	pop    rbp
    5a58:	ff e0                	jmp    rax
    5a5a:	66 0f 1f 44 00 00    	nop    WORD PTR [rax+rax*1+0x0]
    5a60:	5d                   	pop    rbp
    5a61:	c3                   	ret    
    5a62:	0f 1f 40 00          	nop    DWORD PTR [rax+0x0]
    5a66:	66 2e 0f 1f 84 00 00 	nop    WORD PTR cs:[rax+rax*1+0x0]
    5a6d:	00 00 00 

0000000000005a70 <register_tm_clones>:
    5a70:	48 8d 3d 29 28 21 00 	lea    rdi,[rip+0x212829]        # 2182a0 <__TMC_END__>
    5a77:	48 8d 35 22 28 21 00 	lea    rsi,[rip+0x212822]        # 2182a0 <__TMC_END__>
    5a7e:	55                   	push   rbp
    5a7f:	48 29 fe             	sub    rsi,rdi
    5a82:	48 89 e5             	mov    rbp,rsp
    5a85:	48 c1 fe 03          	sar    rsi,0x3
    5a89:	48 89 f0             	mov    rax,rsi
    5a8c:	48 c1 e8 3f          	shr    rax,0x3f
    5a90:	48 01 c6             	add    rsi,rax
    5a93:	48 d1 fe             	sar    rsi,1
    5a96:	74 18                	je     5ab0 <register_tm_clones+0x40>
    5a98:	48 8b 05 31 25 21 00 	mov    rax,QWORD PTR [rip+0x212531]        # 217fd0 <_DYNAMIC+0x280>
    5a9f:	48 85 c0             	test   rax,rax
    5aa2:	74 0c                	je     5ab0 <register_tm_clones+0x40>
    5aa4:	5d                   	pop    rbp
    5aa5:	ff e0                	jmp    rax
    5aa7:	66 0f 1f 84 00 00 00 	nop    WORD PTR [rax+rax*1+0x0]
    5aae:	00 00 
    5ab0:	5d                   	pop    rbp
    5ab1:	c3                   	ret    
    5ab2:	0f 1f 40 00          	nop    DWORD PTR [rax+0x0]
    5ab6:	66 2e 0f 1f 84 00 00 	nop    WORD PTR cs:[rax+rax*1+0x0]
    5abd:	00 00 00 

0000000000005ac0 <__do_global_dtors_aux>:
    5ac0:	80 3d d9 27 21 00 00 	cmp    BYTE PTR [rip+0x2127d9],0x0        # 2182a0 <__TMC_END__>
    5ac7:	75 27                	jne    5af0 <__do_global_dtors_aux+0x30>
    5ac9:	48 83 3d 17 25 21 00 	cmp    QWORD PTR [rip+0x212517],0x0        # 217fe8 <_DYNAMIC+0x298>
    5ad0:	00 
    5ad1:	55                   	push   rbp
    5ad2:	48 89 e5             	mov    rbp,rsp
    5ad5:	74 0c                	je     5ae3 <__do_global_dtors_aux+0x23>
    5ad7:	48 8b 3d 72 27 21 00 	mov    rdi,QWORD PTR [rip+0x212772]        # 218250 <__dso_handle>
    5ade:	e8 3d ff ff ff       	call   5a20 <__sched_get_priority_min@plt+0x20>
    5ae3:	e8 48 ff ff ff       	call   5a30 <deregister_tm_clones>
    5ae8:	5d                   	pop    rbp
    5ae9:	c6 05 b0 27 21 00 01 	mov    BYTE PTR [rip+0x2127b0],0x1        # 2182a0 <__TMC_END__>
    5af0:	f3 c3                	repz ret 
    5af2:	0f 1f 40 00          	nop    DWORD PTR [rax+0x0]
    5af6:	66 2e 0f 1f 84 00 00 	nop    WORD PTR cs:[rax+rax*1+0x0]
    5afd:	00 00 00 

0000000000005b00 <frame_dummy>:
    5b00:	48 8d 3d 89 20 21 00 	lea    rdi,[rip+0x212089]        # 217b90 <__JCR_END__>
    5b07:	48 83 3f 00          	cmp    QWORD PTR [rdi],0x0
    5b0b:	75 0b                	jne    5b18 <frame_dummy+0x18>
    5b0d:	e9 5e ff ff ff       	jmp    5a70 <register_tm_clones>
    5b12:	66 0f 1f 44 00 00    	nop    WORD PTR [rax+rax*1+0x0]
    5b18:	48 8b 05 a9 24 21 00 	mov    rax,QWORD PTR [rip+0x2124a9]        # 217fc8 <_DYNAMIC+0x278>
    5b1f:	48 85 c0             	test   rax,rax
    5b22:	74 e9                	je     5b0d <frame_dummy+0xd>
    5b24:	55                   	push   rbp
    5b25:	48 89 e5             	mov    rbp,rsp
    5b28:	ff d0                	call   rax
    5b2a:	5d                   	pop    rbp
    5b2b:	e9 40 ff ff ff       	jmp    5a70 <register_tm_clones>

0000000000005b30 <__nptl_set_robust>:
    5b30:	be 18 00 00 00       	mov    esi,0x18
    5b35:	48 81 c7 e0 02 00 00 	add    rdi,0x2e0
    5b3c:	b8 11 01 00 00       	mov    eax,0x111
    5b41:	0f 05                	syscall 
    5b43:	c3                   	ret    
    5b44:	66 90                	xchg   ax,ax
    5b46:	66 2e 0f 1f 84 00 00 	nop    WORD PTR cs:[rax+rax*1+0x0]
    5b4d:	00 00 00 

0000000000005b50 <sigcancel_handler>:
    5b50:	64 8b 04 25 d4 02 00 	mov    eax,DWORD PTR fs:0x2d4
    5b57:	00 
    5b58:	83 ff 20             	cmp    edi,0x20
    5b5b:	74 03                	je     5b60 <sigcancel_handler+0x10>
    5b5d:	f3 c3                	repz ret 
    5b5f:	90                   	nop
    5b60:	99                   	cdq    
    5b61:	31 d0                	xor    eax,edx
    5b63:	29 d0                	sub    eax,edx
    5b65:	3b 46 10             	cmp    eax,DWORD PTR [rsi+0x10]
    5b68:	75 f3                	jne    5b5d <sigcancel_handler+0xd>
    5b6a:	83 7e 08 fa          	cmp    DWORD PTR [rsi+0x8],0xfffffffa
    5b6e:	75 ed                	jne    5b5d <sigcancel_handler+0xd>
    5b70:	64 8b 14 25 08 03 00 	mov    edx,DWORD PTR fs:0x308
    5b77:	00 
    5b78:	eb 1d                	jmp    5b97 <sigcancel_handler+0x47>
    5b7a:	66 0f 1f 44 00 00    	nop    WORD PTR [rax+rax*1+0x0]
    5b80:	f6 c2 10             	test   dl,0x10
    5b83:	75 d8                	jne    5b5d <sigcancel_handler+0xd>
    5b85:	89 d0                	mov    eax,edx
    5b87:	f0 64 0f b1 0c 25 08 	lock cmpxchg DWORD PTR fs:0x308,ecx
    5b8e:	03 00 00 
    5b91:	39 c2                	cmp    edx,eax
    5b93:	74 13                	je     5ba8 <sigcancel_handler+0x58>
    5b95:	89 c2                	mov    edx,eax
    5b97:	89 d1                	mov    ecx,edx
    5b99:	83 c9 0c             	or     ecx,0xc
    5b9c:	39 ca                	cmp    edx,ecx
    5b9e:	75 e0                	jne    5b80 <sigcancel_handler+0x30>
    5ba0:	f3 c3                	repz ret 
    5ba2:	66 0f 1f 44 00 00    	nop    WORD PTR [rax+rax*1+0x0]
    5ba8:	64 48 c7 04 25 30 06 	mov    QWORD PTR fs:0x630,0xffffffffffffffff
    5baf:	00 00 ff ff ff ff 
    5bb5:	83 e2 02             	and    edx,0x2
    5bb8:	74 a3                	je     5b5d <sigcancel_handler+0xd>
    5bba:	50                   	push   rax
    5bbb:	f0 64 83 0c 25 08 03 	lock or DWORD PTR fs:0x308,0x10
    5bc2:	00 00 10 
    5bc5:	64 48 8b 3c 25 00 03 	mov    rdi,QWORD PTR fs:0x300
    5bcc:	00 00 
    5bce:	e8 5d a4 00 00       	call   10030 <__pthread_unwind>
    5bd3:	0f 1f 00             	nop    DWORD PTR [rax]
    5bd6:	66 2e 0f 1f 84 00 00 	nop    WORD PTR cs:[rax+rax*1+0x0]
    5bdd:	00 00 00 

0000000000005be0 <sighandler_setxid>:
    5be0:	64 8b 04 25 d4 02 00 	mov    eax,DWORD PTR fs:0x2d4
    5be7:	00 
    5be8:	83 ff 21             	cmp    edi,0x21
    5beb:	74 03                	je     5bf0 <sighandler_setxid+0x10>
    5bed:	c3                   	ret    
    5bee:	66 90                	xchg   ax,ax
    5bf0:	99                   	cdq    
    5bf1:	31 d0                	xor    eax,edx
    5bf3:	29 d0                	sub    eax,edx
    5bf5:	39 46 10             	cmp    DWORD PTR [rsi+0x10],eax
    5bf8:	75 f3                	jne    5bed <sighandler_setxid+0xd>
    5bfa:	83 7e 08 fa          	cmp    DWORD PTR [rsi+0x8],0xfffffffa
    5bfe:	75 ed                	jne    5bed <sighandler_setxid+0xd>
    5c00:	48 83 ec 08          	sub    rsp,0x8
    5c04:	48 8b 05 5d 67 21 00 	mov    rax,QWORD PTR [rip+0x21675d]        # 21c368 <__xidcmd>
    5c0b:	48 8b 70 10          	mov    rsi,QWORD PTR [rax+0x10]
    5c0f:	48 8b 78 08          	mov    rdi,QWORD PTR [rax+0x8]
    5c13:	48 8b 50 18          	mov    rdx,QWORD PTR [rax+0x18]
    5c17:	8b 00                	mov    eax,DWORD PTR [rax]
    5c19:	0f 05                	syscall 
    5c1b:	48 8b 3d 46 67 21 00 	mov    rdi,QWORD PTR [rip+0x216746]        # 21c368 <__xidcmd>
    5c22:	89 c2                	mov    edx,eax
    5c24:	be 00 00 00 00       	mov    esi,0x0
    5c29:	f7 da                	neg    edx
    5c2b:	3d 00 f0 ff ff       	cmp    eax,0xfffff000
    5c30:	0f 47 f2             	cmova  esi,edx
    5c33:	e8 18 10 00 00       	call   6c50 <__nptl_setxid_error>
    5c38:	64 48 8b 3c 25 10 00 	mov    rdi,QWORD PTR fs:0x10
    5c3f:	00 00 
    5c41:	0f 1f 80 00 00 00 00 	nop    DWORD PTR [rax+0x0]
    5c48:	64 8b 14 25 08 03 00 	mov    edx,DWORD PTR fs:0x308
    5c4f:	00 
    5c50:	89 d1                	mov    ecx,edx
    5c52:	89 d0                	mov    eax,edx
    5c54:	83 e1 bf             	and    ecx,0xffffffbf
    5c57:	f0 64 0f b1 0c 25 08 	lock cmpxchg DWORD PTR fs:0x308,ecx
    5c5e:	03 00 00 
    5c61:	39 c2                	cmp    edx,eax
    5c63:	75 e3                	jne    5c48 <sighandler_setxid+0x68>
    5c65:	c7 87 1c 06 00 00 01 	mov    DWORD PTR [rdi+0x61c],0x1
    5c6c:	00 00 00 
    5c6f:	45 31 d2             	xor    r10d,r10d
    5c72:	ba 01 00 00 00       	mov    edx,0x1
    5c77:	be 81 00 00 00       	mov    esi,0x81
    5c7c:	48 81 c7 1c 06 00 00 	add    rdi,0x61c
    5c83:	b8 ca 00 00 00       	mov    eax,0xca
    5c88:	0f 05                	syscall 
    5c8a:	48 3d 00 f0 ff ff    	cmp    rax,0xfffffffffffff000
    5c90:	77 56                	ja     5ce8 <sighandler_setxid+0x108>
    5c92:	48 8b 05 cf 66 21 00 	mov    rax,QWORD PTR [rip+0x2166cf]        # 21c368 <__xidcmd>
    5c99:	f0 83 68 20 01       	lock sub DWORD PTR [rax+0x20],0x1
    5c9e:	74 08                	je     5ca8 <sighandler_setxid+0xc8>
    5ca0:	48 83 c4 08          	add    rsp,0x8
    5ca4:	c3                   	ret    
    5ca5:	0f 1f 00             	nop    DWORD PTR [rax]
    5ca8:	48 8b 05 b9 66 21 00 	mov    rax,QWORD PTR [rip+0x2166b9]        # 21c368 <__xidcmd>
    5caf:	45 31 d2             	xor    r10d,r10d
    5cb2:	ba 01 00 00 00       	mov    edx,0x1
    5cb7:	be 81 00 00 00       	mov    esi,0x81
    5cbc:	48 8d 78 20          	lea    rdi,[rax+0x20]
    5cc0:	b8 ca 00 00 00       	mov    eax,0xca
    5cc5:	0f 05                	syscall 
    5cc7:	48 3d 00 f0 ff ff    	cmp    rax,0xfffffffffffff000
    5ccd:	76 d1                	jbe    5ca0 <sighandler_setxid+0xc0>
    5ccf:	83 f8 ea             	cmp    eax,0xffffffea
    5cd2:	74 cc                	je     5ca0 <sighandler_setxid+0xc0>
    5cd4:	83 f8 f2             	cmp    eax,0xfffffff2
    5cd7:	74 c7                	je     5ca0 <sighandler_setxid+0xc0>
    5cd9:	48 8d 3d 00 ce 00 00 	lea    rdi,[rip+0xce00]        # 12ae0 <_fini+0xc>
    5ce0:	e8 4b f9 ff ff       	call   5630 <__libc_fatal@plt>
    5ce5:	0f 1f 00             	nop    DWORD PTR [rax]
    5ce8:	83 f8 ea             	cmp    eax,0xffffffea
    5ceb:	74 a5                	je     5c92 <sighandler_setxid+0xb2>
    5ced:	83 f8 f2             	cmp    eax,0xfffffff2
    5cf0:	74 a0                	je     5c92 <sighandler_setxid+0xb2>
    5cf2:	48 8d 3d e7 cd 00 00 	lea    rdi,[rip+0xcde7]        # 12ae0 <_fini+0xc>
    5cf9:	e8 32 f9 ff ff       	call   5630 <__libc_fatal@plt>
    5cfe:	66 90                	xchg   ax,ax

0000000000005d00 <__pthread_initialize_minimal>:
    5d00:	41 54                	push   r12
    5d02:	55                   	push   rbp
    5d03:	b8 da 00 00 00       	mov    eax,0xda
    5d08:	53                   	push   rbx
    5d09:	64 48 8b 14 25 10 00 	mov    rdx,QWORD PTR fs:0x10
    5d10:	00 00 
    5d12:	48 81 ec c0 00 00 00 	sub    rsp,0xc0
    5d19:	48 8d ba d0 02 00 00 	lea    rdi,[rdx+0x2d0]
    5d20:	0f 05                	syscall 
    5d22:	89 82 d0 02 00 00    	mov    DWORD PTR [rdx+0x2d0],eax
    5d28:	89 82 d4 02 00 00    	mov    DWORD PTR [rdx+0x2d4],eax
    5d2e:	48 8d 82 10 03 00 00 	lea    rax,[rdx+0x310]
    5d35:	64 48 89 04 25 10 05 	mov    QWORD PTR fs:0x510,rax
    5d3c:	00 00 
    5d3e:	64 c6 04 25 12 06 00 	mov    BYTE PTR fs:0x612,0x1
    5d45:	00 01 
    5d47:	48 8b 2d 8a 22 21 00 	mov    rbp,QWORD PTR [rip+0x21228a]        # 217fd8 <_DYNAMIC+0x288>
    5d4e:	48 8b 85 68 09 00 00 	mov    rax,QWORD PTR [rbp+0x968]
    5d55:	64 48 89 04 25 20 06 	mov    QWORD PTR fs:0x620,rax
    5d5c:	00 00 
    5d5e:	48 8d ba e0 02 00 00 	lea    rdi,[rdx+0x2e0]
    5d65:	48 c7 82 e8 02 00 00 	mov    QWORD PTR [rdx+0x2e8],0xffffffffffffffe0
    5d6c:	e0 ff ff ff 
    5d70:	be 18 00 00 00       	mov    esi,0x18
    5d75:	b8 11 01 00 00       	mov    eax,0x111
    5d7a:	48 89 ba d8 02 00 00 	mov    QWORD PTR [rdx+0x2d8],rdi
    5d81:	48 89 ba e0 02 00 00 	mov    QWORD PTR [rdx+0x2e0],rdi
    5d88:	0f 05                	syscall 
    5d8a:	48 8b 05 0f 22 21 00 	mov    rax,QWORD PTR [rip+0x21220f]        # 217fa0 <_DYNAMIC+0x250>
    5d91:	48 8b 00             	mov    rax,QWORD PTR [rax]
    5d94:	64 48 89 04 25 98 06 	mov    QWORD PTR fs:0x698,rax
    5d9b:	00 00 
    5d9d:	48 8d 05 2c 65 21 00 	lea    rax,[rip+0x21652c]        # 21c2d0 <__GI___stack_user>
    5da4:	48 8d 0d 25 65 21 00 	lea    rcx,[rip+0x216525]        # 21c2d0 <__GI___stack_user>
    5dab:	48 89 05 1e 65 21 00 	mov    QWORD PTR [rip+0x21651e],rax        # 21c2d0 <__GI___stack_user>
    5db2:	48 8d 82 c0 02 00 00 	lea    rax,[rdx+0x2c0]
    5db9:	48 89 8a c0 02 00 00 	mov    QWORD PTR [rdx+0x2c0],rcx
    5dc0:	48 89 8a c8 02 00 00 	mov    QWORD PTR [rdx+0x2c8],rcx
    5dc7:	48 89 05 0a 65 21 00 	mov    QWORD PTR [rip+0x21650a],rax        # 21c2d8 <__GI___stack_user+0x8>
    5dce:	48 89 05 fb 64 21 00 	mov    QWORD PTR [rip+0x2164fb],rax        # 21c2d0 <__GI___stack_user>
    5dd5:	0f b6 05 c5 24 21 00 	movzx  eax,BYTE PTR [rip+0x2124c5]        # 2182a1 <__nptl_initial_report_events>
    5ddc:	64 88 04 25 11 06 00 	mov    BYTE PTR fs:0x611,al
    5de3:	00 
    5de4:	48 8d 5c 24 28       	lea    rbx,[rsp+0x28]
    5de9:	31 c0                	xor    eax,eax
    5deb:	b9 10 00 00 00       	mov    ecx,0x10
    5df0:	4c 8d 64 24 20       	lea    r12,[rsp+0x20]
    5df5:	31 d2                	xor    edx,edx
    5df7:	c7 84 24 a8 00 00 00 	mov    DWORD PTR [rsp+0xa8],0x4
    5dfe:	04 00 00 00 
    5e02:	48 89 df             	mov    rdi,rbx
    5e05:	f3 48 ab             	rep stos QWORD PTR es:[rdi],rax
    5e08:	48 8d 05 41 fd ff ff 	lea    rax,[rip+0xfffffffffffffd41]        # 5b50 <sigcancel_handler>
    5e0f:	4c 89 e6             	mov    rsi,r12
    5e12:	bf 20 00 00 00       	mov    edi,0x20
    5e17:	48 89 44 24 20       	mov    QWORD PTR [rsp+0x20],rax
    5e1c:	e8 7f b5 00 00       	call   113a0 <__libc_sigaction>
    5e21:	48 8d 05 b8 fd ff ff 	lea    rax,[rip+0xfffffffffffffdb8]        # 5be0 <sighandler_setxid>
    5e28:	31 d2                	xor    edx,edx
    5e2a:	4c 89 e6             	mov    rsi,r12
    5e2d:	bf 21 00 00 00       	mov    edi,0x21
    5e32:	c7 84 24 a8 00 00 00 	mov    DWORD PTR [rsp+0xa8],0x10000004
    5e39:	04 00 00 10 
    5e3d:	48 89 44 24 20       	mov    QWORD PTR [rsp+0x20],rax
    5e42:	e8 59 b5 00 00       	call   113a0 <__libc_sigaction>
    5e47:	48 b8 00 00 00 80 01 	movabs rax,0x180000000
    5e4e:	00 00 00 
    5e51:	41 ba 08 00 00 00    	mov    r10d,0x8
    5e57:	48 09 44 24 28       	or     QWORD PTR [rsp+0x28],rax
    5e5c:	31 d2                	xor    edx,edx
    5e5e:	48 89 de             	mov    rsi,rbx
    5e61:	bf 01 00 00 00       	mov    edi,0x1
    5e66:	b8 0e 00 00 00       	mov    eax,0xe
    5e6b:	0f 05                	syscall 
    5e6d:	48 8d 3d 0c 65 21 00 	lea    rdi,[rip+0x21650c]        # 21c380 <__static_tls_size>
    5e74:	48 8d 74 24 08       	lea    rsi,[rsp+0x8]
    5e79:	e8 f2 fa ff ff       	call   5970 <_dl_get_tls_static_info@plt>
    5e7e:	48 8b 4c 24 08       	mov    rcx,QWORD PTR [rsp+0x8]
    5e83:	48 83 f9 0f          	cmp    rcx,0xf
    5e87:	0f 87 d3 01 00 00    	ja     6060 <__pthread_initialize_minimal+0x360>
    5e8d:	48 c7 44 24 08 10 00 	mov    QWORD PTR [rsp+0x8],0x10
    5e94:	00 00 
    5e96:	48 c7 05 cf 64 21 00 	mov    QWORD PTR [rip+0x2164cf],0xf        # 21c370 <__static_tls_align_m1>
    5e9d:	0f 00 00 00 
    5ea1:	b9 10 00 00 00       	mov    ecx,0x10
    5ea6:	48 8b 05 d3 64 21 00 	mov    rax,QWORD PTR [rip+0x2164d3]        # 21c380 <__static_tls_size>
    5ead:	31 d2                	xor    edx,edx
    5eaf:	48 8d 74 24 10       	lea    rsi,[rsp+0x10]
    5eb4:	bf 03 00 00 00       	mov    edi,0x3
    5eb9:	48 8d 44 01 ff       	lea    rax,[rcx+rax*1-0x1]
    5ebe:	48 f7 f1             	div    rcx
    5ec1:	48 0f af c8          	imul   rcx,rax
    5ec5:	48 89 0d b4 64 21 00 	mov    QWORD PTR [rip+0x2164b4],rcx        # 21c380 <__static_tls_size>
    5ecc:	e8 ff f6 ff ff       	call   55d0 <__getrlimit@plt>
    5ed1:	85 c0                	test   eax,eax
    5ed3:	75 23                	jne    5ef8 <__pthread_initialize_minimal+0x1f8>
    5ed5:	48 8b 4c 24 10       	mov    rcx,QWORD PTR [rsp+0x10]
    5eda:	48 83 f9 ff          	cmp    rcx,0xffffffffffffffff
    5ede:	74 18                	je     5ef8 <__pthread_initialize_minimal+0x1f8>
    5ee0:	48 81 f9 ff 3f 00 00 	cmp    rcx,0x3fff
    5ee7:	b8 00 40 00 00       	mov    eax,0x4000
    5eec:	48 0f 46 c8          	cmovbe rcx,rax
    5ef0:	eb 0b                	jmp    5efd <__pthread_initialize_minimal+0x1fd>
    5ef2:	66 0f 1f 44 00 00    	nop    WORD PTR [rax+rax*1+0x0]
    5ef8:	b9 00 00 20 00       	mov    ecx,0x200000
    5efd:	48 8b 05 a4 20 21 00 	mov    rax,QWORD PTR [rip+0x2120a4]        # 217fa8 <_DYNAMIC+0x258>
    5f04:	be 01 00 00 00       	mov    esi,0x1
    5f09:	4c 8b 40 18          	mov    r8,QWORD PTR [rax+0x18]
    5f0d:	4c 89 c2             	mov    rdx,r8
    5f10:	48 03 15 69 64 21 00 	add    rdx,QWORD PTR [rip+0x216469]        # 21c380 <__static_tls_size>
    5f17:	48 8d 82 00 08 00 00 	lea    rax,[rdx+0x800]
    5f1e:	48 39 c8             	cmp    rax,rcx
    5f21:	48 0f 42 c1          	cmovb  rax,rcx
    5f25:	49 8d 54 00 ff       	lea    rdx,[r8+rax*1-0x1]
    5f2a:	4c 89 c0             	mov    rax,r8
    5f2d:	48 f7 d8             	neg    rax
    5f30:	48 21 d0             	and    rax,rdx
    5f33:	48 89 44 24 10       	mov    QWORD PTR [rsp+0x10],rax
    5f38:	31 c0                	xor    eax,eax
    5f3a:	f0 0f b1 35 7e 63 21 	lock cmpxchg DWORD PTR [rip+0x21637e],esi        # 21c2c0 <__default_pthread_attr_lock>
    5f41:	00 
    5f42:	74 1a                	je     5f5e <__pthread_initialize_minimal+0x25e>
    5f44:	48 8d 3d 75 63 21 00 	lea    rdi,[rip+0x216375]        # 21c2c0 <__default_pthread_attr_lock>
    5f4b:	48 81 ec 80 00 00 00 	sub    rsp,0x80
    5f52:	e8 c9 a2 00 00       	call   10220 <__lll_lock_wait_private>
    5f57:	48 81 c4 80 00 00 00 	add    rsp,0x80
    5f5e:	48 8b 44 24 10       	mov    rax,QWORD PTR [rsp+0x10]
    5f63:	4c 89 05 66 64 21 00 	mov    QWORD PTR [rip+0x216466],r8        # 21c3d0 <__default_pthread_attr+0x10>
    5f6a:	48 89 05 6f 64 21 00 	mov    QWORD PTR [rip+0x21646f],rax        # 21c3e0 <__default_pthread_attr+0x20>
    5f71:	f0 ff 0d 48 63 21 00 	lock dec DWORD PTR [rip+0x216348]        # 21c2c0 <__default_pthread_attr_lock>
    5f78:	74 1a                	je     5f94 <__pthread_initialize_minimal+0x294>
    5f7a:	48 8d 3d 3f 63 21 00 	lea    rdi,[rip+0x21633f]        # 21c2c0 <__default_pthread_attr_lock>
    5f81:	48 81 ec 80 00 00 00 	sub    rsp,0x80
    5f88:	e8 43 a3 00 00       	call   102d0 <__lll_unlock_wake_private>
    5f8d:	48 81 c4 80 00 00 00 	add    rsp,0x80
    5f94:	e8 77 fa ff ff       	call   5a10 <__sched_get_priority_min@plt+0x10>
    5f99:	48 89 c3             	mov    rbx,rax
    5f9c:	4c 8d a5 08 09 00 00 	lea    r12,[rbp+0x908]
    5fa3:	ff 95 90 09 00 00    	call   QWORD PTR [rbp+0x990]
    5fa9:	48 8b 00             	mov    rax,QWORD PTR [rax]
    5fac:	48 89 03             	mov    QWORD PTR [rbx],rax
    5faf:	48 8b 05 02 20 21 00 	mov    rax,QWORD PTR [rip+0x212002]        # 217fb8 <_DYNAMIC+0x268>
    5fb6:	8b 9d 0c 09 00 00    	mov    ebx,DWORD PTR [rbp+0x90c]
    5fbc:	c7 85 0c 09 00 00 00 	mov    DWORD PTR [rbp+0x90c],0x0
    5fc3:	00 00 00 
    5fc6:	48 89 85 90 09 00 00 	mov    QWORD PTR [rbp+0x990],rax
    5fcd:	48 8d 05 6c 3d 00 00 	lea    rax,[rip+0x3d6c]        # 9d40 <__pthread_mutex_lock>
    5fd4:	85 db                	test   ebx,ebx
    5fd6:	48 89 85 08 0f 00 00 	mov    QWORD PTR [rbp+0xf08],rax
    5fdd:	48 8d 05 dc 54 00 00 	lea    rax,[rip+0x54dc]        # b4c0 <__pthread_mutex_unlock>
    5fe4:	48 89 85 10 0f 00 00 	mov    QWORD PTR [rbp+0xf10],rax
    5feb:	74 10                	je     5ffd <__pthread_initialize_minimal+0x2fd>
    5fed:	0f 1f 00             	nop    DWORD PTR [rax]
    5ff0:	4c 89 e7             	mov    rdi,r12
    5ff3:	e8 48 3d 00 00       	call   9d40 <__pthread_mutex_lock>
    5ff8:	83 eb 01             	sub    ebx,0x1
    5ffb:	75 f3                	jne    5ff0 <__pthread_initialize_minimal+0x2f0>
    5ffd:	48 8d 05 6c 07 00 00 	lea    rax,[rip+0x76c]        # 6770 <__make_stacks_executable>
    6004:	48 8d 15 95 1b 21 00 	lea    rdx,[rip+0x211b95]        # 217ba0 <pthread_functions>
    600b:	48 8d 35 7e 08 00 00 	lea    rsi,[rip+0x87e]        # 6890 <__reclaim_stacks>
    6012:	48 8d 3d ef 63 21 00 	lea    rdi,[rip+0x2163ef]        # 21c408 <__fork_generation>
    6019:	48 89 85 18 0f 00 00 	mov    QWORD PTR [rbp+0xf18],rax
    6020:	48 8d 05 e9 0f 00 00 	lea    rax,[rip+0xfe9]        # 7010 <__pthread_init_static_tls>
    6027:	48 89 85 68 0f 00 00 	mov    QWORD PTR [rbp+0xf68],rax
    602e:	48 8d 05 fb 10 00 00 	lea    rax,[rip+0x10fb]        # 7130 <__wait_lookup_done>
    6035:	48 89 85 70 0f 00 00 	mov    QWORD PTR [rbp+0xf70],rax
    603c:	e8 2f f8 ff ff       	call   5870 <__libc_pthread_init@plt>
    6041:	c7 05 59 63 21 00 01 	mov    DWORD PTR [rip+0x216359],0x1        # 21c3a4 <__is_smp>
    6048:	00 00 00 
    604b:	48 89 05 26 63 21 00 	mov    QWORD PTR [rip+0x216326],rax        # 21c378 <__libc_multiple_threads_ptr>
    6052:	48 81 c4 c0 00 00 00 	add    rsp,0xc0
    6059:	5b                   	pop    rbx
    605a:	5d                   	pop    rbp
    605b:	41 5c                	pop    r12
    605d:	c3                   	ret    
    605e:	66 90                	xchg   ax,ax
    6060:	48 8d 41 ff          	lea    rax,[rcx-0x1]
    6064:	48 89 05 05 63 21 00 	mov    QWORD PTR [rip+0x216305],rax        # 21c370 <__static_tls_align_m1>
    606b:	e9 36 fe ff ff       	jmp    5ea6 <__pthread_initialize_minimal+0x1a6>

0000000000006070 <__pthread_get_minstack>:
    6070:	48 8b 15 31 1f 21 00 	mov    rdx,QWORD PTR [rip+0x211f31]        # 217fa8 <_DYNAMIC+0x258>
    6077:	48 8b 05 02 63 21 00 	mov    rax,QWORD PTR [rip+0x216302]        # 21c380 <__static_tls_size>
    607e:	48 03 42 18          	add    rax,QWORD PTR [rdx+0x18]
    6082:	48 8b 57 10          	mov    rdx,QWORD PTR [rdi+0x10]
    6086:	48 8d 84 10 00 40 00 	lea    rax,[rax+rdx*1+0x4000]
    608d:	00 
    608e:	c3                   	ret    
    608f:	90                   	nop

0000000000006090 <__GI___nptl_create_event>:
    6090:	f3 c3                	repz ret 
    6092:	0f 1f 40 00          	nop    DWORD PTR [rax+0x0]
    6096:	66 2e 0f 1f 84 00 00 	nop    WORD PTR cs:[rax+rax*1+0x0]
    609d:	00 00 00 

00000000000060a0 <__GI___nptl_death_event>:
    60a0:	f3 c3                	repz ret 
    60a2:	66 2e 0f 1f 84 00 00 	nop    WORD PTR cs:[rax+rax*1+0x0]
    60a9:	00 00 00 
    60ac:	0f 1f 40 00          	nop    DWORD PTR [rax+0x0]

00000000000060b0 <__nptl_main>:
    60b0:	48 8d 35 69 ca 00 00 	lea    rsi,[rip+0xca69]        # 12b20 <banner>
    60b7:	bf 01 00 00 00       	mov    edi,0x1
    60bc:	48 83 ec 08          	sub    rsp,0x8
    60c0:	ba 1d 01 00 00       	mov    edx,0x11d
    60c5:	e8 c6 a3 00 00       	call   10490 <__write>
    60ca:	31 ff                	xor    edi,edi
    60cc:	e8 2f f5 ff ff       	call   5600 <_exit@plt>
    60d1:	66 2e 0f 1f 84 00 00 	nop    WORD PTR cs:[rax+rax*1+0x0]
    60d8:	00 00 00 
    60db:	0f 1f 44 00 00       	nop    DWORD PTR [rax+rax*1+0x0]

00000000000060e0 <create_thread>:
    60e0:	41 55                	push   r13
    60e2:	41 54                	push   r12
    60e4:	49 89 ca             	mov    r10,rcx
    60e7:	55                   	push   rbp
    60e8:	53                   	push   rbx
    60e9:	48 89 f5             	mov    rbp,rsi
    60ec:	48 89 fb             	mov    rbx,rdi
    60ef:	4d 89 c5             	mov    r13,r8
    60f2:	41 89 d4             	mov    r12d,edx
    60f5:	48 83 ec 08          	sub    rsp,0x8
    60f9:	48 85 f6             	test   rsi,rsi
    60fc:	74 15                	je     6113 <create_thread+0x33>
    60fe:	48 83 7e 28 00       	cmp    QWORD PTR [rsi+0x28],0x0
    6103:	0f 85 f7 00 00 00    	jne    6200 <create_thread+0x120>
    6109:	f6 46 08 02          	test   BYTE PTR [rsi+0x8],0x2
    610d:	0f 85 ed 00 00 00    	jne    6200 <create_thread+0x120>
    6113:	84 d2                	test   dl,dl
    6115:	88 93 13 06 00 00    	mov    BYTE PTR [rbx+0x613],dl
    611b:	0f 85 e6 00 00 00    	jne    6207 <create_thread+0x127>
    6121:	4c 8d 83 d0 02 00 00 	lea    r8,[rbx+0x2d0]
    6128:	48 83 ec 08          	sub    rsp,0x8
    612c:	48 8d 3d bd 14 00 00 	lea    rdi,[rip+0x14bd]        # 75f0 <start_thread>
    6133:	48 89 d9             	mov    rcx,rbx
    6136:	ba 00 0f 3d 00       	mov    edx,0x3d0f00
    613b:	31 c0                	xor    eax,eax
    613d:	41 50                	push   r8
    613f:	49 89 d9             	mov    r9,rbx
    6142:	4c 89 d6             	mov    rsi,r10
    6145:	e8 66 f4 ff ff       	call   55b0 <__clone@plt>
    614a:	83 f8 ff             	cmp    eax,0xffffffff
    614d:	5a                   	pop    rdx
    614e:	59                   	pop    rcx
    614f:	0f 84 23 01 00 00    	je     6278 <create_thread+0x198>
    6155:	48 85 ed             	test   rbp,rbp
    6158:	41 c6 45 00 01       	mov    BYTE PTR [r13+0x0],0x1
    615d:	74 58                	je     61b7 <create_thread+0xd7>
    615f:	48 8b 55 28          	mov    rdx,QWORD PTR [rbp+0x28]
    6163:	48 85 d2             	test   rdx,rdx
    6166:	0f 84 d4 00 00 00    	je     6240 <create_thread+0x160>
    616c:	45 84 e4             	test   r12b,r12b
    616f:	0f 84 18 01 00 00    	je     628d <create_thread+0x1ad>
    6175:	48 8b 75 30          	mov    rsi,QWORD PTR [rbp+0x30]
    6179:	48 63 bb d0 02 00 00 	movsxd rdi,DWORD PTR [rbx+0x2d0]
    6180:	b8 cb 00 00 00       	mov    eax,0xcb
    6185:	0f 05                	syscall 
    6187:	3d 00 f0 ff ff       	cmp    eax,0xfffff000
    618c:	77 3a                	ja     61c8 <create_thread+0xe8>
    618e:	f6 45 08 02          	test   BYTE PTR [rbp+0x8],0x2
    6192:	74 23                	je     61b7 <create_thread+0xd7>
    6194:	48 63 b3 3c 06 00 00 	movsxd rsi,DWORD PTR [rbx+0x63c]
    619b:	48 63 bb d0 02 00 00 	movsxd rdi,DWORD PTR [rbx+0x2d0]
    61a2:	48 8d 93 38 06 00 00 	lea    rdx,[rbx+0x638]
    61a9:	b8 90 00 00 00       	mov    eax,0x90
    61ae:	0f 05                	syscall 
    61b0:	3d 00 f0 ff ff       	cmp    eax,0xfffff000
    61b5:	77 11                	ja     61c8 <create_thread+0xe8>
    61b7:	48 83 c4 08          	add    rsp,0x8
    61bb:	31 c0                	xor    eax,eax
    61bd:	5b                   	pop    rbx
    61be:	5d                   	pop    rbp
    61bf:	41 5c                	pop    r12
    61c1:	41 5d                	pop    r13
    61c3:	c3                   	ret    
    61c4:	0f 1f 40 00          	nop    DWORD PTR [rax+0x0]
    61c8:	41 89 c0             	mov    r8d,eax
    61cb:	48 63 b3 d0 02 00 00 	movsxd rsi,DWORD PTR [rbx+0x2d0]
    61d2:	64 8b 3c 25 d4 02 00 	mov    edi,DWORD PTR fs:0x2d4
    61d9:	00 
    61da:	ba 20 00 00 00       	mov    edx,0x20
    61df:	48 63 ff             	movsxd rdi,edi
    61e2:	b8 ea 00 00 00       	mov    eax,0xea
    61e7:	0f 05                	syscall 
    61e9:	48 83 c4 08          	add    rsp,0x8
    61ed:	44 89 c0             	mov    eax,r8d
    61f0:	5b                   	pop    rbx
    61f1:	f7 d8                	neg    eax
    61f3:	5d                   	pop    rbp
    61f4:	41 5c                	pop    r12
    61f6:	41 5d                	pop    r13
    61f8:	c3                   	ret    
    61f9:	0f 1f 80 00 00 00 00 	nop    DWORD PTR [rax+0x0]
    6200:	c6 83 13 06 00 00 01 	mov    BYTE PTR [rbx+0x613],0x1
    6207:	be 01 00 00 00       	mov    esi,0x1
    620c:	31 c0                	xor    eax,eax
    620e:	f0 0f b1 b3 18 06 00 	lock cmpxchg DWORD PTR [rbx+0x618],esi
    6215:	00 
    6216:	74 1a                	je     6232 <create_thread+0x152>
    6218:	48 8d bb 18 06 00 00 	lea    rdi,[rbx+0x618]
    621f:	48 81 ec 80 00 00 00 	sub    rsp,0x80
    6226:	e8 f5 9f 00 00       	call   10220 <__lll_lock_wait_private>
    622b:	48 81 c4 80 00 00 00 	add    rsp,0x80
    6232:	41 bc 01 00 00 00    	mov    r12d,0x1
    6238:	e9 e4 fe ff ff       	jmp    6121 <create_thread+0x41>
    623d:	0f 1f 00             	nop    DWORD PTR [rax]
    6240:	f6 45 08 02          	test   BYTE PTR [rbp+0x8],0x2
    6244:	0f 84 6d ff ff ff    	je     61b7 <create_thread+0xd7>
    624a:	45 84 e4             	test   r12b,r12b
    624d:	0f 85 41 ff ff ff    	jne    6194 <create_thread+0xb4>
    6253:	48 8d 0d 46 ca 00 00 	lea    rcx,[rip+0xca46]        # 12ca0 <__PRETTY_FUNCTION__.12029>
    625a:	48 8d 35 df c9 00 00 	lea    rsi,[rip+0xc9df]        # 12c40 <banner+0x120>
    6261:	48 8d 3d ed ca 00 00 	lea    rdi,[rip+0xcaed]        # 12d55 <__PRETTY_FUNCTION__.11764+0xa5>
    6268:	ba 8f 00 00 00       	mov    edx,0x8f
    626d:	e8 5e f4 ff ff       	call   56d0 <__assert_fail@plt>
    6272:	66 0f 1f 44 00 00    	nop    WORD PTR [rax+rax*1+0x0]
    6278:	48 8b 05 09 1d 21 00 	mov    rax,QWORD PTR [rip+0x211d09]        # 217f88 <_DYNAMIC+0x238>
    627f:	64 8b 00             	mov    eax,DWORD PTR fs:[rax]
    6282:	48 83 c4 08          	add    rsp,0x8
    6286:	5b                   	pop    rbx
    6287:	5d                   	pop    rbp
    6288:	41 5c                	pop    r12
    628a:	41 5d                	pop    r13
    628c:	c3                   	ret    
    628d:	48 8d 0d 0c ca 00 00 	lea    rcx,[rip+0xca0c]        # 12ca0 <__PRETTY_FUNCTION__.12029>
    6294:	48 8d 35 a5 c9 00 00 	lea    rsi,[rip+0xc9a5]        # 12c40 <banner+0x120>
    629b:	48 8d 3d b3 ca 00 00 	lea    rdi,[rip+0xcab3]        # 12d55 <__PRETTY_FUNCTION__.11764+0xa5>
    62a2:	ba 78 00 00 00       	mov    edx,0x78
    62a7:	e8 24 f4 ff ff       	call   56d0 <__assert_fail@plt>
    62ac:	0f 1f 40 00          	nop    DWORD PTR [rax+0x0]

00000000000062b0 <setxid_mark_thread.isra.1>:
    62b0:	55                   	push   rbp
    62b1:	53                   	push   rbx
    62b2:	49 89 f8             	mov    r8,rdi
    62b5:	48 83 ec 08          	sub    rsp,0x8
    62b9:	83 bf 1c 06 00 00 ff 	cmp    DWORD PTR [rdi+0x61c],0xffffffff
    62c0:	74 7e                	je     6340 <setxid_mark_thread.isra.1+0x90>
    62c2:	41 c7 80 1c 06 00 00 	mov    DWORD PTR [r8+0x61c],0x0
    62c9:	00 00 00 00 
    62cd:	eb 11                	jmp    62e0 <setxid_mark_thread.isra.1+0x30>
    62cf:	90                   	nop
    62d0:	89 c2                	mov    edx,eax
    62d2:	83 ca 40             	or     edx,0x40
    62d5:	f0 41 0f b1 90 08 03 	lock cmpxchg DWORD PTR [r8+0x308],edx
    62dc:	00 00 
    62de:	74 3d                	je     631d <setxid_mark_thread.isra.1+0x6d>
    62e0:	41 8b 80 08 03 00 00 	mov    eax,DWORD PTR [r8+0x308]
    62e7:	a8 10                	test   al,0x10
    62e9:	74 e5                	je     62d0 <setxid_mark_thread.isra.1+0x20>
    62eb:	a8 40                	test   al,0x40
    62ed:	75 2e                	jne    631d <setxid_mark_thread.isra.1+0x6d>
    62ef:	41 c7 80 1c 06 00 00 	mov    DWORD PTR [r8+0x61c],0x1
    62f6:	01 00 00 00 
    62fa:	45 31 d2             	xor    r10d,r10d
    62fd:	ba 01 00 00 00       	mov    edx,0x1
    6302:	be 81 00 00 00       	mov    esi,0x81
    6307:	49 8d b8 1c 06 00 00 	lea    rdi,[r8+0x61c]
    630e:	b8 ca 00 00 00       	mov    eax,0xca
    6313:	0f 05                	syscall 
    6315:	48 3d 00 f0 ff ff    	cmp    rax,0xfffffffffffff000
    631b:	77 07                	ja     6324 <setxid_mark_thread.isra.1+0x74>
    631d:	48 83 c4 08          	add    rsp,0x8
    6321:	5b                   	pop    rbx
    6322:	5d                   	pop    rbp
    6323:	c3                   	ret    
    6324:	83 f8 ea             	cmp    eax,0xffffffea
    6327:	74 f4                	je     631d <setxid_mark_thread.isra.1+0x6d>
    6329:	83 f8 f2             	cmp    eax,0xfffffff2
    632c:	74 ef                	je     631d <setxid_mark_thread.isra.1+0x6d>
    632e:	48 8d 3d ab c7 00 00 	lea    rdi,[rip+0xc7ab]        # 12ae0 <_fini+0xc>
    6335:	e8 f6 f2 ff ff       	call   5630 <__libc_fatal@plt>
    633a:	66 0f 1f 44 00 00    	nop    WORD PTR [rax+rax*1+0x0]
    6340:	4c 8d 8f 1c 06 00 00 	lea    r9,[rdi+0x61c]
    6347:	ba fe ff ff ff       	mov    edx,0xfffffffe
    634c:	b8 ff ff ff ff       	mov    eax,0xffffffff
    6351:	f0 41 0f b1 11       	lock cmpxchg DWORD PTR [r9],edx
    6356:	0f 85 66 ff ff ff    	jne    62c2 <setxid_mark_thread.isra.1+0x12>
    635c:	bd ca 00 00 00       	mov    ebp,0xca
    6361:	bb 01 00 00 00       	mov    ebx,0x1
    6366:	45 31 d2             	xor    r10d,r10d
    6369:	ba fe ff ff ff       	mov    edx,0xfffffffe
    636e:	be 80 00 00 00       	mov    esi,0x80
    6373:	4c 89 cf             	mov    rdi,r9
    6376:	89 e8                	mov    eax,ebp
    6378:	0f 05                	syscall 
    637a:	48 3d 00 f0 ff ff    	cmp    rax,0xfffffffffffff000
    6380:	77 0f                	ja     6391 <setxid_mark_thread.isra.1+0xe1>
    6382:	41 83 b8 1c 06 00 00 	cmp    DWORD PTR [r8+0x61c],0xfffffffe
    6389:	fe 
    638a:	74 da                	je     6366 <setxid_mark_thread.isra.1+0xb6>
    638c:	e9 31 ff ff ff       	jmp    62c2 <setxid_mark_thread.isra.1+0x12>
    6391:	8d 48 0b             	lea    ecx,[rax+0xb]
    6394:	83 f9 0b             	cmp    ecx,0xb
    6397:	77 95                	ja     632e <setxid_mark_thread.isra.1+0x7e>
    6399:	48 89 d8             	mov    rax,rbx
    639c:	48 d3 e0             	shl    rax,cl
    639f:	a9 81 08 00 00       	test   eax,0x881
    63a4:	75 dc                	jne    6382 <setxid_mark_thread.isra.1+0xd2>
    63a6:	eb 86                	jmp    632e <setxid_mark_thread.isra.1+0x7e>
    63a8:	0f 1f 84 00 00 00 00 	nop    DWORD PTR [rax+rax*1+0x0]
    63af:	00 

00000000000063b0 <__nptl_deallocate_tsd.part.4>:
    63b0:	41 57                	push   r15
    63b2:	41 56                	push   r14
    63b4:	41 be 04 00 00 00    	mov    r14d,0x4
    63ba:	41 55                	push   r13
    63bc:	41 54                	push   r12
    63be:	55                   	push   rbp
    63bf:	53                   	push   rbx
    63c0:	48 83 ec 08          	sub    rsp,0x8
    63c4:	64 c6 04 25 10 06 00 	mov    BYTE PTR fs:0x610,0x0
    63cb:	00 00 
    63cd:	4c 8d 2d f4 1e 21 00 	lea    r13,[rip+0x211ef4]        # 2182c8 <__GI___pthread_keys+0x8>
    63d4:	45 31 e4             	xor    r12d,r12d
    63d7:	66 0f 1f 84 00 00 00 	nop    WORD PTR [rax+rax*1+0x0]
    63de:	00 00 
    63e0:	64 4a 8b 04 e5 10 05 	mov    rax,QWORD PTR fs:[r12*8+0x510]
    63e7:	00 00 
    63e9:	48 85 c0             	test   rax,rax
    63ec:	74 52                	je     6440 <__nptl_deallocate_tsd.part.4+0x90>
    63ee:	48 8d 58 08          	lea    rbx,[rax+0x8]
    63f2:	4c 8d b8 08 02 00 00 	lea    r15,[rax+0x208]
    63f9:	4c 89 ed             	mov    rbp,r13
    63fc:	eb 0f                	jmp    640d <__nptl_deallocate_tsd.part.4+0x5d>
    63fe:	66 90                	xchg   ax,ax
    6400:	48 83 c3 10          	add    rbx,0x10
    6404:	48 83 c5 10          	add    rbp,0x10
    6408:	4c 39 fb             	cmp    rbx,r15
    640b:	74 33                	je     6440 <__nptl_deallocate_tsd.part.4+0x90>
    640d:	48 8b 3b             	mov    rdi,QWORD PTR [rbx]
    6410:	48 85 ff             	test   rdi,rdi
    6413:	74 eb                	je     6400 <__nptl_deallocate_tsd.part.4+0x50>
    6415:	48 8b 45 f8          	mov    rax,QWORD PTR [rbp-0x8]
    6419:	48 39 43 f8          	cmp    QWORD PTR [rbx-0x8],rax
    641d:	48 c7 03 00 00 00 00 	mov    QWORD PTR [rbx],0x0
    6424:	75 da                	jne    6400 <__nptl_deallocate_tsd.part.4+0x50>
    6426:	48 8b 55 00          	mov    rdx,QWORD PTR [rbp+0x0]
    642a:	48 85 d2             	test   rdx,rdx
    642d:	74 d1                	je     6400 <__nptl_deallocate_tsd.part.4+0x50>
    642f:	48 83 c3 10          	add    rbx,0x10
    6433:	48 83 c5 10          	add    rbp,0x10
    6437:	ff d2                	call   rdx
    6439:	4c 39 fb             	cmp    rbx,r15
    643c:	75 cf                	jne    640d <__nptl_deallocate_tsd.part.4+0x5d>
    643e:	66 90                	xchg   ax,ax
    6440:	49 83 c4 01          	add    r12,0x1
    6444:	49 81 c5 00 02 00 00 	add    r13,0x200
    644b:	49 83 fc 20          	cmp    r12,0x20
    644f:	75 8f                	jne    63e0 <__nptl_deallocate_tsd.part.4+0x30>
    6451:	31 c0                	xor    eax,eax
    6453:	64 8a 04 25 10 06 00 	mov    al,BYTE PTR fs:0x610
    645a:	00 
    645b:	84 c0                	test   al,al
    645d:	74 45                	je     64a4 <__nptl_deallocate_tsd.part.4+0xf4>
    645f:	49 83 ee 01          	sub    r14,0x1
    6463:	0f 85 5b ff ff ff    	jne    63c4 <__nptl_deallocate_tsd.part.4+0x14>
    6469:	64 48 8b 04 25 10 00 	mov    rax,QWORD PTR fs:0x10
    6470:	00 00 
    6472:	48 8d b8 18 03 00 00 	lea    rdi,[rax+0x318]
    6479:	48 c7 80 10 03 00 00 	mov    QWORD PTR [rax+0x310],0x0
    6480:	00 00 00 00 
    6484:	48 c7 80 08 05 00 00 	mov    QWORD PTR [rax+0x508],0x0
    648b:	00 00 00 00 
    648f:	48 83 e7 f8          	and    rdi,0xfffffffffffffff8
    6493:	29 f8                	sub    eax,edi
    6495:	8d 88 10 05 00 00    	lea    ecx,[rax+0x510]
    649b:	4c 89 f0             	mov    rax,r14
    649e:	c1 e9 03             	shr    ecx,0x3
    64a1:	f3 48 ab             	rep stos QWORD PTR es:[rdi],rax
    64a4:	bb 01 00 00 00       	mov    ebx,0x1
    64a9:	0f 1f 80 00 00 00 00 	nop    DWORD PTR [rax+0x0]
    64b0:	64 48 8b 3c dd 10 05 	mov    rdi,QWORD PTR fs:[rbx*8+0x510]
    64b7:	00 00 
    64b9:	48 85 ff             	test   rdi,rdi
    64bc:	74 12                	je     64d0 <__nptl_deallocate_tsd.part.4+0x120>
    64be:	e8 fd f0 ff ff       	call   55c0 <free@plt>
    64c3:	64 48 c7 04 dd 10 05 	mov    QWORD PTR fs:[rbx*8+0x510],0x0
    64ca:	00 00 00 00 00 00 
    64d0:	48 83 c3 01          	add    rbx,0x1
    64d4:	48 83 fb 20          	cmp    rbx,0x20
    64d8:	75 d6                	jne    64b0 <__nptl_deallocate_tsd.part.4+0x100>
    64da:	64 c6 04 25 10 06 00 	mov    BYTE PTR fs:0x610,0x0
    64e1:	00 00 
    64e3:	48 83 c4 08          	add    rsp,0x8
    64e7:	5b                   	pop    rbx
    64e8:	5d                   	pop    rbp
    64e9:	41 5c                	pop    r12
    64eb:	41 5d                	pop    r13
    64ed:	41 5e                	pop    r14
    64ef:	41 5f                	pop    r15
    64f1:	c3                   	ret    
    64f2:	0f 1f 40 00          	nop    DWORD PTR [rax+0x0]
    64f6:	66 2e 0f 1f 84 00 00 	nop    WORD PTR cs:[rax+rax*1+0x0]
    64fd:	00 00 00 

0000000000006500 <__free_stacks>:
    6500:	41 55                	push   r13
    6502:	41 54                	push   r12
    6504:	4c 8d 25 65 1d 21 00 	lea    r12,[rip+0x211d65]        # 218270 <stack_cache>
    650b:	55                   	push   rbp
    650c:	53                   	push   rbx
    650d:	49 89 fd             	mov    r13,rdi
    6510:	48 83 ec 08          	sub    rsp,0x8
    6514:	48 8b 1d 5d 1d 21 00 	mov    rbx,QWORD PTR [rip+0x211d5d]        # 218278 <stack_cache+0x8>
    651b:	4c 39 e3             	cmp    rbx,r12
    651e:	48 8b 6b 08          	mov    rbp,QWORD PTR [rbx+0x8]
    6522:	75 1b                	jne    653f <__free_stacks+0x3f>
    6524:	e9 7d 00 00 00       	jmp    65a6 <__free_stacks+0xa6>
    6529:	0f 1f 80 00 00 00 00 	nop    DWORD PTR [rax+0x0]
    6530:	4c 39 e5             	cmp    rbp,r12
    6533:	48 8b 45 08          	mov    rax,QWORD PTR [rbp+0x8]
    6537:	48 89 eb             	mov    rbx,rbp
    653a:	74 6a                	je     65a6 <__free_stacks+0xa6>
    653c:	48 89 c5             	mov    rbp,rax
    653f:	8b 43 10             	mov    eax,DWORD PTR [rbx+0x10]
    6542:	85 c0                	test   eax,eax
    6544:	7f ea                	jg     6530 <__free_stacks+0x30>
    6546:	48 89 1d 93 5d 21 00 	mov    QWORD PTR [rip+0x215d93],rbx        # 21c2e0 <in_flight_stack>
    654d:	48 8b 53 08          	mov    rdx,QWORD PTR [rbx+0x8]
    6551:	48 8b 03             	mov    rax,QWORD PTR [rbx]
    6554:	48 89 50 08          	mov    QWORD PTR [rax+0x8],rdx
    6558:	48 8b 53 08          	mov    rdx,QWORD PTR [rbx+0x8]
    655c:	48 89 02             	mov    QWORD PTR [rdx],rax
    655f:	48 8d bb 40 fd ff ff 	lea    rdi,[rbx-0x2c0]
    6566:	31 f6                	xor    esi,esi
    6568:	48 8b 83 d8 03 00 00 	mov    rax,QWORD PTR [rbx+0x3d8]
    656f:	48 c7 05 66 5d 21 00 	mov    QWORD PTR [rip+0x215d66],0x0        # 21c2e0 <in_flight_stack>
    6576:	00 00 00 00 
    657a:	48 29 05 6f 5d 21 00 	sub    QWORD PTR [rip+0x215d6f],rax        # 21c2f0 <stack_cache_actsize>
    6581:	e8 9a f1 ff ff       	call   5720 <_dl_deallocate_tls@plt>
    6586:	48 8b b3 d8 03 00 00 	mov    rsi,QWORD PTR [rbx+0x3d8]
    658d:	48 8b bb d0 03 00 00 	mov    rdi,QWORD PTR [rbx+0x3d0]
    6594:	e8 37 f3 ff ff       	call   58d0 <munmap@plt>
    6599:	85 c0                	test   eax,eax
    659b:	75 14                	jne    65b1 <__free_stacks+0xb1>
    659d:	4c 39 2d 4c 5d 21 00 	cmp    QWORD PTR [rip+0x215d4c],r13        # 21c2f0 <stack_cache_actsize>
    65a4:	77 8a                	ja     6530 <__free_stacks+0x30>
    65a6:	48 83 c4 08          	add    rsp,0x8
    65aa:	5b                   	pop    rbx
    65ab:	5d                   	pop    rbp
    65ac:	41 5c                	pop    r12
    65ae:	41 5d                	pop    r13
    65b0:	c3                   	ret    
    65b1:	e8 2a f0 ff ff       	call   55e0 <abort@plt>
    65b6:	66 2e 0f 1f 84 00 00 	nop    WORD PTR cs:[rax+rax*1+0x0]
    65bd:	00 00 00 

00000000000065c0 <__deallocate_stack>:
    65c0:	41 54                	push   r12
    65c2:	48 89 fa             	mov    rdx,rdi
    65c5:	55                   	push   rbp
    65c6:	be 01 00 00 00       	mov    esi,0x1
    65cb:	53                   	push   rbx
    65cc:	31 c0                	xor    eax,eax
    65ce:	f0 0f b1 35 12 5d 21 	lock cmpxchg DWORD PTR [rip+0x215d12],esi        # 21c2e8 <stack_cache_lock>
    65d5:	00 
    65d6:	74 1a                	je     65f2 <__deallocate_stack+0x32>
    65d8:	48 8d 3d 09 5d 21 00 	lea    rdi,[rip+0x215d09]        # 21c2e8 <stack_cache_lock>
    65df:	48 81 ec 80 00 00 00 	sub    rsp,0x80
    65e6:	e8 35 9c 00 00       	call   10220 <__lll_lock_wait_private>
    65eb:	48 81 c4 80 00 00 00 	add    rsp,0x80
    65f2:	48 8d 82 c0 02 00 00 	lea    rax,[rdx+0x2c0]
    65f9:	48 89 05 e0 5c 21 00 	mov    QWORD PTR [rip+0x215ce0],rax        # 21c2e0 <in_flight_stack>
    6600:	48 8b b2 c8 02 00 00 	mov    rsi,QWORD PTR [rdx+0x2c8]
    6607:	48 8b 8a c0 02 00 00 	mov    rcx,QWORD PTR [rdx+0x2c0]
    660e:	48 89 71 08          	mov    QWORD PTR [rcx+0x8],rsi
    6612:	48 8b b2 c8 02 00 00 	mov    rsi,QWORD PTR [rdx+0x2c8]
    6619:	48 89 0e             	mov    QWORD PTR [rsi],rcx
    661c:	80 ba 12 06 00 00 00 	cmp    BYTE PTR [rdx+0x612],0x0
    6623:	48 c7 05 b2 5c 21 00 	mov    QWORD PTR [rip+0x215cb2],0x0        # 21c2e0 <in_flight_stack>
    662a:	00 00 00 00 
    662e:	0f 85 8c 00 00 00    	jne    66c0 <__deallocate_stack+0x100>
    6634:	48 89 c1             	mov    rcx,rax
    6637:	48 83 c9 01          	or     rcx,0x1
    663b:	48 89 0d 9e 5c 21 00 	mov    QWORD PTR [rip+0x215c9e],rcx        # 21c2e0 <in_flight_stack>
    6642:	48 8b 0d 27 1c 21 00 	mov    rcx,QWORD PTR [rip+0x211c27]        # 218270 <stack_cache>
    6649:	4c 8d 25 20 1c 21 00 	lea    r12,[rip+0x211c20]        # 218270 <stack_cache>
    6650:	4c 89 a2 c8 02 00 00 	mov    QWORD PTR [rdx+0x2c8],r12
    6657:	48 89 8a c0 02 00 00 	mov    QWORD PTR [rdx+0x2c0],rcx
    665e:	48 89 41 08          	mov    QWORD PTR [rcx+0x8],rax
    6662:	48 89 05 07 1c 21 00 	mov    QWORD PTR [rip+0x211c07],rax        # 218270 <stack_cache>
    6669:	48 8b 05 80 5c 21 00 	mov    rax,QWORD PTR [rip+0x215c80]        # 21c2f0 <stack_cache_actsize>
    6670:	48 03 82 98 06 00 00 	add    rax,QWORD PTR [rdx+0x698]
    6677:	48 c7 05 5e 5c 21 00 	mov    QWORD PTR [rip+0x215c5e],0x0        # 21c2e0 <in_flight_stack>
    667e:	00 00 00 00 
    6682:	48 3d 00 00 80 02    	cmp    rax,0x2800000
    6688:	48 89 05 61 5c 21 00 	mov    QWORD PTR [rip+0x215c61],rax        # 21c2f0 <stack_cache_actsize>
    668f:	77 3f                	ja     66d0 <__deallocate_stack+0x110>
    6691:	f0 ff 0d 50 5c 21 00 	lock dec DWORD PTR [rip+0x215c50]        # 21c2e8 <stack_cache_lock>
    6698:	74 1a                	je     66b4 <__deallocate_stack+0xf4>
    669a:	48 8d 3d 47 5c 21 00 	lea    rdi,[rip+0x215c47]        # 21c2e8 <stack_cache_lock>
    66a1:	48 81 ec 80 00 00 00 	sub    rsp,0x80
    66a8:	e8 23 9c 00 00       	call   102d0 <__lll_unlock_wake_private>
    66ad:	48 81 c4 80 00 00 00 	add    rsp,0x80
    66b4:	5b                   	pop    rbx
    66b5:	5d                   	pop    rbp
    66b6:	41 5c                	pop    r12
    66b8:	c3                   	ret    
    66b9:	0f 1f 80 00 00 00 00 	nop    DWORD PTR [rax+0x0]
    66c0:	31 f6                	xor    esi,esi
    66c2:	48 89 d7             	mov    rdi,rdx
    66c5:	e8 56 f0 ff ff       	call   5720 <_dl_deallocate_tls@plt>
    66ca:	eb c5                	jmp    6691 <__deallocate_stack+0xd1>
    66cc:	0f 1f 40 00          	nop    DWORD PTR [rax+0x0]
    66d0:	48 8b 1d a1 1b 21 00 	mov    rbx,QWORD PTR [rip+0x211ba1]        # 218278 <stack_cache+0x8>
    66d7:	4c 39 e3             	cmp    rbx,r12
    66da:	48 8b 6b 08          	mov    rbp,QWORD PTR [rbx+0x8]
    66de:	75 17                	jne    66f7 <__deallocate_stack+0x137>
    66e0:	eb af                	jmp    6691 <__deallocate_stack+0xd1>
    66e2:	66 0f 1f 44 00 00    	nop    WORD PTR [rax+rax*1+0x0]
    66e8:	4c 39 e5             	cmp    rbp,r12
    66eb:	48 8b 45 08          	mov    rax,QWORD PTR [rbp+0x8]
    66ef:	48 89 eb             	mov    rbx,rbp
    66f2:	74 9d                	je     6691 <__deallocate_stack+0xd1>
    66f4:	48 89 c5             	mov    rbp,rax
    66f7:	8b 43 10             	mov    eax,DWORD PTR [rbx+0x10]
    66fa:	85 c0                	test   eax,eax
    66fc:	7f ea                	jg     66e8 <__deallocate_stack+0x128>
    66fe:	48 89 1d db 5b 21 00 	mov    QWORD PTR [rip+0x215bdb],rbx        # 21c2e0 <in_flight_stack>
    6705:	48 8b 53 08          	mov    rdx,QWORD PTR [rbx+0x8]
    6709:	48 8b 03             	mov    rax,QWORD PTR [rbx]
    670c:	48 89 50 08          	mov    QWORD PTR [rax+0x8],rdx
    6710:	48 8b 53 08          	mov    rdx,QWORD PTR [rbx+0x8]
    6714:	48 89 02             	mov    QWORD PTR [rdx],rax
    6717:	48 8d bb 40 fd ff ff 	lea    rdi,[rbx-0x2c0]
    671e:	31 f6                	xor    esi,esi
    6720:	48 8b 83 d8 03 00 00 	mov    rax,QWORD PTR [rbx+0x3d8]
    6727:	48 c7 05 ae 5b 21 00 	mov    QWORD PTR [rip+0x215bae],0x0        # 21c2e0 <in_flight_stack>
    672e:	00 00 00 00 
    6732:	48 29 05 b7 5b 21 00 	sub    QWORD PTR [rip+0x215bb7],rax        # 21c2f0 <stack_cache_actsize>
    6739:	e8 e2 ef ff ff       	call   5720 <_dl_deallocate_tls@plt>
    673e:	48 8b b3 d8 03 00 00 	mov    rsi,QWORD PTR [rbx+0x3d8]
    6745:	48 8b bb d0 03 00 00 	mov    rdi,QWORD PTR [rbx+0x3d0]
    674c:	e8 7f f1 ff ff       	call   58d0 <munmap@plt>
    6751:	85 c0                	test   eax,eax
    6753:	75 12                	jne    6767 <__deallocate_stack+0x1a7>
    6755:	48 81 3d 90 5b 21 00 	cmp    QWORD PTR [rip+0x215b90],0x2800000        # 21c2f0 <stack_cache_actsize>
    675c:	00 00 80 02 
    6760:	77 86                	ja     66e8 <__deallocate_stack+0x128>
    6762:	e9 2a ff ff ff       	jmp    6691 <__deallocate_stack+0xd1>
    6767:	e8 74 ee ff ff       	call   55e0 <abort@plt>
    676c:	0f 1f 40 00          	nop    DWORD PTR [rax+0x0]

0000000000006770 <__make_stacks_executable>:
    6770:	41 54                	push   r12
    6772:	55                   	push   rbp
    6773:	53                   	push   rbx
    6774:	e8 e7 f0 ff ff       	call   5860 <_dl_make_stack_executable@plt>
    6779:	85 c0                	test   eax,eax
    677b:	89 c5                	mov    ebp,eax
    677d:	0f 85 a6 00 00 00    	jne    6829 <__make_stacks_executable+0xb9>
    6783:	be 01 00 00 00       	mov    esi,0x1
    6788:	f0 0f b1 35 58 5b 21 	lock cmpxchg DWORD PTR [rip+0x215b58],esi        # 21c2e8 <stack_cache_lock>
    678f:	00 
    6790:	74 1a                	je     67ac <__make_stacks_executable+0x3c>
    6792:	48 8d 3d 4f 5b 21 00 	lea    rdi,[rip+0x215b4f]        # 21c2e8 <stack_cache_lock>
    6799:	48 81 ec 80 00 00 00 	sub    rsp,0x80
    67a0:	e8 7b 9a 00 00       	call   10220 <__lll_lock_wait_private>
    67a5:	48 81 c4 80 00 00 00 	add    rsp,0x80
    67ac:	48 8b 1d ad 1a 21 00 	mov    rbx,QWORD PTR [rip+0x211aad]        # 218260 <stack_used>
    67b3:	4c 8d 25 a6 1a 21 00 	lea    r12,[rip+0x211aa6]        # 218260 <stack_used>
    67ba:	4c 39 e3             	cmp    rbx,r12
    67bd:	75 11                	jne    67d0 <__make_stacks_executable+0x60>
    67bf:	eb 6f                	jmp    6830 <__make_stacks_executable+0xc0>
    67c1:	0f 1f 80 00 00 00 00 	nop    DWORD PTR [rax+0x0]
    67c8:	48 8b 1b             	mov    rbx,QWORD PTR [rbx]
    67cb:	4c 39 e3             	cmp    rbx,r12
    67ce:	74 60                	je     6830 <__make_stacks_executable+0xc0>
    67d0:	48 8b bb e0 03 00 00 	mov    rdi,QWORD PTR [rbx+0x3e0]
    67d7:	48 8b b3 d8 03 00 00 	mov    rsi,QWORD PTR [rbx+0x3d8]
    67de:	ba 07 00 00 00       	mov    edx,0x7
    67e3:	48 29 fe             	sub    rsi,rdi
    67e6:	48 03 bb d0 03 00 00 	add    rdi,QWORD PTR [rbx+0x3d0]
    67ed:	e8 0e f1 ff ff       	call   5900 <mprotect@plt>
    67f2:	85 c0                	test   eax,eax
    67f4:	74 d2                	je     67c8 <__make_stacks_executable+0x58>
    67f6:	48 8b 05 8b 17 21 00 	mov    rax,QWORD PTR [rip+0x21178b]        # 217f88 <_DYNAMIC+0x238>
    67fd:	64 8b 00             	mov    eax,DWORD PTR fs:[rax]
    6800:	85 c0                	test   eax,eax
    6802:	74 c4                	je     67c8 <__make_stacks_executable+0x58>
    6804:	89 c5                	mov    ebp,eax
    6806:	f0 ff 0d db 5a 21 00 	lock dec DWORD PTR [rip+0x215adb]        # 21c2e8 <stack_cache_lock>
    680d:	74 1a                	je     6829 <__make_stacks_executable+0xb9>
    680f:	48 8d 3d d2 5a 21 00 	lea    rdi,[rip+0x215ad2]        # 21c2e8 <stack_cache_lock>
    6816:	48 81 ec 80 00 00 00 	sub    rsp,0x80
    681d:	e8 ae 9a 00 00       	call   102d0 <__lll_unlock_wake_private>
    6822:	48 81 c4 80 00 00 00 	add    rsp,0x80
    6829:	89 e8                	mov    eax,ebp
    682b:	5b                   	pop    rbx
    682c:	5d                   	pop    rbp
    682d:	41 5c                	pop    r12
    682f:	c3                   	ret    
    6830:	48 8b 1d 39 1a 21 00 	mov    rbx,QWORD PTR [rip+0x211a39]        # 218270 <stack_cache>
    6837:	4c 8d 25 32 1a 21 00 	lea    r12,[rip+0x211a32]        # 218270 <stack_cache>
    683e:	4c 39 e3             	cmp    rbx,r12
    6841:	75 0d                	jne    6850 <__make_stacks_executable+0xe0>
    6843:	eb c1                	jmp    6806 <__make_stacks_executable+0x96>
    6845:	0f 1f 00             	nop    DWORD PTR [rax]
    6848:	48 8b 1b             	mov    rbx,QWORD PTR [rbx]
    684b:	4c 39 e3             	cmp    rbx,r12
    684e:	74 b6                	je     6806 <__make_stacks_executable+0x96>
    6850:	48 8b bb e0 03 00 00 	mov    rdi,QWORD PTR [rbx+0x3e0]
    6857:	48 8b b3 d8 03 00 00 	mov    rsi,QWORD PTR [rbx+0x3d8]
    685e:	ba 07 00 00 00       	mov    edx,0x7
    6863:	48 29 fe             	sub    rsi,rdi
    6866:	48 03 bb d0 03 00 00 	add    rdi,QWORD PTR [rbx+0x3d0]
    686d:	e8 8e f0 ff ff       	call   5900 <mprotect@plt>
    6872:	85 c0                	test   eax,eax
    6874:	74 d2                	je     6848 <__make_stacks_executable+0xd8>
    6876:	48 8b 05 0b 17 21 00 	mov    rax,QWORD PTR [rip+0x21170b]        # 217f88 <_DYNAMIC+0x238>
    687d:	64 8b 00             	mov    eax,DWORD PTR fs:[rax]
    6880:	85 c0                	test   eax,eax
    6882:	74 c4                	je     6848 <__make_stacks_executable+0xd8>
    6884:	e9 7b ff ff ff       	jmp    6804 <__make_stacks_executable+0x94>
    6889:	0f 1f 80 00 00 00 00 	nop    DWORD PTR [rax+0x0]

0000000000006890 <__reclaim_stacks>:
    6890:	48 8b 05 49 5a 21 00 	mov    rax,QWORD PTR [rip+0x215a49]        # 21c2e0 <in_flight_stack>
    6897:	64 4c 8b 04 25 10 00 	mov    r8,QWORD PTR fs:0x10
    689e:	00 00 
    68a0:	48 85 c0             	test   rax,rax
    68a3:	74 5e                	je     6903 <__reclaim_stacks+0x73>
    68a5:	48 89 c2             	mov    rdx,rax
    68a8:	48 83 e2 fe          	and    rdx,0xfffffffffffffffe
    68ac:	a8 01                	test   al,0x1
    68ae:	74 41                	je     68f1 <__reclaim_stacks+0x61>
    68b0:	48 8b 35 a9 19 21 00 	mov    rsi,QWORD PTR [rip+0x2119a9]        # 218260 <stack_used>
    68b7:	4c 8d 0d a2 19 21 00 	lea    r9,[rip+0x2119a2]        # 218260 <stack_used>
    68be:	4d 89 ca             	mov    r10,r9
    68c1:	48 8b 46 08          	mov    rax,QWORD PTR [rsi+0x8]
    68c5:	4c 39 c8             	cmp    rax,r9
    68c8:	0f 84 77 02 00 00    	je     6b45 <__reclaim_stacks+0x2b5>
    68ce:	48 39 c2             	cmp    rdx,rax
    68d1:	0f 85 91 02 00 00    	jne    6b68 <__reclaim_stacks+0x2d8>
    68d7:	48 89 32             	mov    QWORD PTR [rdx],rsi
    68da:	4c 89 52 08          	mov    QWORD PTR [rdx+0x8],r10
    68de:	49 89 12             	mov    QWORD PTR [r10],rdx
    68e1:	4c 8d 15 88 19 21 00 	lea    r10,[rip+0x211988]        # 218270 <stack_cache>
    68e8:	48 8b 35 71 19 21 00 	mov    rsi,QWORD PTR [rip+0x211971]        # 218260 <stack_used>
    68ef:	eb 27                	jmp    6918 <__reclaim_stacks+0x88>
    68f1:	48 8b 02             	mov    rax,QWORD PTR [rdx]
    68f4:	48 8b 4a 08          	mov    rcx,QWORD PTR [rdx+0x8]
    68f8:	48 89 48 08          	mov    QWORD PTR [rax+0x8],rcx
    68fc:	48 8b 52 08          	mov    rdx,QWORD PTR [rdx+0x8]
    6900:	48 89 02             	mov    QWORD PTR [rdx],rax
    6903:	48 8b 35 56 19 21 00 	mov    rsi,QWORD PTR [rip+0x211956]        # 218260 <stack_used>
    690a:	4c 8d 0d 4f 19 21 00 	lea    r9,[rip+0x21194f]        # 218260 <stack_used>
    6911:	4c 8d 15 58 19 21 00 	lea    r10,[rip+0x211958]        # 218270 <stack_cache>
    6918:	4c 39 ce             	cmp    rsi,r9
    691b:	0f 84 0c 02 00 00    	je     6b2d <__reclaim_stacks+0x29d>
    6921:	31 c0                	xor    eax,eax
    6923:	eb 0f                	jmp    6934 <__reclaim_stacks+0xa4>
    6925:	0f 1f 00             	nop    DWORD PTR [rax]
    6928:	48 8b 36             	mov    rsi,QWORD PTR [rsi]
    692b:	4c 39 ce             	cmp    rsi,r9
    692e:	0f 84 c1 00 00 00    	je     69f5 <__reclaim_stacks+0x165>
    6934:	48 8d 96 40 fd ff ff 	lea    rdx,[rsi-0x2c0]
    693b:	49 39 d0             	cmp    r8,rdx
    693e:	74 e8                	je     6928 <__reclaim_stacks+0x98>
    6940:	41 8b 90 d4 02 00 00 	mov    edx,DWORD PTR [r8+0x2d4]
    6947:	c7 46 10 00 00 00 00 	mov    DWORD PTR [rsi+0x10],0x0
    694e:	89 56 14             	mov    DWORD PTR [rsi+0x14],edx
    6951:	48 8b 96 d8 03 00 00 	mov    rdx,QWORD PTR [rsi+0x3d8]
    6958:	48 01 15 91 59 21 00 	add    QWORD PTR [rip+0x215991],rdx        # 21c2f0 <stack_cache_actsize>
    695f:	80 be 50 03 00 00 00 	cmp    BYTE PTR [rsi+0x350],0x0
    6966:	74 c0                	je     6928 <__reclaim_stacks+0x98>
    6968:	48 8d 7e 58          	lea    rdi,[rsi+0x58]
    696c:	89 f1                	mov    ecx,esi
    696e:	48 8d 96 58 02 00 00 	lea    rdx,[rsi+0x258]
    6975:	4c 8d 9e 50 03 00 00 	lea    r11,[rsi+0x350]
    697c:	48 c7 46 50 00 00 00 	mov    QWORD PTR [rsi+0x50],0x0
    6983:	00 
    6984:	48 83 e7 f8          	and    rdi,0xfffffffffffffff8
    6988:	48 c7 42 f0 00 00 00 	mov    QWORD PTR [rdx-0x10],0x0
    698f:	00 
    6990:	29 f9                	sub    ecx,edi
    6992:	81 c1 50 02 00 00    	add    ecx,0x250
    6998:	c1 e9 03             	shr    ecx,0x3
    699b:	f3 48 ab             	rep stos QWORD PTR es:[rdi],rax
    699e:	c6 86 50 03 00 00 00 	mov    BYTE PTR [rsi+0x350],0x0
    69a5:	0f 1f 00             	nop    DWORD PTR [rax]
    69a8:	48 8b 0a             	mov    rcx,QWORD PTR [rdx]
    69ab:	48 85 c9             	test   rcx,rcx
    69ae:	74 30                	je     69e0 <__reclaim_stacks+0x150>
    69b0:	48 8d 79 08          	lea    rdi,[rcx+0x8]
    69b4:	48 c7 01 00 00 00 00 	mov    QWORD PTR [rcx],0x0
    69bb:	48 c7 81 f8 01 00 00 	mov    QWORD PTR [rcx+0x1f8],0x0
    69c2:	00 00 00 00 
    69c6:	48 83 e7 f8          	and    rdi,0xfffffffffffffff8
    69ca:	48 29 f9             	sub    rcx,rdi
    69cd:	81 c1 00 02 00 00    	add    ecx,0x200
    69d3:	c1 e9 03             	shr    ecx,0x3
    69d6:	f3 48 ab             	rep stos QWORD PTR es:[rdi],rax
    69d9:	c6 86 50 03 00 00 01 	mov    BYTE PTR [rsi+0x350],0x1
    69e0:	48 83 c2 08          	add    rdx,0x8
    69e4:	4c 39 da             	cmp    rdx,r11
    69e7:	75 bf                	jne    69a8 <__reclaim_stacks+0x118>
    69e9:	48 8b 36             	mov    rsi,QWORD PTR [rsi]
    69ec:	4c 39 ce             	cmp    rsi,r9
    69ef:	0f 85 3f ff ff ff    	jne    6934 <__reclaim_stacks+0xa4>
    69f5:	48 8b 0d 74 18 21 00 	mov    rcx,QWORD PTR [rip+0x211874]        # 218270 <stack_cache>
    69fc:	49 8b 31             	mov    rsi,QWORD PTR [r9]
    69ff:	4c 39 d1             	cmp    rcx,r10
    6a02:	74 1e                	je     6a22 <__reclaim_stacks+0x192>
    6a04:	48 89 c8             	mov    rax,rcx
    6a07:	66 0f 1f 84 00 00 00 	nop    WORD PTR [rax+rax*1+0x0]
    6a0e:	00 00 
    6a10:	41 8b 90 d4 02 00 00 	mov    edx,DWORD PTR [r8+0x2d4]
    6a17:	89 50 14             	mov    DWORD PTR [rax+0x14],edx
    6a1a:	48 8b 00             	mov    rax,QWORD PTR [rax]
    6a1d:	4c 39 d0             	cmp    rax,r10
    6a20:	75 ee                	jne    6a10 <__reclaim_stacks+0x180>
    6a22:	4c 39 ce             	cmp    rsi,r9
    6a25:	74 2e                	je     6a55 <__reclaim_stacks+0x1c5>
    6a27:	48 8d 05 42 18 21 00 	lea    rax,[rip+0x211842]        # 218270 <stack_cache>
    6a2e:	48 89 46 08          	mov    QWORD PTR [rsi+0x8],rax
    6a32:	48 8b 05 2f 18 21 00 	mov    rax,QWORD PTR [rip+0x21182f]        # 218268 <stack_used+0x8>
    6a39:	48 89 08             	mov    QWORD PTR [rax],rcx
    6a3c:	48 8b 15 2d 18 21 00 	mov    rdx,QWORD PTR [rip+0x21182d]        # 218270 <stack_cache>
    6a43:	48 89 42 08          	mov    QWORD PTR [rdx+0x8],rax
    6a47:	48 8b 05 12 18 21 00 	mov    rax,QWORD PTR [rip+0x211812]        # 218260 <stack_used>
    6a4e:	48 89 05 1b 18 21 00 	mov    QWORD PTR [rip+0x21181b],rax        # 218270 <stack_cache>
    6a55:	49 8d 80 c0 02 00 00 	lea    rax,[r8+0x2c0]
    6a5c:	48 89 05 7d 58 21 00 	mov    QWORD PTR [rip+0x21587d],rax        # 21c2e0 <in_flight_stack>
    6a63:	49 8b 88 c8 02 00 00 	mov    rcx,QWORD PTR [r8+0x2c8]
    6a6a:	49 8b 90 c0 02 00 00 	mov    rdx,QWORD PTR [r8+0x2c0]
    6a71:	48 89 4a 08          	mov    QWORD PTR [rdx+0x8],rcx
    6a75:	49 8b 88 c8 02 00 00 	mov    rcx,QWORD PTR [r8+0x2c8]
    6a7c:	48 89 11             	mov    QWORD PTR [rcx],rdx
    6a7f:	48 8d 35 da 17 21 00 	lea    rsi,[rip+0x2117da]        # 218260 <stack_used>
    6a86:	48 c7 05 4f 58 21 00 	mov    QWORD PTR [rip+0x21584f],0x0        # 21c2e0 <in_flight_stack>
    6a8d:	00 00 00 00 
    6a91:	31 d2                	xor    edx,edx
    6a93:	48 89 35 ce 17 21 00 	mov    QWORD PTR [rip+0x2117ce],rsi        # 218268 <stack_used+0x8>
    6a9a:	48 89 35 bf 17 21 00 	mov    QWORD PTR [rip+0x2117bf],rsi        # 218260 <stack_used>
    6aa1:	48 8d 35 28 58 21 00 	lea    rsi,[rip+0x215828]        # 21c2d0 <__GI___stack_user>
    6aa8:	48 89 35 29 58 21 00 	mov    QWORD PTR [rip+0x215829],rsi        # 21c2d8 <__GI___stack_user+0x8>
    6aaf:	48 89 35 1a 58 21 00 	mov    QWORD PTR [rip+0x21581a],rsi        # 21c2d0 <__GI___stack_user>
    6ab6:	64 8a 14 25 12 06 00 	mov    dl,BYTE PTR fs:0x612
    6abd:	00 
    6abe:	84 d2                	test   dl,dl
    6ac0:	75 4d                	jne    6b0f <__reclaim_stacks+0x27f>
    6ac2:	48 8d 35 97 17 21 00 	lea    rsi,[rip+0x211797]        # 218260 <stack_used>
    6ac9:	48 89 05 98 17 21 00 	mov    QWORD PTR [rip+0x211798],rax        # 218268 <stack_used+0x8>
    6ad0:	49 89 b0 c0 02 00 00 	mov    QWORD PTR [r8+0x2c0],rsi
    6ad7:	49 89 b0 c8 02 00 00 	mov    QWORD PTR [r8+0x2c8],rsi
    6ade:	48 89 05 7b 17 21 00 	mov    QWORD PTR [rip+0x21177b],rax        # 218260 <stack_used>
    6ae5:	c7 05 69 17 21 00 01 	mov    DWORD PTR [rip+0x211769],0x1        # 218258 <__nptl_nthreads>
    6aec:	00 00 00 
    6aef:	48 c7 05 e6 57 21 00 	mov    QWORD PTR [rip+0x2157e6],0x0        # 21c2e0 <in_flight_stack>
    6af6:	00 00 00 00 
    6afa:	c7 05 e4 57 21 00 00 	mov    DWORD PTR [rip+0x2157e4],0x0        # 21c2e8 <stack_cache_lock>
    6b01:	00 00 00 
    6b04:	c7 05 b2 57 21 00 00 	mov    DWORD PTR [rip+0x2157b2],0x0        # 21c2c0 <__default_pthread_attr_lock>
    6b0b:	00 00 00 
    6b0e:	c3                   	ret    
    6b0f:	49 89 b0 c0 02 00 00 	mov    QWORD PTR [r8+0x2c0],rsi
    6b16:	49 89 b0 c8 02 00 00 	mov    QWORD PTR [r8+0x2c8],rsi
    6b1d:	48 89 05 b4 57 21 00 	mov    QWORD PTR [rip+0x2157b4],rax        # 21c2d8 <__GI___stack_user+0x8>
    6b24:	48 89 05 a5 57 21 00 	mov    QWORD PTR [rip+0x2157a5],rax        # 21c2d0 <__GI___stack_user>
    6b2b:	eb b8                	jmp    6ae5 <__reclaim_stacks+0x255>
    6b2d:	48 8b 0d 3c 17 21 00 	mov    rcx,QWORD PTR [rip+0x21173c]        # 218270 <stack_cache>
    6b34:	4c 89 ce             	mov    rsi,r9
    6b37:	4c 39 d1             	cmp    rcx,r10
    6b3a:	0f 85 c4 fe ff ff    	jne    6a04 <__reclaim_stacks+0x174>
    6b40:	e9 10 ff ff ff       	jmp    6a55 <__reclaim_stacks+0x1c5>
    6b45:	48 8b 0d 24 17 21 00 	mov    rcx,QWORD PTR [rip+0x211724]        # 218270 <stack_cache>
    6b4c:	4c 8d 15 1d 17 21 00 	lea    r10,[rip+0x21171d]        # 218270 <stack_cache>
    6b53:	48 8b 41 08          	mov    rax,QWORD PTR [rcx+0x8]
    6b57:	4c 39 d0             	cmp    rax,r10
    6b5a:	0f 84 b8 fd ff ff    	je     6918 <__reclaim_stacks+0x88>
    6b60:	48 89 ce             	mov    rsi,rcx
    6b63:	e9 66 fd ff ff       	jmp    68ce <__reclaim_stacks+0x3e>
    6b68:	48 8d 0d 21 c2 00 00 	lea    rcx,[rip+0xc221]        # 12d90 <__PRETTY_FUNCTION__.11830>
    6b6f:	48 8d 35 49 c1 00 00 	lea    rsi,[rip+0xc149]        # 12cbf <__PRETTY_FUNCTION__.11764+0xf>
    6b76:	48 8d 3d 52 c1 00 00 	lea    rdi,[rip+0xc152]        # 12ccf <__PRETTY_FUNCTION__.11764+0x1f>
    6b7d:	48 83 ec 08          	sub    rsp,0x8
    6b81:	ba 5f 03 00 00       	mov    edx,0x35f
    6b86:	e8 45 eb ff ff       	call   56d0 <__assert_fail@plt>
    6b8b:	0f 1f 44 00 00       	nop    DWORD PTR [rax+rax*1+0x0]

0000000000006b90 <__find_thread_by_id>:
    6b90:	89 fa                	mov    edx,edi
    6b92:	be 01 00 00 00       	mov    esi,0x1
    6b97:	31 c0                	xor    eax,eax
    6b99:	f0 0f b1 35 47 57 21 	lock cmpxchg DWORD PTR [rip+0x215747],esi        # 21c2e8 <stack_cache_lock>
    6ba0:	00 
    6ba1:	74 1a                	je     6bbd <__find_thread_by_id+0x2d>
    6ba3:	48 8d 3d 3e 57 21 00 	lea    rdi,[rip+0x21573e]        # 21c2e8 <stack_cache_lock>
    6baa:	48 81 ec 80 00 00 00 	sub    rsp,0x80
    6bb1:	e8 6a 96 00 00       	call   10220 <__lll_lock_wait_private>
    6bb6:	48 81 c4 80 00 00 00 	add    rsp,0x80
    6bbd:	48 8b 05 9c 16 21 00 	mov    rax,QWORD PTR [rip+0x21169c]        # 218260 <stack_used>
    6bc4:	48 8d 0d 95 16 21 00 	lea    rcx,[rip+0x211695]        # 218260 <stack_used>
    6bcb:	48 39 c8             	cmp    rax,rcx
    6bce:	74 1d                	je     6bed <__find_thread_by_id+0x5d>
    6bd0:	3b 50 10             	cmp    edx,DWORD PTR [rax+0x10]
    6bd3:	75 10                	jne    6be5 <__find_thread_by_id+0x55>
    6bd5:	eb 3e                	jmp    6c15 <__find_thread_by_id+0x85>
    6bd7:	66 0f 1f 84 00 00 00 	nop    WORD PTR [rax+rax*1+0x0]
    6bde:	00 00 
    6be0:	39 50 10             	cmp    DWORD PTR [rax+0x10],edx
    6be3:	74 30                	je     6c15 <__find_thread_by_id+0x85>
    6be5:	48 8b 00             	mov    rax,QWORD PTR [rax]
    6be8:	48 39 c8             	cmp    rax,rcx
    6beb:	75 f3                	jne    6be0 <__find_thread_by_id+0x50>
    6bed:	48 8b 05 dc 56 21 00 	mov    rax,QWORD PTR [rip+0x2156dc]        # 21c2d0 <__GI___stack_user>
    6bf4:	48 8d 0d d5 56 21 00 	lea    rcx,[rip+0x2156d5]        # 21c2d0 <__GI___stack_user>
    6bfb:	48 39 c8             	cmp    rax,rcx
    6bfe:	75 10                	jne    6c10 <__find_thread_by_id+0x80>
    6c00:	31 d2                	xor    edx,edx
    6c02:	eb 18                	jmp    6c1c <__find_thread_by_id+0x8c>
    6c04:	0f 1f 40 00          	nop    DWORD PTR [rax+0x0]
    6c08:	48 8b 00             	mov    rax,QWORD PTR [rax]
    6c0b:	48 39 c8             	cmp    rax,rcx
    6c0e:	74 f0                	je     6c00 <__find_thread_by_id+0x70>
    6c10:	3b 50 10             	cmp    edx,DWORD PTR [rax+0x10]
    6c13:	75 f3                	jne    6c08 <__find_thread_by_id+0x78>
    6c15:	48 8d 90 40 fd ff ff 	lea    rdx,[rax-0x2c0]
    6c1c:	f0 ff 0d c5 56 21 00 	lock dec DWORD PTR [rip+0x2156c5]        # 21c2e8 <stack_cache_lock>
    6c23:	74 1a                	je     6c3f <__find_thread_by_id+0xaf>
    6c25:	48 8d 3d bc 56 21 00 	lea    rdi,[rip+0x2156bc]        # 21c2e8 <stack_cache_lock>
    6c2c:	48 81 ec 80 00 00 00 	sub    rsp,0x80
    6c33:	e8 98 96 00 00       	call   102d0 <__lll_unlock_wake_private>
    6c38:	48 81 c4 80 00 00 00 	add    rsp,0x80
    6c3f:	48 89 d0             	mov    rax,rdx
    6c42:	c3                   	ret    
    6c43:	0f 1f 00             	nop    DWORD PTR [rax]
    6c46:	66 2e 0f 1f 84 00 00 	nop    WORD PTR cs:[rax+rax*1+0x0]
    6c4d:	00 00 00 

0000000000006c50 <__nptl_setxid_error>:
    6c50:	8b 47 24             	mov    eax,DWORD PTR [rdi+0x24]
    6c53:	39 f0                	cmp    eax,esi
    6c55:	74 0c                	je     6c63 <__nptl_setxid_error+0x13>
    6c57:	83 f8 ff             	cmp    eax,0xffffffff
    6c5a:	75 09                	jne    6c65 <__nptl_setxid_error+0x15>
    6c5c:	f0 0f b1 77 24       	lock cmpxchg DWORD PTR [rdi+0x24],esi
    6c61:	75 ed                	jne    6c50 <__nptl_setxid_error>
    6c63:	f3 c3                	repz ret 
    6c65:	48 83 ec 08          	sub    rsp,0x8
    6c69:	e8 72 e9 ff ff       	call   55e0 <abort@plt>
    6c6e:	66 90                	xchg   ax,ax

0000000000006c70 <__nptl_setxid>:
    6c70:	41 57                	push   r15
    6c72:	41 56                	push   r14
    6c74:	be 01 00 00 00       	mov    esi,0x1
    6c79:	41 55                	push   r13
    6c7b:	41 54                	push   r12
    6c7d:	31 c0                	xor    eax,eax
    6c7f:	55                   	push   rbp
    6c80:	53                   	push   rbx
    6c81:	48 89 fb             	mov    rbx,rdi
    6c84:	48 83 ec 08          	sub    rsp,0x8
    6c88:	f0 0f b1 35 58 56 21 	lock cmpxchg DWORD PTR [rip+0x215658],esi        # 21c2e8 <stack_cache_lock>
    6c8f:	00 
    6c90:	74 1a                	je     6cac <__nptl_setxid+0x3c>
    6c92:	48 8d 3d 4f 56 21 00 	lea    rdi,[rip+0x21564f]        # 21c2e8 <stack_cache_lock>
    6c99:	48 81 ec 80 00 00 00 	sub    rsp,0x80
    6ca0:	e8 7b 95 00 00       	call   10220 <__lll_lock_wait_private>
    6ca5:	48 81 c4 80 00 00 00 	add    rsp,0x80
    6cac:	48 8b 2d ad 15 21 00 	mov    rbp,QWORD PTR [rip+0x2115ad]        # 218260 <stack_used>
    6cb3:	4c 8d 35 a6 15 21 00 	lea    r14,[rip+0x2115a6]        # 218260 <stack_used>
    6cba:	c7 43 20 00 00 00 00 	mov    DWORD PTR [rbx+0x20],0x0
    6cc1:	64 4c 8b 24 25 10 00 	mov    r12,QWORD PTR fs:0x10
    6cc8:	00 00 
    6cca:	48 89 1d 97 56 21 00 	mov    QWORD PTR [rip+0x215697],rbx        # 21c368 <__xidcmd>
    6cd1:	c7 43 24 ff ff ff ff 	mov    DWORD PTR [rbx+0x24],0xffffffff
    6cd8:	4c 39 f5             	cmp    rbp,r14
    6cdb:	74 1d                	je     6cfa <__nptl_setxid+0x8a>
    6cdd:	0f 1f 00             	nop    DWORD PTR [rax]
    6ce0:	48 8d bd 40 fd ff ff 	lea    rdi,[rbp-0x2c0]
    6ce7:	49 39 fc             	cmp    r12,rdi
    6cea:	74 05                	je     6cf1 <__nptl_setxid+0x81>
    6cec:	e8 bf f5 ff ff       	call   62b0 <setxid_mark_thread.isra.1>
    6cf1:	48 8b 6d 00          	mov    rbp,QWORD PTR [rbp+0x0]
    6cf5:	4c 39 f5             	cmp    rbp,r14
    6cf8:	75 e6                	jne    6ce0 <__nptl_setxid+0x70>
    6cfa:	48 8b 2d cf 55 21 00 	mov    rbp,QWORD PTR [rip+0x2155cf]        # 21c2d0 <__GI___stack_user>
    6d01:	4c 8d 2d c8 55 21 00 	lea    r13,[rip+0x2155c8]        # 21c2d0 <__GI___stack_user>
    6d08:	4c 39 ed             	cmp    rbp,r13
    6d0b:	74 1d                	je     6d2a <__nptl_setxid+0xba>
    6d0d:	0f 1f 00             	nop    DWORD PTR [rax]
    6d10:	48 8d bd 40 fd ff ff 	lea    rdi,[rbp-0x2c0]
    6d17:	49 39 fc             	cmp    r12,rdi
    6d1a:	74 05                	je     6d21 <__nptl_setxid+0xb1>
    6d1c:	e8 8f f5 ff ff       	call   62b0 <setxid_mark_thread.isra.1>
    6d21:	48 8b 6d 00          	mov    rbp,QWORD PTR [rbp+0x0]
    6d25:	4c 39 ed             	cmp    rbp,r13
    6d28:	75 e6                	jne    6d10 <__nptl_setxid+0xa0>
    6d2a:	48 8d 6b 20          	lea    rbp,[rbx+0x20]
    6d2e:	41 bf ea 00 00 00    	mov    r15d,0xea
    6d34:	41 b9 ca 00 00 00    	mov    r9d,0xca
    6d3a:	66 0f 1f 44 00 00    	nop    WORD PTR [rax+rax*1+0x0]
    6d40:	4c 8b 15 19 15 21 00 	mov    r10,QWORD PTR [rip+0x211519]        # 218260 <stack_used>
    6d47:	45 31 c0             	xor    r8d,r8d
    6d4a:	4d 39 f2             	cmp    r10,r14
    6d4d:	74 25                	je     6d74 <__nptl_setxid+0x104>
    6d4f:	90                   	nop
    6d50:	49 8d 82 40 fd ff ff 	lea    rax,[r10-0x2c0]
    6d57:	49 39 c4             	cmp    r12,rax
    6d5a:	74 10                	je     6d6c <__nptl_setxid+0xfc>
    6d5c:	41 f6 42 48 40       	test   BYTE PTR [r10+0x48],0x40
    6d61:	0f 85 89 00 00 00    	jne    6df0 <__nptl_setxid+0x180>
    6d67:	31 c0                	xor    eax,eax
    6d69:	41 01 c0             	add    r8d,eax
    6d6c:	4d 8b 12             	mov    r10,QWORD PTR [r10]
    6d6f:	4d 39 f2             	cmp    r10,r14
    6d72:	75 dc                	jne    6d50 <__nptl_setxid+0xe0>
    6d74:	4c 8b 15 55 55 21 00 	mov    r10,QWORD PTR [rip+0x215555]        # 21c2d0 <__GI___stack_user>
    6d7b:	4d 39 ea             	cmp    r10,r13
    6d7e:	74 28                	je     6da8 <__nptl_setxid+0x138>
    6d80:	49 8d 82 40 fd ff ff 	lea    rax,[r10-0x2c0]
    6d87:	49 39 c4             	cmp    r12,rax
    6d8a:	74 10                	je     6d9c <__nptl_setxid+0x12c>
    6d8c:	41 f6 42 48 40       	test   BYTE PTR [r10+0x48],0x40
    6d91:	0f 85 91 00 00 00    	jne    6e28 <__nptl_setxid+0x1b8>
    6d97:	31 c0                	xor    eax,eax
    6d99:	41 01 c0             	add    r8d,eax
    6d9c:	4d 8b 12             	mov    r10,QWORD PTR [r10]
    6d9f:	4d 39 ea             	cmp    r10,r13
    6da2:	75 dc                	jne    6d80 <__nptl_setxid+0x110>
    6da4:	0f 1f 40 00          	nop    DWORD PTR [rax+0x0]
    6da8:	8b 53 20             	mov    edx,DWORD PTR [rbx+0x20]
    6dab:	85 d2                	test   edx,edx
    6dad:	0f 84 ad 00 00 00    	je     6e60 <__nptl_setxid+0x1f0>
    6db3:	45 31 d2             	xor    r10d,r10d
    6db6:	be 80 00 00 00       	mov    esi,0x80
    6dbb:	48 89 ef             	mov    rdi,rbp
    6dbe:	44 89 c8             	mov    eax,r9d
    6dc1:	0f 05                	syscall 
    6dc3:	48 3d 00 f0 ff ff    	cmp    rax,0xfffffffffffff000
    6dc9:	76 dd                	jbe    6da8 <__nptl_setxid+0x138>
    6dcb:	8d 48 0b             	lea    ecx,[rax+0xb]
    6dce:	83 f9 0b             	cmp    ecx,0xb
    6dd1:	77 0f                	ja     6de2 <__nptl_setxid+0x172>
    6dd3:	b8 01 00 00 00       	mov    eax,0x1
    6dd8:	48 d3 e0             	shl    rax,cl
    6ddb:	a9 81 08 00 00       	test   eax,0x881
    6de0:	75 c6                	jne    6da8 <__nptl_setxid+0x138>
    6de2:	48 8d 3d f7 bc 00 00 	lea    rdi,[rip+0xbcf7]        # 12ae0 <_fini+0xc>
    6de9:	e8 42 e8 ff ff       	call   5630 <__libc_fatal@plt>
    6dee:	66 90                	xchg   ax,ax
    6df0:	49 63 72 10          	movsxd rsi,DWORD PTR [r10+0x10]
    6df4:	64 8b 3c 25 d4 02 00 	mov    edi,DWORD PTR fs:0x2d4
    6dfb:	00 
    6dfc:	ba 21 00 00 00       	mov    edx,0x21
    6e01:	48 63 ff             	movsxd rdi,edi
    6e04:	44 89 f8             	mov    eax,r15d
    6e07:	0f 05                	syscall 
    6e09:	3d 00 f0 ff ff       	cmp    eax,0xfffff000
    6e0e:	0f 87 53 ff ff ff    	ja     6d67 <__nptl_setxid+0xf7>
    6e14:	f0 ff 43 20          	lock inc DWORD PTR [rbx+0x20]
    6e18:	b8 01 00 00 00       	mov    eax,0x1
    6e1d:	e9 47 ff ff ff       	jmp    6d69 <__nptl_setxid+0xf9>
    6e22:	66 0f 1f 44 00 00    	nop    WORD PTR [rax+rax*1+0x0]
    6e28:	49 63 72 10          	movsxd rsi,DWORD PTR [r10+0x10]
    6e2c:	64 8b 3c 25 d4 02 00 	mov    edi,DWORD PTR fs:0x2d4
    6e33:	00 
    6e34:	ba 21 00 00 00       	mov    edx,0x21
    6e39:	48 63 ff             	movsxd rdi,edi
    6e3c:	44 89 f8             	mov    eax,r15d
    6e3f:	0f 05                	syscall 
    6e41:	3d 00 f0 ff ff       	cmp    eax,0xfffff000
    6e46:	0f 87 4b ff ff ff    	ja     6d97 <__nptl_setxid+0x127>
    6e4c:	f0 ff 43 20          	lock inc DWORD PTR [rbx+0x20]
    6e50:	b8 01 00 00 00       	mov    eax,0x1
    6e55:	e9 3f ff ff ff       	jmp    6d99 <__nptl_setxid+0x129>
    6e5a:	66 0f 1f 44 00 00    	nop    WORD PTR [rax+rax*1+0x0]
    6e60:	45 85 c0             	test   r8d,r8d
    6e63:	0f 85 d7 fe ff ff    	jne    6d40 <__nptl_setxid+0xd0>
    6e69:	4c 8b 05 f0 13 21 00 	mov    r8,QWORD PTR [rip+0x2113f0]        # 218260 <stack_used>
    6e70:	41 b9 ca 00 00 00    	mov    r9d,0xca
    6e76:	4d 39 f0             	cmp    r8,r14
    6e79:	74 36                	je     6eb1 <__nptl_setxid+0x241>
    6e7b:	49 8d 80 40 fd ff ff 	lea    rax,[r8-0x2c0]
    6e82:	49 39 c4             	cmp    r12,rax
    6e85:	75 1a                	jne    6ea1 <__nptl_setxid+0x231>
    6e87:	eb 20                	jmp    6ea9 <__nptl_setxid+0x239>
    6e89:	0f 1f 80 00 00 00 00 	nop    DWORD PTR [rax+0x0]
    6e90:	89 c2                	mov    edx,eax
    6e92:	83 e2 bf             	and    edx,0xffffffbf
    6e95:	f0 41 0f b1 50 48    	lock cmpxchg DWORD PTR [r8+0x48],edx
    6e9b:	0f 84 e0 00 00 00    	je     6f81 <__nptl_setxid+0x311>
    6ea1:	41 8b 40 48          	mov    eax,DWORD PTR [r8+0x48]
    6ea5:	a8 40                	test   al,0x40
    6ea7:	75 e7                	jne    6e90 <__nptl_setxid+0x220>
    6ea9:	4d 8b 00             	mov    r8,QWORD PTR [r8]
    6eac:	4d 39 f0             	cmp    r8,r14
    6eaf:	75 ca                	jne    6e7b <__nptl_setxid+0x20b>
    6eb1:	4c 8b 05 18 54 21 00 	mov    r8,QWORD PTR [rip+0x215418]        # 21c2d0 <__GI___stack_user>
    6eb8:	41 b9 ca 00 00 00    	mov    r9d,0xca
    6ebe:	4d 39 e8             	cmp    r8,r13
    6ec1:	74 36                	je     6ef9 <__nptl_setxid+0x289>
    6ec3:	49 8d 80 40 fd ff ff 	lea    rax,[r8-0x2c0]
    6eca:	49 39 c4             	cmp    r12,rax
    6ecd:	75 1a                	jne    6ee9 <__nptl_setxid+0x279>
    6ecf:	eb 20                	jmp    6ef1 <__nptl_setxid+0x281>
    6ed1:	0f 1f 80 00 00 00 00 	nop    DWORD PTR [rax+0x0]
    6ed8:	89 c2                	mov    edx,eax
    6eda:	83 e2 bf             	and    edx,0xffffffbf
    6edd:	f0 41 0f b1 50 48    	lock cmpxchg DWORD PTR [r8+0x48],edx
    6ee3:	0f 84 df 00 00 00    	je     6fc8 <__nptl_setxid+0x358>
    6ee9:	41 8b 40 48          	mov    eax,DWORD PTR [r8+0x48]
    6eed:	a8 40                	test   al,0x40
    6eef:	75 e7                	jne    6ed8 <__nptl_setxid+0x268>
    6ef1:	4d 8b 00             	mov    r8,QWORD PTR [r8]
    6ef4:	4d 39 e8             	cmp    r8,r13
    6ef7:	75 ca                	jne    6ec3 <__nptl_setxid+0x253>
    6ef9:	48 8b 73 10          	mov    rsi,QWORD PTR [rbx+0x10]
    6efd:	48 8b 7b 08          	mov    rdi,QWORD PTR [rbx+0x8]
    6f01:	48 8b 53 18          	mov    rdx,QWORD PTR [rbx+0x18]
    6f05:	8b 03                	mov    eax,DWORD PTR [rbx]
    6f07:	0f 05                	syscall 
    6f09:	3d 00 f0 ff ff       	cmp    eax,0xfffff000
    6f0e:	89 c6                	mov    esi,eax
    6f10:	77 55                	ja     6f67 <__nptl_setxid+0x2f7>
    6f12:	31 d2                	xor    edx,edx
    6f14:	eb 16                	jmp    6f2c <__nptl_setxid+0x2bc>
    6f16:	66 2e 0f 1f 84 00 00 	nop    WORD PTR cs:[rax+rax*1+0x0]
    6f1d:	00 00 00 
    6f20:	83 f8 ff             	cmp    eax,0xffffffff
    6f23:	75 57                	jne    6f7c <__nptl_setxid+0x30c>
    6f25:	f0 0f b1 53 24       	lock cmpxchg DWORD PTR [rbx+0x24],edx
    6f2a:	74 07                	je     6f33 <__nptl_setxid+0x2c3>
    6f2c:	8b 43 24             	mov    eax,DWORD PTR [rbx+0x24]
    6f2f:	39 c2                	cmp    edx,eax
    6f31:	75 ed                	jne    6f20 <__nptl_setxid+0x2b0>
    6f33:	f0 ff 0d ae 53 21 00 	lock dec DWORD PTR [rip+0x2153ae]        # 21c2e8 <stack_cache_lock>
    6f3a:	74 1a                	je     6f56 <__nptl_setxid+0x2e6>
    6f3c:	48 8d 3d a5 53 21 00 	lea    rdi,[rip+0x2153a5]        # 21c2e8 <stack_cache_lock>
    6f43:	48 81 ec 80 00 00 00 	sub    rsp,0x80
    6f4a:	e8 81 93 00 00       	call   102d0 <__lll_unlock_wake_private>
    6f4f:	48 81 c4 80 00 00 00 	add    rsp,0x80
    6f56:	48 83 c4 08          	add    rsp,0x8
    6f5a:	89 f0                	mov    eax,esi
    6f5c:	5b                   	pop    rbx
    6f5d:	5d                   	pop    rbp
    6f5e:	41 5c                	pop    r12
    6f60:	41 5d                	pop    r13
    6f62:	41 5e                	pop    r14
    6f64:	41 5f                	pop    r15
    6f66:	c3                   	ret    
    6f67:	89 c2                	mov    edx,eax
    6f69:	48 8b 05 18 10 21 00 	mov    rax,QWORD PTR [rip+0x211018]        # 217f88 <_DYNAMIC+0x238>
    6f70:	be ff ff ff ff       	mov    esi,0xffffffff
    6f75:	f7 da                	neg    edx
    6f77:	64 89 10             	mov    DWORD PTR fs:[rax],edx
    6f7a:	eb b0                	jmp    6f2c <__nptl_setxid+0x2bc>
    6f7c:	e8 5f e6 ff ff       	call   55e0 <abort@plt>
    6f81:	41 c7 80 5c 03 00 00 	mov    DWORD PTR [r8+0x35c],0x1
    6f88:	01 00 00 00 
    6f8c:	45 31 d2             	xor    r10d,r10d
    6f8f:	ba 01 00 00 00       	mov    edx,0x1
    6f94:	be 81 00 00 00       	mov    esi,0x81
    6f99:	49 8d b8 5c 03 00 00 	lea    rdi,[r8+0x35c]
    6fa0:	44 89 c8             	mov    eax,r9d
    6fa3:	0f 05                	syscall 
    6fa5:	48 3d 00 f0 ff ff    	cmp    rax,0xfffffffffffff000
    6fab:	0f 86 f8 fe ff ff    	jbe    6ea9 <__nptl_setxid+0x239>
    6fb1:	83 f8 ea             	cmp    eax,0xffffffea
    6fb4:	0f 84 ef fe ff ff    	je     6ea9 <__nptl_setxid+0x239>
    6fba:	83 f8 f2             	cmp    eax,0xfffffff2
    6fbd:	0f 84 e6 fe ff ff    	je     6ea9 <__nptl_setxid+0x239>
    6fc3:	e9 1a fe ff ff       	jmp    6de2 <__nptl_setxid+0x172>
    6fc8:	41 c7 80 5c 03 00 00 	mov    DWORD PTR [r8+0x35c],0x1
    6fcf:	01 00 00 00 
    6fd3:	45 31 d2             	xor    r10d,r10d
    6fd6:	ba 01 00 00 00       	mov    edx,0x1
    6fdb:	be 81 00 00 00       	mov    esi,0x81
    6fe0:	49 8d b8 5c 03 00 00 	lea    rdi,[r8+0x35c]
    6fe7:	44 89 c8             	mov    eax,r9d
    6fea:	0f 05                	syscall 
    6fec:	48 3d 00 f0 ff ff    	cmp    rax,0xfffffffffffff000
    6ff2:	0f 86 f9 fe ff ff    	jbe    6ef1 <__nptl_setxid+0x281>
    6ff8:	83 f8 ea             	cmp    eax,0xffffffea
    6ffb:	0f 84 f0 fe ff ff    	je     6ef1 <__nptl_setxid+0x281>
    7001:	83 f8 f2             	cmp    eax,0xfffffff2
    7004:	0f 84 e7 fe ff ff    	je     6ef1 <__nptl_setxid+0x281>
    700a:	e9 d3 fd ff ff       	jmp    6de2 <__nptl_setxid+0x172>
    700f:	90                   	nop

0000000000007010 <__pthread_init_static_tls>:
    7010:	41 56                	push   r14
    7012:	be 01 00 00 00       	mov    esi,0x1
    7017:	41 55                	push   r13
    7019:	31 c0                	xor    eax,eax
    701b:	41 54                	push   r12
    701d:	55                   	push   rbp
    701e:	53                   	push   rbx
    701f:	48 89 fb             	mov    rbx,rdi
    7022:	f0 0f b1 35 be 52 21 	lock cmpxchg DWORD PTR [rip+0x2152be],esi        # 21c2e8 <stack_cache_lock>
    7029:	00 
    702a:	74 1a                	je     7046 <__pthread_init_static_tls+0x36>
    702c:	48 8d 3d b5 52 21 00 	lea    rdi,[rip+0x2152b5]        # 21c2e8 <stack_cache_lock>
    7033:	48 81 ec 80 00 00 00 	sub    rsp,0x80
    703a:	e8 e1 91 00 00       	call   10220 <__lll_lock_wait_private>
    703f:	48 81 c4 80 00 00 00 	add    rsp,0x80
    7046:	48 8b 2d 13 12 21 00 	mov    rbp,QWORD PTR [rip+0x211213]        # 218260 <stack_used>
    704d:	4c 8d 2d 0c 12 21 00 	lea    r13,[rip+0x21120c]        # 218260 <stack_used>
    7054:	49 c7 c6 40 fd ff ff 	mov    r14,0xfffffffffffffd40
    705b:	4c 39 ed             	cmp    rbp,r13
    705e:	74 40                	je     70a0 <__pthread_init_static_tls+0x90>
    7060:	4c 89 f7             	mov    rdi,r14
    7063:	48 2b bb 40 04 00 00 	sub    rdi,QWORD PTR [rbx+0x440]
    706a:	48 8b 93 20 04 00 00 	mov    rdx,QWORD PTR [rbx+0x420]
    7071:	4c 8b a3 28 04 00 00 	mov    r12,QWORD PTR [rbx+0x428]
    7078:	48 8b b3 18 04 00 00 	mov    rsi,QWORD PTR [rbx+0x418]
    707f:	48 01 ef             	add    rdi,rbp
    7082:	49 29 d4             	sub    r12,rdx
    7085:	e8 d6 e5 ff ff       	call   5660 <__mempcpy@plt>
    708a:	31 f6                	xor    esi,esi
    708c:	4c 89 e2             	mov    rdx,r12
    708f:	48 89 c7             	mov    rdi,rax
    7092:	e8 49 e6 ff ff       	call   56e0 <memset@plt>
    7097:	48 8b 6d 00          	mov    rbp,QWORD PTR [rbp+0x0]
    709b:	4c 39 ed             	cmp    rbp,r13
    709e:	75 c0                	jne    7060 <__pthread_init_static_tls+0x50>
    70a0:	48 8b 2d 29 52 21 00 	mov    rbp,QWORD PTR [rip+0x215229]        # 21c2d0 <__GI___stack_user>
    70a7:	4c 8d 2d 22 52 21 00 	lea    r13,[rip+0x215222]        # 21c2d0 <__GI___stack_user>
    70ae:	49 c7 c6 40 fd ff ff 	mov    r14,0xfffffffffffffd40
    70b5:	4c 39 ed             	cmp    rbp,r13
    70b8:	74 46                	je     7100 <__pthread_init_static_tls+0xf0>
    70ba:	66 0f 1f 44 00 00    	nop    WORD PTR [rax+rax*1+0x0]
    70c0:	4c 89 f7             	mov    rdi,r14
    70c3:	48 2b bb 40 04 00 00 	sub    rdi,QWORD PTR [rbx+0x440]
    70ca:	48 8b 93 20 04 00 00 	mov    rdx,QWORD PTR [rbx+0x420]
    70d1:	4c 8b a3 28 04 00 00 	mov    r12,QWORD PTR [rbx+0x428]
    70d8:	48 8b b3 18 04 00 00 	mov    rsi,QWORD PTR [rbx+0x418]
    70df:	48 01 ef             	add    rdi,rbp
    70e2:	49 29 d4             	sub    r12,rdx
    70e5:	e8 76 e5 ff ff       	call   5660 <__mempcpy@plt>
    70ea:	31 f6                	xor    esi,esi
    70ec:	4c 89 e2             	mov    rdx,r12
    70ef:	48 89 c7             	mov    rdi,rax
    70f2:	e8 e9 e5 ff ff       	call   56e0 <memset@plt>
    70f7:	48 8b 6d 00          	mov    rbp,QWORD PTR [rbp+0x0]
    70fb:	4c 39 ed             	cmp    rbp,r13
    70fe:	75 c0                	jne    70c0 <__pthread_init_static_tls+0xb0>
    7100:	f0 ff 0d e1 51 21 00 	lock dec DWORD PTR [rip+0x2151e1]        # 21c2e8 <stack_cache_lock>
    7107:	74 1a                	je     7123 <__pthread_init_static_tls+0x113>
    7109:	48 8d 3d d8 51 21 00 	lea    rdi,[rip+0x2151d8]        # 21c2e8 <stack_cache_lock>
    7110:	48 81 ec 80 00 00 00 	sub    rsp,0x80
    7117:	e8 b4 91 00 00       	call   102d0 <__lll_unlock_wake_private>
    711c:	48 81 c4 80 00 00 00 	add    rsp,0x80
    7123:	5b                   	pop    rbx
    7124:	5d                   	pop    rbp
    7125:	41 5c                	pop    r12
    7127:	41 5d                	pop    r13
    7129:	41 5e                	pop    r14
    712b:	c3                   	ret    
    712c:	0f 1f 40 00          	nop    DWORD PTR [rax+0x0]

0000000000007130 <__wait_lookup_done>:
    7130:	41 57                	push   r15
    7132:	41 56                	push   r14
    7134:	be 01 00 00 00       	mov    esi,0x1
    7139:	41 55                	push   r13
    713b:	41 54                	push   r12
    713d:	31 c0                	xor    eax,eax
    713f:	55                   	push   rbp
    7140:	53                   	push   rbx
    7141:	48 83 ec 08          	sub    rsp,0x8
    7145:	f0 0f b1 35 9b 51 21 	lock cmpxchg DWORD PTR [rip+0x21519b],esi        # 21c2e8 <stack_cache_lock>
    714c:	00 
    714d:	74 1a                	je     7169 <__wait_lookup_done+0x39>
    714f:	48 8d 3d 92 51 21 00 	lea    rdi,[rip+0x215192]        # 21c2e8 <stack_cache_lock>
    7156:	48 81 ec 80 00 00 00 	sub    rsp,0x80
    715d:	e8 be 90 00 00       	call   10220 <__lll_lock_wait_private>
    7162:	48 81 c4 80 00 00 00 	add    rsp,0x80
    7169:	4c 8b 05 f0 10 21 00 	mov    r8,QWORD PTR [rip+0x2110f0]        # 218260 <stack_used>
    7170:	48 8d 1d e9 10 21 00 	lea    rbx,[rip+0x2110e9]        # 218260 <stack_used>
    7177:	64 4c 8b 0c 25 10 00 	mov    r9,QWORD PTR fs:0x10
    717e:	00 00 
    7180:	49 39 d8             	cmp    r8,rbx
    7183:	74 54                	je     71d9 <__wait_lookup_done+0xa9>
    7185:	41 bc 01 00 00 00    	mov    r12d,0x1
    718b:	bd 02 00 00 00       	mov    ebp,0x2
    7190:	41 be ca 00 00 00    	mov    r14d,0xca
    7196:	41 bd 01 00 00 00    	mov    r13d,0x1
    719c:	eb 0a                	jmp    71a8 <__wait_lookup_done+0x78>
    719e:	66 90                	xchg   ax,ax
    71a0:	4d 8b 00             	mov    r8,QWORD PTR [r8]
    71a3:	49 39 d8             	cmp    r8,rbx
    71a6:	74 31                	je     71d9 <__wait_lookup_done+0xa9>
    71a8:	49 8d 80 40 fd ff ff 	lea    rax,[r8-0x2c0]
    71af:	49 39 c1             	cmp    r9,rax
    71b2:	74 ec                	je     71a0 <__wait_lookup_done+0x70>
    71b4:	41 8b 88 5c fd ff ff 	mov    ecx,DWORD PTR [r8-0x2a4]
    71bb:	85 c9                	test   ecx,ecx
    71bd:	74 e1                	je     71a0 <__wait_lookup_done+0x70>
    71bf:	4c 8d 78 1c          	lea    r15,[rax+0x1c]
    71c3:	44 89 e0             	mov    eax,r12d
    71c6:	f0 41 0f b1 2f       	lock cmpxchg DWORD PTR [r15],ebp
    71cb:	0f 84 c5 00 00 00    	je     7296 <__wait_lookup_done+0x166>
    71d1:	4d 8b 00             	mov    r8,QWORD PTR [r8]
    71d4:	49 39 d8             	cmp    r8,rbx
    71d7:	75 cf                	jne    71a8 <__wait_lookup_done+0x78>
    71d9:	4c 8b 05 f0 50 21 00 	mov    r8,QWORD PTR [rip+0x2150f0]        # 21c2d0 <__GI___stack_user>
    71e0:	48 8d 1d e9 50 21 00 	lea    rbx,[rip+0x2150e9]        # 21c2d0 <__GI___stack_user>
    71e7:	49 39 d8             	cmp    r8,rbx
    71ea:	74 55                	je     7241 <__wait_lookup_done+0x111>
    71ec:	41 bc 01 00 00 00    	mov    r12d,0x1
    71f2:	bd 02 00 00 00       	mov    ebp,0x2
    71f7:	41 be ca 00 00 00    	mov    r14d,0xca
    71fd:	41 bd 01 00 00 00    	mov    r13d,0x1
    7203:	eb 0b                	jmp    7210 <__wait_lookup_done+0xe0>
    7205:	0f 1f 00             	nop    DWORD PTR [rax]
    7208:	4d 8b 00             	mov    r8,QWORD PTR [r8]
    720b:	49 39 d8             	cmp    r8,rbx
    720e:	74 31                	je     7241 <__wait_lookup_done+0x111>
    7210:	49 8d 80 40 fd ff ff 	lea    rax,[r8-0x2c0]
    7217:	49 39 c1             	cmp    r9,rax
    721a:	74 ec                	je     7208 <__wait_lookup_done+0xd8>
    721c:	41 8b 90 5c fd ff ff 	mov    edx,DWORD PTR [r8-0x2a4]
    7223:	85 d2                	test   edx,edx
    7225:	74 e1                	je     7208 <__wait_lookup_done+0xd8>
    7227:	4c 8d 78 1c          	lea    r15,[rax+0x1c]
    722b:	44 89 e0             	mov    eax,r12d
    722e:	f0 41 0f b1 2f       	lock cmpxchg DWORD PTR [r15],ebp
    7233:	0f 84 8a 00 00 00    	je     72c3 <__wait_lookup_done+0x193>
    7239:	4d 8b 00             	mov    r8,QWORD PTR [r8]
    723c:	49 39 d8             	cmp    r8,rbx
    723f:	75 cf                	jne    7210 <__wait_lookup_done+0xe0>
    7241:	f0 ff 0d a0 50 21 00 	lock dec DWORD PTR [rip+0x2150a0]        # 21c2e8 <stack_cache_lock>
    7248:	74 1a                	je     7264 <__wait_lookup_done+0x134>
    724a:	48 8d 3d 97 50 21 00 	lea    rdi,[rip+0x215097]        # 21c2e8 <stack_cache_lock>
    7251:	48 81 ec 80 00 00 00 	sub    rsp,0x80
    7258:	e8 73 90 00 00       	call   102d0 <__lll_unlock_wake_private>
    725d:	48 81 c4 80 00 00 00 	add    rsp,0x80
    7264:	48 83 c4 08          	add    rsp,0x8
    7268:	5b                   	pop    rbx
    7269:	5d                   	pop    rbp
    726a:	41 5c                	pop    r12
    726c:	41 5d                	pop    r13
    726e:	41 5e                	pop    r14
    7270:	41 5f                	pop    r15
    7272:	c3                   	ret    
    7273:	8d 48 0b             	lea    ecx,[rax+0xb]
    7276:	83 f9 0b             	cmp    ecx,0xb
    7279:	77 7a                	ja     72f5 <__wait_lookup_done+0x1c5>
    727b:	4c 89 e8             	mov    rax,r13
    727e:	48 d3 e0             	shl    rax,cl
    7281:	a9 81 08 00 00       	test   eax,0x881
    7286:	74 6d                	je     72f5 <__wait_lookup_done+0x1c5>
    7288:	41 83 b8 5c fd ff ff 	cmp    DWORD PTR [r8-0x2a4],0x2
    728f:	02 
    7290:	0f 85 0a ff ff ff    	jne    71a0 <__wait_lookup_done+0x70>
    7296:	45 31 d2             	xor    r10d,r10d
    7299:	ba 02 00 00 00       	mov    edx,0x2
    729e:	be 80 00 00 00       	mov    esi,0x80
    72a3:	4c 89 ff             	mov    rdi,r15
    72a6:	44 89 f0             	mov    eax,r14d
    72a9:	0f 05                	syscall 
    72ab:	48 3d 00 f0 ff ff    	cmp    rax,0xfffffffffffff000
    72b1:	76 d5                	jbe    7288 <__wait_lookup_done+0x158>
    72b3:	eb be                	jmp    7273 <__wait_lookup_done+0x143>
    72b5:	41 83 b8 5c fd ff ff 	cmp    DWORD PTR [r8-0x2a4],0x2
    72bc:	02 
    72bd:	0f 85 45 ff ff ff    	jne    7208 <__wait_lookup_done+0xd8>
    72c3:	45 31 d2             	xor    r10d,r10d
    72c6:	ba 02 00 00 00       	mov    edx,0x2
    72cb:	be 80 00 00 00       	mov    esi,0x80
    72d0:	4c 89 ff             	mov    rdi,r15
    72d3:	44 89 f0             	mov    eax,r14d
    72d6:	0f 05                	syscall 
    72d8:	48 3d 00 f0 ff ff    	cmp    rax,0xfffffffffffff000
    72de:	76 d5                	jbe    72b5 <__wait_lookup_done+0x185>
    72e0:	8d 48 0b             	lea    ecx,[rax+0xb]
    72e3:	83 f9 0b             	cmp    ecx,0xb
    72e6:	77 0d                	ja     72f5 <__wait_lookup_done+0x1c5>
    72e8:	4c 89 e8             	mov    rax,r13
    72eb:	48 d3 e0             	shl    rax,cl
    72ee:	a9 81 08 00 00       	test   eax,0x881
    72f3:	75 c0                	jne    72b5 <__wait_lookup_done+0x185>
    72f5:	48 8d 3d e4 b7 00 00 	lea    rdi,[rip+0xb7e4]        # 12ae0 <_fini+0xc>
    72fc:	e8 2f e3 ff ff       	call   5630 <__libc_fatal@plt>
    7301:	0f 1f 44 00 00       	nop    DWORD PTR [rax+rax*1+0x0]
    7306:	66 2e 0f 1f 84 00 00 	nop    WORD PTR cs:[rax+rax*1+0x0]
    730d:	00 00 00 

0000000000007310 <__find_in_stack_list>:
    7310:	49 89 f8             	mov    r8,rdi
    7313:	be 01 00 00 00       	mov    esi,0x1
    7318:	31 c0                	xor    eax,eax
    731a:	f0 0f b1 35 c6 4f 21 	lock cmpxchg DWORD PTR [rip+0x214fc6],esi        # 21c2e8 <stack_cache_lock>
    7321:	00 
    7322:	74 1a                	je     733e <__find_in_stack_list+0x2e>
    7324:	48 8d 3d bd 4f 21 00 	lea    rdi,[rip+0x214fbd]        # 21c2e8 <stack_cache_lock>
    732b:	48 81 ec 80 00 00 00 	sub    rsp,0x80
    7332:	e8 e9 8e 00 00       	call   10220 <__lll_lock_wait_private>
    7337:	48 81 c4 80 00 00 00 	add    rsp,0x80
    733e:	48 8b 05 1b 0f 21 00 	mov    rax,QWORD PTR [rip+0x210f1b]        # 218260 <stack_used>
    7345:	48 8d 0d 14 0f 21 00 	lea    rcx,[rip+0x210f14]        # 218260 <stack_used>
    734c:	48 39 c8             	cmp    rax,rcx
    734f:	75 0f                	jne    7360 <__find_in_stack_list+0x50>
    7351:	eb 4d                	jmp    73a0 <__find_in_stack_list+0x90>
    7353:	0f 1f 44 00 00       	nop    DWORD PTR [rax+rax*1+0x0]
    7358:	48 8b 00             	mov    rax,QWORD PTR [rax]
    735b:	48 39 c8             	cmp    rax,rcx
    735e:	74 40                	je     73a0 <__find_in_stack_list+0x90>
    7360:	48 8d 90 40 fd ff ff 	lea    rdx,[rax-0x2c0]
    7367:	49 39 d0             	cmp    r8,rdx
    736a:	75 ec                	jne    7358 <__find_in_stack_list+0x48>
    736c:	4d 85 c0             	test   r8,r8
    736f:	74 2f                	je     73a0 <__find_in_stack_list+0x90>
    7371:	f0 ff 0d 70 4f 21 00 	lock dec DWORD PTR [rip+0x214f70]        # 21c2e8 <stack_cache_lock>
    7378:	74 1a                	je     7394 <__find_in_stack_list+0x84>
    737a:	48 8d 3d 67 4f 21 00 	lea    rdi,[rip+0x214f67]        # 21c2e8 <stack_cache_lock>
    7381:	48 81 ec 80 00 00 00 	sub    rsp,0x80
    7388:	e8 43 8f 00 00       	call   102d0 <__lll_unlock_wake_private>
    738d:	48 81 c4 80 00 00 00 	add    rsp,0x80
    7394:	4c 89 c0             	mov    rax,r8
    7397:	c3                   	ret    
    7398:	0f 1f 84 00 00 00 00 	nop    DWORD PTR [rax+rax*1+0x0]
    739f:	00 
    73a0:	48 8b 05 29 4f 21 00 	mov    rax,QWORD PTR [rip+0x214f29]        # 21c2d0 <__GI___stack_user>
    73a7:	48 8d 0d 22 4f 21 00 	lea    rcx,[rip+0x214f22]        # 21c2d0 <__GI___stack_user>
    73ae:	48 39 c8             	cmp    rax,rcx
    73b1:	74 19                	je     73cc <__find_in_stack_list+0xbc>
    73b3:	0f 1f 44 00 00       	nop    DWORD PTR [rax+rax*1+0x0]
    73b8:	48 8d 90 40 fd ff ff 	lea    rdx,[rax-0x2c0]
    73bf:	49 39 d0             	cmp    r8,rdx
    73c2:	74 ad                	je     7371 <__find_in_stack_list+0x61>
    73c4:	48 8b 00             	mov    rax,QWORD PTR [rax]
    73c7:	48 39 c8             	cmp    rax,rcx
    73ca:	75 ec                	jne    73b8 <__find_in_stack_list+0xa8>
    73cc:	45 31 c0             	xor    r8d,r8d
    73cf:	eb a0                	jmp    7371 <__find_in_stack_list+0x61>
    73d1:	0f 1f 44 00 00       	nop    DWORD PTR [rax+rax*1+0x0]
    73d6:	66 2e 0f 1f 84 00 00 	nop    WORD PTR cs:[rax+rax*1+0x0]
    73dd:	00 00 00 

00000000000073e0 <__nptl_deallocate_tsd>:
    73e0:	31 c0                	xor    eax,eax
    73e2:	64 8a 04 25 10 06 00 	mov    al,BYTE PTR fs:0x610
    73e9:	00 
    73ea:	84 c0                	test   al,al
    73ec:	74 0a                	je     73f8 <__nptl_deallocate_tsd+0x18>
    73ee:	e9 bd ef ff ff       	jmp    63b0 <__nptl_deallocate_tsd.part.4>
    73f3:	0f 1f 44 00 00       	nop    DWORD PTR [rax+rax*1+0x0]
    73f8:	f3 c3                	repz ret 
    73fa:	66 0f 1f 44 00 00    	nop    WORD PTR [rax+rax*1+0x0]

0000000000007400 <__free_tcb>:
    7400:	f0 0f ba af 08 03 00 	lock bts DWORD PTR [rdi+0x308],0x5
    7407:	00 05 
    7409:	0f 92 c0             	setb   al
    740c:	84 c0                	test   al,al
    740e:	0f 85 08 01 00 00    	jne    751c <__free_tcb+0x11c>
    7414:	41 54                	push   r12
    7416:	55                   	push   rbp
    7417:	53                   	push   rbx
    7418:	48 89 fb             	mov    rbx,rdi
    741b:	48 8b bf b0 06 00 00 	mov    rdi,QWORD PTR [rdi+0x6b0]
    7422:	48 85 ff             	test   rdi,rdi
    7425:	0f 85 f5 00 00 00    	jne    7520 <__free_tcb+0x120>
    742b:	be 01 00 00 00       	mov    esi,0x1
    7430:	31 c0                	xor    eax,eax
    7432:	f0 0f b1 35 ae 4e 21 	lock cmpxchg DWORD PTR [rip+0x214eae],esi        # 21c2e8 <stack_cache_lock>
    7439:	00 
    743a:	74 1a                	je     7456 <__free_tcb+0x56>
    743c:	48 8d 3d a5 4e 21 00 	lea    rdi,[rip+0x214ea5]        # 21c2e8 <stack_cache_lock>
    7443:	48 81 ec 80 00 00 00 	sub    rsp,0x80
    744a:	e8 d1 8d 00 00       	call   10220 <__lll_lock_wait_private>
    744f:	48 81 c4 80 00 00 00 	add    rsp,0x80
    7456:	48 8d 83 c0 02 00 00 	lea    rax,[rbx+0x2c0]
    745d:	48 89 05 7c 4e 21 00 	mov    QWORD PTR [rip+0x214e7c],rax        # 21c2e0 <in_flight_stack>
    7464:	48 8b 8b c8 02 00 00 	mov    rcx,QWORD PTR [rbx+0x2c8]
    746b:	48 8b 93 c0 02 00 00 	mov    rdx,QWORD PTR [rbx+0x2c0]
    7472:	48 89 4a 08          	mov    QWORD PTR [rdx+0x8],rcx
    7476:	48 8b 8b c8 02 00 00 	mov    rcx,QWORD PTR [rbx+0x2c8]
    747d:	48 89 11             	mov    QWORD PTR [rcx],rdx
    7480:	80 bb 12 06 00 00 00 	cmp    BYTE PTR [rbx+0x612],0x0
    7487:	48 c7 05 4e 4e 21 00 	mov    QWORD PTR [rip+0x214e4e],0x0        # 21c2e0 <in_flight_stack>
    748e:	00 00 00 00 
    7492:	0f 85 a0 00 00 00    	jne    7538 <__free_tcb+0x138>
    7498:	48 89 c2             	mov    rdx,rax
    749b:	48 83 ca 01          	or     rdx,0x1
    749f:	48 89 15 3a 4e 21 00 	mov    QWORD PTR [rip+0x214e3a],rdx        # 21c2e0 <in_flight_stack>
    74a6:	48 8b 15 c3 0d 21 00 	mov    rdx,QWORD PTR [rip+0x210dc3]        # 218270 <stack_cache>
    74ad:	4c 8d 25 bc 0d 21 00 	lea    r12,[rip+0x210dbc]        # 218270 <stack_cache>
    74b4:	4c 89 a3 c8 02 00 00 	mov    QWORD PTR [rbx+0x2c8],r12
    74bb:	48 89 93 c0 02 00 00 	mov    QWORD PTR [rbx+0x2c0],rdx
    74c2:	48 89 42 08          	mov    QWORD PTR [rdx+0x8],rax
    74c6:	48 89 05 a3 0d 21 00 	mov    QWORD PTR [rip+0x210da3],rax        # 218270 <stack_cache>
    74cd:	48 8b 05 1c 4e 21 00 	mov    rax,QWORD PTR [rip+0x214e1c]        # 21c2f0 <stack_cache_actsize>
    74d4:	48 03 83 98 06 00 00 	add    rax,QWORD PTR [rbx+0x698]
    74db:	48 c7 05 fa 4d 21 00 	mov    QWORD PTR [rip+0x214dfa],0x0        # 21c2e0 <in_flight_stack>
    74e2:	00 00 00 00 
    74e6:	48 3d 00 00 80 02    	cmp    rax,0x2800000
    74ec:	48 89 05 fd 4d 21 00 	mov    QWORD PTR [rip+0x214dfd],rax        # 21c2f0 <stack_cache_actsize>
    74f3:	77 53                	ja     7548 <__free_tcb+0x148>
    74f5:	f0 ff 0d ec 4d 21 00 	lock dec DWORD PTR [rip+0x214dec]        # 21c2e8 <stack_cache_lock>
    74fc:	74 1a                	je     7518 <__free_tcb+0x118>
    74fe:	48 8d 3d e3 4d 21 00 	lea    rdi,[rip+0x214de3]        # 21c2e8 <stack_cache_lock>
    7505:	48 81 ec 80 00 00 00 	sub    rsp,0x80
    750c:	e8 bf 8d 00 00       	call   102d0 <__lll_unlock_wake_private>
    7511:	48 81 c4 80 00 00 00 	add    rsp,0x80
    7518:	5b                   	pop    rbx
    7519:	5d                   	pop    rbp
    751a:	41 5c                	pop    r12
    751c:	f3 c3                	repz ret 
    751e:	66 90                	xchg   ax,ax
    7520:	48 c7 83 b0 06 00 00 	mov    QWORD PTR [rbx+0x6b0],0x0
    7527:	00 00 00 00 
    752b:	e8 90 e0 ff ff       	call   55c0 <free@plt>
    7530:	e9 f6 fe ff ff       	jmp    742b <__free_tcb+0x2b>
    7535:	0f 1f 00             	nop    DWORD PTR [rax]
    7538:	31 f6                	xor    esi,esi
    753a:	48 89 df             	mov    rdi,rbx
    753d:	e8 de e1 ff ff       	call   5720 <_dl_deallocate_tls@plt>
    7542:	eb b1                	jmp    74f5 <__free_tcb+0xf5>
    7544:	0f 1f 40 00          	nop    DWORD PTR [rax+0x0]
    7548:	48 8b 1d 29 0d 21 00 	mov    rbx,QWORD PTR [rip+0x210d29]        # 218278 <stack_cache+0x8>
    754f:	4c 39 e3             	cmp    rbx,r12
    7552:	48 8b 6b 08          	mov    rbp,QWORD PTR [rbx+0x8]
    7556:	75 17                	jne    756f <__free_tcb+0x16f>
    7558:	eb 9b                	jmp    74f5 <__free_tcb+0xf5>
    755a:	66 0f 1f 44 00 00    	nop    WORD PTR [rax+rax*1+0x0]
    7560:	4c 39 e5             	cmp    rbp,r12
    7563:	48 8b 45 08          	mov    rax,QWORD PTR [rbp+0x8]
    7567:	48 89 eb             	mov    rbx,rbp
    756a:	74 89                	je     74f5 <__free_tcb+0xf5>
    756c:	48 89 c5             	mov    rbp,rax
    756f:	8b 43 10             	mov    eax,DWORD PTR [rbx+0x10]
    7572:	85 c0                	test   eax,eax
    7574:	7f ea                	jg     7560 <__free_tcb+0x160>
    7576:	48 89 1d 63 4d 21 00 	mov    QWORD PTR [rip+0x214d63],rbx        # 21c2e0 <in_flight_stack>
    757d:	48 8b 53 08          	mov    rdx,QWORD PTR [rbx+0x8]
    7581:	48 8b 03             	mov    rax,QWORD PTR [rbx]
    7584:	48 89 50 08          	mov    QWORD PTR [rax+0x8],rdx
    7588:	48 8b 53 08          	mov    rdx,QWORD PTR [rbx+0x8]
    758c:	48 89 02             	mov    QWORD PTR [rdx],rax
    758f:	48 8d bb 40 fd ff ff 	lea    rdi,[rbx-0x2c0]
    7596:	31 f6                	xor    esi,esi
    7598:	48 8b 83 d8 03 00 00 	mov    rax,QWORD PTR [rbx+0x3d8]
    759f:	48 c7 05 36 4d 21 00 	mov    QWORD PTR [rip+0x214d36],0x0        # 21c2e0 <in_flight_stack>
    75a6:	00 00 00 00 
    75aa:	48 29 05 3f 4d 21 00 	sub    QWORD PTR [rip+0x214d3f],rax        # 21c2f0 <stack_cache_actsize>
    75b1:	e8 6a e1 ff ff       	call   5720 <_dl_deallocate_tls@plt>
    75b6:	48 8b b3 d8 03 00 00 	mov    rsi,QWORD PTR [rbx+0x3d8]
    75bd:	48 8b bb d0 03 00 00 	mov    rdi,QWORD PTR [rbx+0x3d0]
    75c4:	e8 07 e3 ff ff       	call   58d0 <munmap@plt>
    75c9:	85 c0                	test   eax,eax
    75cb:	75 12                	jne    75df <__free_tcb+0x1df>
    75cd:	48 81 3d 18 4d 21 00 	cmp    QWORD PTR [rip+0x214d18],0x2800000        # 21c2f0 <stack_cache_actsize>
    75d4:	00 00 80 02 
    75d8:	77 86                	ja     7560 <__free_tcb+0x160>
    75da:	e9 16 ff ff ff       	jmp    74f5 <__free_tcb+0xf5>
    75df:	e8 fc df ff ff       	call   55e0 <abort@plt>
    75e4:	66 90                	xchg   ax,ax
    75e6:	66 2e 0f 1f 84 00 00 	nop    WORD PTR cs:[rax+rax*1+0x0]
    75ed:	00 00 00 

00000000000075f0 <start_thread>:
    75f0:	53                   	push   rbx
    75f1:	48 89 fb             	mov    rbx,rdi
    75f4:	48 81 ec 90 00 00 00 	sub    rsp,0x90
    75fb:	48 89 7c 24 08       	mov    QWORD PTR [rsp+0x8],rdi
    7600:	0f 31                	rdtsc  
    7602:	48 c1 e2 20          	shl    rdx,0x20
    7606:	89 c0                	mov    eax,eax
    7608:	48 09 d0             	or     rax,rdx
    760b:	64 48 89 04 25 20 06 	mov    QWORD PTR fs:0x620,rax
    7612:	00 00 
    7614:	48 8b 05 75 09 21 00 	mov    rax,QWORD PTR [rip+0x210975]        # 217f90 <_DYNAMIC+0x240>
    761b:	48 8d 97 b8 06 00 00 	lea    rdx,[rdi+0x6b8]
    7622:	64 48 89 10          	mov    QWORD PTR fs:[rax],rdx
    7626:	e8 55 e2 ff ff       	call   5880 <__ctype_init@plt>
    762b:	31 c0                	xor    eax,eax
    762d:	87 83 1c 06 00 00    	xchg   DWORD PTR [rbx+0x61c],eax
    7633:	83 f8 fe             	cmp    eax,0xfffffffe
    7636:	0f 84 4b 01 00 00    	je     7787 <start_thread+0x197>
    763c:	48 8b 5c 24 08       	mov    rbx,QWORD PTR [rsp+0x8]
    7641:	be 18 00 00 00       	mov    esi,0x18
    7646:	b8 11 01 00 00       	mov    eax,0x111
    764b:	48 8d bb e0 02 00 00 	lea    rdi,[rbx+0x2e0]
    7652:	0f 05                	syscall 
    7654:	f6 83 14 06 00 00 04 	test   BYTE PTR [rbx+0x614],0x4
    765b:	0f 85 70 01 00 00    	jne    77d1 <start_thread+0x1e1>
    7661:	48 8d 7c 24 10       	lea    rdi,[rsp+0x10]
    7666:	48 c7 44 24 58 00 00 	mov    QWORD PTR [rsp+0x58],0x0
    766d:	00 00 
    766f:	48 c7 44 24 60 00 00 	mov    QWORD PTR [rsp+0x60],0x0
    7676:	00 00 
    7678:	e8 d3 e0 ff ff       	call   5750 <_setjmp@plt>
    767d:	85 c0                	test   eax,eax
    767f:	89 c3                	mov    ebx,eax
    7681:	75 40                	jne    76c3 <start_thread+0xd3>
    7683:	48 8d 44 24 10       	lea    rax,[rsp+0x10]
    7688:	64 48 89 04 25 00 03 	mov    QWORD PTR fs:0x300,rax
    768f:	00 00 
    7691:	48 8b 44 24 08       	mov    rax,QWORD PTR [rsp+0x8]
    7696:	80 b8 13 06 00 00 00 	cmp    BYTE PTR [rax+0x613],0x0
    769d:	0f 85 62 01 00 00    	jne    7805 <start_thread+0x215>
    76a3:	48 8b 44 24 08       	mov    rax,QWORD PTR [rsp+0x8]
    76a8:	90                   	nop
    76a9:	64 48 8b 3c 25 48 06 	mov    rdi,QWORD PTR fs:0x648
    76b0:	00 00 
    76b2:	64 ff 14 25 40 06 00 	call   QWORD PTR fs:0x640
    76b9:	00 
    76ba:	64 48 89 04 25 30 06 	mov    QWORD PTR fs:0x630,rax
    76c1:	00 00 
    76c3:	e8 68 e0 ff ff       	call   5730 <__call_tls_dtors@plt>
    76c8:	31 c0                	xor    eax,eax
    76ca:	64 8a 04 25 10 06 00 	mov    al,BYTE PTR fs:0x610
    76d1:	00 
    76d2:	84 c0                	test   al,al
    76d4:	0f 85 91 01 00 00    	jne    786b <start_thread+0x27b>
    76da:	e8 d1 e0 ff ff       	call   57b0 <__libc_thread_freeres@plt>
    76df:	f0 ff 0d 72 0b 21 00 	lock dec DWORD PTR [rip+0x210b72]        # 218258 <__nptl_nthreads>
    76e6:	0f 94 c0             	sete   al
    76e9:	84 c0                	test   al,al
    76eb:	0f 85 8f 00 00 00    	jne    7780 <start_thread+0x190>
    76f1:	48 8b 44 24 08       	mov    rax,QWORD PTR [rsp+0x8]
    76f6:	80 b8 11 06 00 00 00 	cmp    BYTE PTR [rax+0x611],0x0
    76fd:	0f 85 ed 01 00 00    	jne    78f0 <start_thread+0x300>
    7703:	48 8b 5c 24 08       	mov    rbx,QWORD PTR [rsp+0x8]
    7708:	f0 83 8b 08 03 00 00 	lock or DWORD PTR [rbx+0x308],0x10
    770f:	10 
    7710:	e8 1b e1 ff ff       	call   5830 <__getpagesize@plt>
    7715:	83 e8 01             	sub    eax,0x1
    7718:	48 8b bb 90 06 00 00 	mov    rdi,QWORD PTR [rbx+0x690]
    771f:	48 98                	cdqe   
    7721:	48 f7 d0             	not    rax
    7724:	48 89 c2             	mov    rdx,rax
    7727:	48 89 e0             	mov    rax,rsp
    772a:	48 29 f8             	sub    rax,rdi
    772d:	48 21 d0             	and    rax,rdx
    7730:	48 3b 83 98 06 00 00 	cmp    rax,QWORD PTR [rbx+0x698]
    7737:	0f 83 38 01 00 00    	jae    7875 <start_thread+0x285>
    773d:	48 3d 00 40 00 00    	cmp    rax,0x4000
    7743:	0f 87 f3 01 00 00    	ja     793c <start_thread+0x34c>
    7749:	48 8b 44 24 08       	mov    rax,QWORD PTR [rsp+0x8]
    774e:	48 3b 80 28 06 00 00 	cmp    rax,QWORD PTR [rax+0x628]
    7755:	0f 84 d2 01 00 00    	je     792d <start_thread+0x33d>
    775b:	48 8b 44 24 08       	mov    rax,QWORD PTR [rsp+0x8]
    7760:	f6 80 08 03 00 00 40 	test   BYTE PTR [rax+0x308],0x40
    7767:	0f 85 27 01 00 00    	jne    7894 <start_thread+0x2a4>
    776d:	ba 3c 00 00 00       	mov    edx,0x3c
    7772:	66 0f 1f 44 00 00    	nop    WORD PTR [rax+rax*1+0x0]
    7778:	31 ff                	xor    edi,edi
    777a:	89 d0                	mov    eax,edx
    777c:	0f 05                	syscall 
    777e:	eb f8                	jmp    7778 <start_thread+0x188>
    7780:	31 ff                	xor    edi,edi
    7782:	e8 19 e2 ff ff       	call   59a0 <exit@plt>
    7787:	48 8b 44 24 08       	mov    rax,QWORD PTR [rsp+0x8]
    778c:	45 31 d2             	xor    r10d,r10d
    778f:	ba 01 00 00 00       	mov    edx,0x1
    7794:	be 81 00 00 00       	mov    esi,0x81
    7799:	48 8d b8 1c 06 00 00 	lea    rdi,[rax+0x61c]
    77a0:	b8 ca 00 00 00       	mov    eax,0xca
    77a5:	0f 05                	syscall 
    77a7:	48 3d 00 f0 ff ff    	cmp    rax,0xfffffffffffff000
    77ad:	0f 86 89 fe ff ff    	jbe    763c <start_thread+0x4c>
    77b3:	83 f8 ea             	cmp    eax,0xffffffea
    77b6:	0f 84 80 fe ff ff    	je     763c <start_thread+0x4c>
    77bc:	83 f8 f2             	cmp    eax,0xfffffff2
    77bf:	0f 84 77 fe ff ff    	je     763c <start_thread+0x4c>
    77c5:	48 8d 3d 14 b3 00 00 	lea    rdi,[rip+0xb314]        # 12ae0 <_fini+0xc>
    77cc:	e8 5f de ff ff       	call   5630 <__libc_fatal@plt>
    77d1:	48 8d 74 24 10       	lea    rsi,[rsp+0x10]
    77d6:	31 c0                	xor    eax,eax
    77d8:	b9 20 00 00 00       	mov    ecx,0x20
    77dd:	41 ba 08 00 00 00    	mov    r10d,0x8
    77e3:	31 d2                	xor    edx,edx
    77e5:	48 89 f7             	mov    rdi,rsi
    77e8:	f3 ab                	rep stos DWORD PTR es:[rdi],eax
    77ea:	b8 00 00 00 80       	mov    eax,0x80000000
    77ef:	bf 01 00 00 00       	mov    edi,0x1
    77f4:	48 89 44 24 10       	mov    QWORD PTR [rsp+0x10],rax
    77f9:	b8 0e 00 00 00       	mov    eax,0xe
    77fe:	0f 05                	syscall 
    7800:	e9 5c fe ff ff       	jmp    7661 <start_thread+0x71>
    7805:	e8 56 89 00 00       	call   10160 <__pthread_enable_asynccancel>
    780a:	be 01 00 00 00       	mov    esi,0x1
    780f:	89 c2                	mov    edx,eax
    7811:	89 d8                	mov    eax,ebx
    7813:	48 8b 5c 24 08       	mov    rbx,QWORD PTR [rsp+0x8]
    7818:	f0 0f b1 b3 18 06 00 	lock cmpxchg DWORD PTR [rbx+0x618],esi
    781f:	00 
    7820:	74 1a                	je     783c <start_thread+0x24c>
    7822:	48 8d bb 18 06 00 00 	lea    rdi,[rbx+0x618]
    7829:	48 81 ec 80 00 00 00 	sub    rsp,0x80
    7830:	e8 eb 89 00 00       	call   10220 <__lll_lock_wait_private>
    7835:	48 81 c4 80 00 00 00 	add    rsp,0x80
    783c:	f0 ff 8b 18 06 00 00 	lock dec DWORD PTR [rbx+0x618]
    7843:	74 1a                	je     785f <start_thread+0x26f>
    7845:	48 8d bb 18 06 00 00 	lea    rdi,[rbx+0x618]
    784c:	48 81 ec 80 00 00 00 	sub    rsp,0x80
    7853:	e8 78 8a 00 00       	call   102d0 <__lll_unlock_wake_private>
    7858:	48 81 c4 80 00 00 00 	add    rsp,0x80
    785f:	89 d7                	mov    edi,edx
    7861:	e8 5a 89 00 00       	call   101c0 <__pthread_disable_asynccancel>
    7866:	e9 38 fe ff ff       	jmp    76a3 <start_thread+0xb3>
    786b:	e8 40 eb ff ff       	call   63b0 <__nptl_deallocate_tsd.part.4>
    7870:	e9 65 fe ff ff       	jmp    76da <start_thread+0xea>
    7875:	48 8d 0d 14 b4 00 00 	lea    rcx,[rip+0xb414]        # 12c90 <__PRETTY_FUNCTION__.12175>
    787c:	48 8d 35 62 b4 00 00 	lea    rsi,[rip+0xb462]        # 12ce5 <__PRETTY_FUNCTION__.11764+0x35>
    7883:	48 8d 3d e6 b3 00 00 	lea    rdi,[rip+0xb3e6]        # 12c70 <banner+0x150>
    788a:	ba ae 01 00 00       	mov    edx,0x1ae
    788f:	e8 3c de ff ff       	call   56d0 <__assert_fail@plt>
    7894:	48 8d 98 1c 06 00 00 	lea    rbx,[rax+0x61c]
    789b:	41 b9 ca 00 00 00    	mov    r9d,0xca
    78a1:	41 b8 01 00 00 00    	mov    r8d,0x1
    78a7:	eb 0e                	jmp    78b7 <start_thread+0x2c7>
    78a9:	48 8b 44 24 08       	mov    rax,QWORD PTR [rsp+0x8]
    78ae:	f6 80 08 03 00 00 40 	test   BYTE PTR [rax+0x308],0x40
    78b5:	74 67                	je     791e <start_thread+0x32e>
    78b7:	45 31 d2             	xor    r10d,r10d
    78ba:	31 d2                	xor    edx,edx
    78bc:	be 80 00 00 00       	mov    esi,0x80
    78c1:	48 89 df             	mov    rdi,rbx
    78c4:	44 89 c8             	mov    eax,r9d
    78c7:	0f 05                	syscall 
    78c9:	48 3d 00 f0 ff ff    	cmp    rax,0xfffffffffffff000
    78cf:	76 d8                	jbe    78a9 <start_thread+0x2b9>
    78d1:	8d 48 0b             	lea    ecx,[rax+0xb]
    78d4:	83 f9 0b             	cmp    ecx,0xb
    78d7:	0f 87 e8 fe ff ff    	ja     77c5 <start_thread+0x1d5>
    78dd:	4c 89 c0             	mov    rax,r8
    78e0:	48 d3 e0             	shl    rax,cl
    78e3:	a9 81 08 00 00       	test   eax,0x881
    78e8:	0f 84 d7 fe ff ff    	je     77c5 <start_thread+0x1d5>
    78ee:	eb b9                	jmp    78a9 <start_thread+0x2b9>
    78f0:	48 8b 4c 24 08       	mov    rcx,QWORD PTR [rsp+0x8]
    78f5:	8b 05 05 4a 21 00    	mov    eax,DWORD PTR [rip+0x214a05]        # 21c300 <__nptl_threads_events>
    78fb:	0b 81 50 06 00 00    	or     eax,DWORD PTR [rcx+0x650]
    7901:	f6 c4 01             	test   ah,0x1
    7904:	0f 84 f9 fd ff ff    	je     7703 <start_thread+0x113>
    790a:	48 83 b9 68 06 00 00 	cmp    QWORD PTR [rcx+0x668],0x0
    7911:	00 
    7912:	74 3e                	je     7952 <start_thread+0x362>
    7914:	e8 87 e7 ff ff       	call   60a0 <__GI___nptl_death_event>
    7919:	e9 e5 fd ff ff       	jmp    7703 <start_thread+0x113>
    791e:	c7 80 1c 06 00 00 00 	mov    DWORD PTR [rax+0x61c],0x0
    7925:	00 00 00 
    7928:	e9 40 fe ff ff       	jmp    776d <start_thread+0x17d>
    792d:	48 8b 7c 24 08       	mov    rdi,QWORD PTR [rsp+0x8]
    7932:	e8 c9 fa ff ff       	call   7400 <__free_tcb>
    7937:	e9 31 fe ff ff       	jmp    776d <start_thread+0x17d>
    793c:	48 8d b0 00 c0 ff ff 	lea    rsi,[rax-0x4000]
    7943:	ba 04 00 00 00       	mov    edx,0x4
    7948:	e8 a3 df ff ff       	call   58f0 <__madvise@plt>
    794d:	e9 f7 fd ff ff       	jmp    7749 <start_thread+0x159>
    7952:	48 8b 44 24 08       	mov    rax,QWORD PTR [rsp+0x8]
    7957:	c7 80 58 06 00 00 09 	mov    DWORD PTR [rax+0x658],0x9
    795e:	00 00 00 
    7961:	48 89 80 60 06 00 00 	mov    QWORD PTR [rax+0x660],rax
    7968:	48 89 c2             	mov    rdx,rax
    796b:	0f 1f 44 00 00       	nop    DWORD PTR [rax+rax*1+0x0]
    7970:	48 8b 05 81 49 21 00 	mov    rax,QWORD PTR [rip+0x214981]        # 21c2f8 <__nptl_last_event>
    7977:	48 8b 5c 24 08       	mov    rbx,QWORD PTR [rsp+0x8]
    797c:	48 89 83 68 06 00 00 	mov    QWORD PTR [rbx+0x668],rax
    7983:	f0 48 0f b1 15 6c 49 	lock cmpxchg QWORD PTR [rip+0x21496c],rdx        # 21c2f8 <__nptl_last_event>
    798a:	21 00 
    798c:	75 e2                	jne    7970 <start_thread+0x380>
    798e:	eb 84                	jmp    7914 <start_thread+0x324>

0000000000007990 <pthread_create@@GLIBC_2.2.5>:
    7990:	55                   	push   rbp
    7991:	48 89 e5             	mov    rbp,rsp
    7994:	41 57                	push   r15
    7996:	41 56                	push   r14
    7998:	41 55                	push   r13
    799a:	41 54                	push   r12
    799c:	49 89 f4             	mov    r12,rsi
    799f:	53                   	push   rbx
    79a0:	48 81 ec b8 00 00 00 	sub    rsp,0xb8
    79a7:	48 85 f6             	test   rsi,rsi
    79aa:	48 89 bd 48 ff ff ff 	mov    QWORD PTR [rbp-0xb8],rdi
    79b1:	48 89 b5 40 ff ff ff 	mov    QWORD PTR [rbp-0xc0],rsi
    79b8:	48 89 95 58 ff ff ff 	mov    QWORD PTR [rbp-0xa8],rdx
    79bf:	48 89 8d 50 ff ff ff 	mov    QWORD PTR [rbp-0xb0],rcx
    79c6:	c6 85 67 ff ff ff 00 	mov    BYTE PTR [rbp-0x99],0x0
    79cd:	0f 84 6b 05 00 00    	je     7f3e <pthread_create@@GLIBC_2.2.5+0x5ae>
    79d3:	e8 58 de ff ff       	call   5830 <__getpagesize@plt>
    79d8:	44 8d 40 ff          	lea    r8d,[rax-0x1]
    79dc:	4d 63 c0             	movsxd r8,r8d
    79df:	49 8d 50 01          	lea    rdx,[r8+0x1]
    79e3:	49 85 d0             	test   r8,rdx
    79e6:	0f 85 77 0c 00 00    	jne    8663 <pthread_create@@GLIBC_2.2.5+0xcd3>
    79ec:	49 8b 74 24 20       	mov    rsi,QWORD PTR [r12+0x20]
    79f1:	48 85 f6             	test   rsi,rsi
    79f4:	0f 85 cb 04 00 00    	jne    7ec5 <pthread_create@@GLIBC_2.2.5+0x535>
    79fa:	be 01 00 00 00       	mov    esi,0x1
    79ff:	31 c0                	xor    eax,eax
    7a01:	f0 0f b1 35 b7 48 21 	lock cmpxchg DWORD PTR [rip+0x2148b7],esi        # 21c2c0 <__default_pthread_attr_lock>
    7a08:	00 
    7a09:	74 1a                	je     7a25 <pthread_create@@GLIBC_2.2.5+0x95>
    7a0b:	48 8d 3d ae 48 21 00 	lea    rdi,[rip+0x2148ae]        # 21c2c0 <__default_pthread_attr_lock>
    7a12:	48 81 ec 80 00 00 00 	sub    rsp,0x80
    7a19:	e8 02 88 00 00       	call   10220 <__lll_lock_wait_private>
    7a1e:	48 81 c4 80 00 00 00 	add    rsp,0x80
    7a25:	48 8b 35 b4 49 21 00 	mov    rsi,QWORD PTR [rip+0x2149b4]        # 21c3e0 <__default_pthread_attr+0x20>
    7a2c:	f0 ff 0d 8d 48 21 00 	lock dec DWORD PTR [rip+0x21488d]        # 21c2c0 <__default_pthread_attr_lock>
    7a33:	74 1a                	je     7a4f <pthread_create@@GLIBC_2.2.5+0xbf>
    7a35:	48 8d 3d 84 48 21 00 	lea    rdi,[rip+0x214884]        # 21c2c0 <__default_pthread_attr_lock>
    7a3c:	48 81 ec 80 00 00 00 	sub    rsp,0x80
    7a43:	e8 88 88 00 00       	call   102d0 <__lll_unlock_wake_private>
    7a48:	48 81 c4 80 00 00 00 	add    rsp,0x80
    7a4f:	41 f6 44 24 08 08    	test   BYTE PTR [r12+0x8],0x8
    7a55:	0f 85 c8 05 00 00    	jne    8023 <pthread_create@@GLIBC_2.2.5+0x693>
    7a5b:	48 8b 05 76 05 21 00 	mov    rax,QWORD PTR [rip+0x210576]        # 217fd8 <_DYNAMIC+0x288>
    7a62:	48 8b 1d 07 49 21 00 	mov    rbx,QWORD PTR [rip+0x214907]        # 21c370 <__static_tls_align_m1>
    7a69:	8b 80 20 0f 00 00    	mov    eax,DWORD PTR [rax+0xf20]
    7a6f:	48 f7 d3             	not    rbx
    7a72:	89 85 78 ff ff ff    	mov    DWORD PTR [rbp-0x88],eax
    7a78:	83 e0 01             	and    eax,0x1
    7a7b:	41 89 c2             	mov    r10d,eax
    7a7e:	41 f7 da             	neg    r10d
    7a81:	41 83 e2 04          	and    r10d,0x4
    7a85:	83 f8 01             	cmp    eax,0x1
    7a88:	19 c0                	sbb    eax,eax
    7a8a:	83 e0 fc             	and    eax,0xfffffffc
    7a8d:	83 c0 07             	add    eax,0x7
    7a90:	48 21 f3             	and    rbx,rsi
    7a93:	89 85 60 ff ff ff    	mov    DWORD PTR [rbp-0xa0],eax
    7a99:	0f 84 e3 0b 00 00    	je     8682 <pthread_create@@GLIBC_2.2.5+0xcf2>
    7a9f:	4d 89 c5             	mov    r13,r8
    7aa2:	4d 03 6c 24 10       	add    r13,QWORD PTR [r12+0x10]
    7aa7:	4c 89 c0             	mov    rax,r8
    7aaa:	4c 03 05 cf 48 21 00 	add    r8,QWORD PTR [rip+0x2148cf]        # 21c380 <__static_tls_size>
    7ab1:	48 f7 d0             	not    rax
    7ab4:	49 21 c5             	and    r13,rax
    7ab7:	4b 8d 8c 28 00 08 00 	lea    rcx,[r8+r13*1+0x800]
    7abe:	00 
    7abf:	4c 89 ad 70 ff ff ff 	mov    QWORD PTR [rbp-0x90],r13
    7ac6:	48 21 c8             	and    rax,rcx
    7ac9:	48 39 c3             	cmp    rbx,rax
    7acc:	0f 82 1e 04 00 00    	jb     7ef0 <pthread_create@@GLIBC_2.2.5+0x560>
    7ad2:	be 01 00 00 00       	mov    esi,0x1
    7ad7:	31 c0                	xor    eax,eax
    7ad9:	f0 0f b1 35 07 48 21 	lock cmpxchg DWORD PTR [rip+0x214807],esi        # 21c2e8 <stack_cache_lock>
    7ae0:	00 
    7ae1:	74 1a                	je     7afd <pthread_create@@GLIBC_2.2.5+0x16d>
    7ae3:	48 8d 3d fe 47 21 00 	lea    rdi,[rip+0x2147fe]        # 21c2e8 <stack_cache_lock>
    7aea:	48 81 ec 80 00 00 00 	sub    rsp,0x80
    7af1:	e8 2a 87 00 00       	call   10220 <__lll_lock_wait_private>
    7af6:	48 81 c4 80 00 00 00 	add    rsp,0x80
    7afd:	48 8b 05 6c 07 21 00 	mov    rax,QWORD PTR [rip+0x21076c]        # 218270 <stack_cache>
    7b04:	48 8d 0d 65 07 21 00 	lea    rcx,[rip+0x210765]        # 218270 <stack_cache>
    7b0b:	48 39 c8             	cmp    rax,rcx
    7b0e:	0f 84 69 06 00 00    	je     817d <pthread_create@@GLIBC_2.2.5+0x7ed>
    7b14:	45 31 ed             	xor    r13d,r13d
    7b17:	eb 0f                	jmp    7b28 <pthread_create@@GLIBC_2.2.5+0x198>
    7b19:	0f 1f 80 00 00 00 00 	nop    DWORD PTR [rax+0x0]
    7b20:	48 8b 00             	mov    rax,QWORD PTR [rax]
    7b23:	48 39 c8             	cmp    rax,rcx
    7b26:	74 3f                	je     7b67 <pthread_create@@GLIBC_2.2.5+0x1d7>
    7b28:	8b 70 10             	mov    esi,DWORD PTR [rax+0x10]
    7b2b:	85 f6                	test   esi,esi
    7b2d:	7f f1                	jg     7b20 <pthread_create@@GLIBC_2.2.5+0x190>
    7b2f:	48 8b b0 d8 03 00 00 	mov    rsi,QWORD PTR [rax+0x3d8]
    7b36:	48 39 f3             	cmp    rbx,rsi
    7b39:	77 e5                	ja     7b20 <pthread_create@@GLIBC_2.2.5+0x190>
    7b3b:	48 39 f3             	cmp    rbx,rsi
    7b3e:	48 8d b8 40 fd ff ff 	lea    rdi,[rax-0x2c0]
    7b45:	0f 84 fa 09 00 00    	je     8545 <pthread_create@@GLIBC_2.2.5+0xbb5>
    7b4b:	4d 85 ed             	test   r13,r13
    7b4e:	0f 84 e2 03 00 00    	je     7f36 <pthread_create@@GLIBC_2.2.5+0x5a6>
    7b54:	49 3b b5 98 06 00 00 	cmp    rsi,QWORD PTR [r13+0x698]
    7b5b:	48 8b 00             	mov    rax,QWORD PTR [rax]
    7b5e:	4c 0f 42 ef          	cmovb  r13,rdi
    7b62:	48 39 c8             	cmp    rax,rcx
    7b65:	75 c1                	jne    7b28 <pthread_create@@GLIBC_2.2.5+0x198>
    7b67:	4d 85 ed             	test   r13,r13
    7b6a:	0f 84 0d 06 00 00    	je     817d <pthread_create@@GLIBC_2.2.5+0x7ed>
    7b70:	48 8d 04 9d 00 00 00 	lea    rax,[rbx*4+0x0]
    7b77:	00 
    7b78:	49 39 85 98 06 00 00 	cmp    QWORD PTR [r13+0x698],rax
    7b7f:	0f 87 f8 05 00 00    	ja     817d <pthread_create@@GLIBC_2.2.5+0x7ed>
    7b85:	49 8d 85 c0 02 00 00 	lea    rax,[r13+0x2c0]
    7b8c:	41 c7 85 1c 06 00 00 	mov    DWORD PTR [r13+0x61c],0xffffffff
    7b93:	ff ff ff ff 
    7b97:	48 89 c7             	mov    rdi,rax
    7b9a:	48 89 85 38 ff ff ff 	mov    QWORD PTR [rbp-0xc8],rax
    7ba1:	48 89 05 38 47 21 00 	mov    QWORD PTR [rip+0x214738],rax        # 21c2e0 <in_flight_stack>
    7ba8:	49 8b 95 c8 02 00 00 	mov    rdx,QWORD PTR [r13+0x2c8]
    7baf:	49 8b 85 c0 02 00 00 	mov    rax,QWORD PTR [r13+0x2c0]
    7bb6:	48 89 50 08          	mov    QWORD PTR [rax+0x8],rdx
    7bba:	49 8b 95 c8 02 00 00 	mov    rdx,QWORD PTR [r13+0x2c8]
    7bc1:	48 89 02             	mov    QWORD PTR [rdx],rax
    7bc4:	48 89 f8             	mov    rax,rdi
    7bc7:	48 89 fa             	mov    rdx,rdi
    7bca:	48 83 c8 01          	or     rax,0x1
    7bce:	48 89 05 0b 47 21 00 	mov    QWORD PTR [rip+0x21470b],rax        # 21c2e0 <in_flight_stack>
    7bd5:	48 8b 05 84 06 21 00 	mov    rax,QWORD PTR [rip+0x210684]        # 218260 <stack_used>
    7bdc:	48 8d 3d 7d 06 21 00 	lea    rdi,[rip+0x21067d]        # 218260 <stack_used>
    7be3:	49 89 bd c8 02 00 00 	mov    QWORD PTR [r13+0x2c8],rdi
    7bea:	49 89 85 c0 02 00 00 	mov    QWORD PTR [r13+0x2c0],rax
    7bf1:	48 89 50 08          	mov    QWORD PTR [rax+0x8],rdx
    7bf5:	48 89 15 64 06 21 00 	mov    QWORD PTR [rip+0x210664],rdx        # 218260 <stack_used>
    7bfc:	48 c7 05 d9 46 21 00 	mov    QWORD PTR [rip+0x2146d9],0x0        # 21c2e0 <in_flight_stack>
    7c03:	00 00 00 00 
    7c07:	49 8b 85 98 06 00 00 	mov    rax,QWORD PTR [r13+0x698]
    7c0e:	48 29 05 db 46 21 00 	sub    QWORD PTR [rip+0x2146db],rax        # 21c2f0 <stack_cache_actsize>
    7c15:	f0 ff 0d cc 46 21 00 	lock dec DWORD PTR [rip+0x2146cc]        # 21c2e8 <stack_cache_lock>
    7c1c:	74 1a                	je     7c38 <pthread_create@@GLIBC_2.2.5+0x2a8>
    7c1e:	48 8d 3d c3 46 21 00 	lea    rdi,[rip+0x2146c3]        # 21c2e8 <stack_cache_lock>
    7c25:	48 81 ec 80 00 00 00 	sub    rsp,0x80
    7c2c:	e8 9f 86 00 00       	call   102d0 <__lll_unlock_wake_private>
    7c31:	48 81 c4 80 00 00 00 	add    rsp,0x80
    7c38:	49 8b 85 98 06 00 00 	mov    rax,QWORD PTR [r13+0x698]
    7c3f:	45 31 f6             	xor    r14d,r14d
    7c42:	41 c7 85 08 03 00 00 	mov    DWORD PTR [r13+0x308],0x0
    7c49:	00 00 00 00 
    7c4d:	49 c7 85 f8 02 00 00 	mov    QWORD PTR [r13+0x2f8],0x0
    7c54:	00 00 00 00 
    7c58:	49 c7 85 68 06 00 00 	mov    QWORD PTR [r13+0x668],0x0
    7c5f:	00 00 00 00 
    7c63:	48 89 85 68 ff ff ff 	mov    QWORD PTR [rbp-0x98],rax
    7c6a:	49 8b 85 90 06 00 00 	mov    rax,QWORD PTR [r13+0x690]
    7c71:	4c 89 a5 28 ff ff ff 	mov    QWORD PTR [rbp-0xd8],r12
    7c78:	4d 89 f4             	mov    r12,r14
    7c7b:	49 89 de             	mov    r14,rbx
    7c7e:	48 89 85 78 ff ff ff 	mov    QWORD PTR [rbp-0x88],rax
    7c85:	49 8b 45 08          	mov    rax,QWORD PTR [r13+0x8]
    7c89:	48 89 85 30 ff ff ff 	mov    QWORD PTR [rbp-0xd0],rax
    7c90:	48 8b 48 f0          	mov    rcx,QWORD PTR [rax-0x10]
    7c94:	4c 8d 78 10          	lea    r15,[rax+0x10]
    7c98:	48 89 c3             	mov    rbx,rax
    7c9b:	eb 24                	jmp    7cc1 <pthread_create@@GLIBC_2.2.5+0x331>
    7c9d:	0f 1f 00             	nop    DWORD PTR [rax]
    7ca0:	49 83 c4 01          	add    r12,0x1
    7ca4:	41 80 7f 08 00       	cmp    BYTE PTR [r15+0x8],0x0
    7ca9:	75 12                	jne    7cbd <pthread_create@@GLIBC_2.2.5+0x32d>
    7cab:	49 8b 3f             	mov    rdi,QWORD PTR [r15]
    7cae:	48 83 ff ff          	cmp    rdi,0xffffffffffffffff
    7cb2:	74 09                	je     7cbd <pthread_create@@GLIBC_2.2.5+0x32d>
    7cb4:	e8 07 d9 ff ff       	call   55c0 <free@plt>
    7cb9:	48 8b 4b f0          	mov    rcx,QWORD PTR [rbx-0x10]
    7cbd:	49 83 c7 10          	add    r15,0x10
    7cc1:	49 39 cc             	cmp    r12,rcx
    7cc4:	72 da                	jb     7ca0 <pthread_create@@GLIBC_2.2.5+0x310>
    7cc6:	48 8d 51 01          	lea    rdx,[rcx+0x1]
    7cca:	48 8b bd 30 ff ff ff 	mov    rdi,QWORD PTR [rbp-0xd0]
    7cd1:	31 f6                	xor    esi,esi
    7cd3:	4c 8b a5 28 ff ff ff 	mov    r12,QWORD PTR [rbp-0xd8]
    7cda:	4c 89 f3             	mov    rbx,r14
    7cdd:	48 c1 e2 04          	shl    rdx,0x4
    7ce1:	e8 fa d9 ff ff       	call   56e0 <memset@plt>
    7ce6:	4c 89 ef             	mov    rdi,r13
    7ce9:	e8 f2 dc ff ff       	call   59e0 <_dl_allocate_tls_init@plt>
    7cee:	49 8b b5 a0 06 00 00 	mov    rsi,QWORD PTR [r13+0x6a0]
    7cf5:	48 39 b5 70 ff ff ff 	cmp    QWORD PTR [rbp-0x90],rsi
    7cfc:	0f 87 e3 07 00 00    	ja     84e5 <pthread_create@@GLIBC_2.2.5+0xb55>
    7d02:	48 2b b5 70 ff ff ff 	sub    rsi,QWORD PTR [rbp-0x90]
    7d09:	48 8b 85 68 ff ff ff 	mov    rax,QWORD PTR [rbp-0x98]
    7d10:	48 29 d8             	sub    rax,rbx
    7d13:	48 39 c6             	cmp    rsi,rax
    7d16:	0f 87 f9 07 00 00    	ja     8515 <pthread_create@@GLIBC_2.2.5+0xb85>
    7d1c:	48 8b 85 70 ff ff ff 	mov    rax,QWORD PTR [rbp-0x90]
    7d23:	49 89 85 a8 06 00 00 	mov    QWORD PTR [r13+0x6a8],rax
    7d2a:	49 8d 85 e0 02 00 00 	lea    rax,[r13+0x2e0]
    7d31:	4d 89 6d 10          	mov    QWORD PTR [r13+0x10],r13
    7d35:	41 c7 85 18 06 00 00 	mov    DWORD PTR [r13+0x618],0x0
    7d3c:	00 00 00 00 
    7d40:	64 48 8b 0c 25 10 00 	mov    rcx,QWORD PTR fs:0x10
    7d47:	00 00 
    7d49:	49 89 85 d8 02 00 00 	mov    QWORD PTR [r13+0x2d8],rax
    7d50:	49 89 85 e0 02 00 00 	mov    QWORD PTR [r13+0x2e0],rax
    7d57:	4c 89 e8             	mov    rax,r13
    7d5a:	48 2b 05 1f 46 21 00 	sub    rax,QWORD PTR [rip+0x21461f]        # 21c380 <__static_tls_size>
    7d61:	4d 89 6d 00          	mov    QWORD PTR [r13+0x0],r13
    7d65:	41 8b 74 24 08       	mov    esi,DWORD PTR [r12+0x8]
    7d6a:	49 c7 85 e8 02 00 00 	mov    QWORD PTR [r13+0x2e8],0xffffffffffffffe0
    7d71:	e0 ff ff ff 
    7d75:	49 c7 85 f0 02 00 00 	mov    QWORD PTR [r13+0x2f0],0x0
    7d7c:	00 00 00 00 
    7d80:	48 8d 90 00 09 00 00 	lea    rdx,[rax+0x900]
    7d87:	48 8b 85 58 ff ff ff 	mov    rax,QWORD PTR [rbp-0xa8]
    7d8e:	89 f7                	mov    edi,esi
    7d90:	83 e7 9f             	and    edi,0xffffff9f
    7d93:	49 89 85 40 06 00 00 	mov    QWORD PTR [r13+0x640],rax
    7d9a:	48 8b 85 50 ff ff ff 	mov    rax,QWORD PTR [rbp-0xb0]
    7da1:	49 89 85 48 06 00 00 	mov    QWORD PTR [r13+0x648],rax
    7da8:	8b 81 0c 03 00 00    	mov    eax,DWORD PTR [rcx+0x30c]
    7dae:	83 e0 60             	and    eax,0x60
    7db1:	09 f8                	or     eax,edi
    7db3:	83 e6 01             	and    esi,0x1
    7db6:	be 00 00 00 00       	mov    esi,0x0
    7dbb:	49 0f 45 f5          	cmovne rsi,r13
    7dbf:	41 89 85 0c 03 00 00 	mov    DWORD PTR [r13+0x30c],eax
    7dc6:	49 89 b5 28 06 00 00 	mov    QWORD PTR [r13+0x628],rsi
    7dcd:	48 8b b1 50 06 00 00 	mov    rsi,QWORD PTR [rcx+0x650]
    7dd4:	49 89 b5 50 06 00 00 	mov    QWORD PTR [r13+0x650],rsi
    7ddb:	48 8b b1 58 06 00 00 	mov    rsi,QWORD PTR [rcx+0x658]
    7de2:	49 89 b5 58 06 00 00 	mov    QWORD PTR [r13+0x658],rsi
    7de9:	48 8b b1 60 06 00 00 	mov    rsi,QWORD PTR [rcx+0x660]
    7df0:	49 89 b5 60 06 00 00 	mov    QWORD PTR [r13+0x660],rsi
    7df7:	8b b1 3c 06 00 00    	mov    esi,DWORD PTR [rcx+0x63c]
    7dfd:	8b 89 38 06 00 00    	mov    ecx,DWORD PTR [rcx+0x638]
    7e03:	41 89 b5 3c 06 00 00 	mov    DWORD PTR [r13+0x63c],esi
    7e0a:	41 89 8d 38 06 00 00 	mov    DWORD PTR [r13+0x638],ecx
    7e11:	64 48 8b 0c 25 28 00 	mov    rcx,QWORD PTR fs:0x28
    7e18:	00 00 
    7e1a:	49 89 4d 28          	mov    QWORD PTR [r13+0x28],rcx
    7e1e:	64 48 8b 0c 25 30 00 	mov    rcx,QWORD PTR fs:0x30
    7e25:	00 00 
    7e27:	49 89 4d 30          	mov    QWORD PTR [r13+0x30],rcx
    7e2b:	64 8b 0c 25 08 03 00 	mov    ecx,DWORD PTR fs:0x308
    7e32:	00 
    7e33:	41 89 8d 14 06 00 00 	mov    DWORD PTR [r13+0x614],ecx
    7e3a:	41 8b 4c 24 08       	mov    ecx,DWORD PTR [r12+0x8]
    7e3f:	f6 c1 02             	test   cl,0x2
    7e42:	0f 85 32 07 00 00    	jne    857a <pthread_create@@GLIBC_2.2.5+0xbea>
    7e48:	48 8b 85 48 ff ff ff 	mov    rax,QWORD PTR [rbp-0xb8]
    7e4f:	4c 89 28             	mov    QWORD PTR [rax],r13
    7e52:	90                   	nop
    7e53:	f0 ff 05 fe 03 21 00 	lock inc DWORD PTR [rip+0x2103fe]        # 218258 <__nptl_nthreads>
    7e5a:	31 c0                	xor    eax,eax
    7e5c:	c6 45 8f 00          	mov    BYTE PTR [rbp-0x71],0x0
    7e60:	64 8a 04 25 11 06 00 	mov    al,BYTE PTR fs:0x611
    7e67:	00 
    7e68:	84 c0                	test   al,al
    7e6a:	4c 8d 45 8f          	lea    r8,[rbp-0x71]
    7e6e:	48 89 d1             	mov    rcx,rdx
    7e71:	0f 85 39 05 00 00    	jne    83b0 <pthread_create@@GLIBC_2.2.5+0xa20>
    7e77:	31 d2                	xor    edx,edx
    7e79:	4c 89 e6             	mov    rsi,r12
    7e7c:	4c 89 ef             	mov    rdi,r13
    7e7f:	e8 5c e2 ff ff       	call   60e0 <create_thread>
    7e84:	85 c0                	test   eax,eax
    7e86:	41 89 c0             	mov    r8d,eax
    7e89:	0f 85 be 06 00 00    	jne    854d <pthread_create@@GLIBC_2.2.5+0xbbd>
    7e8f:	41 80 bd 13 06 00 00 	cmp    BYTE PTR [r13+0x613],0x0
    7e96:	00 
    7e97:	75 74                	jne    7f0d <pthread_create@@GLIBC_2.2.5+0x57d>
    7e99:	64 c7 04 25 18 00 00 	mov    DWORD PTR fs:0x18,0x1
    7ea0:	00 01 00 00 00 
    7ea5:	45 31 c0             	xor    r8d,r8d
    7ea8:	80 bd 67 ff ff ff 00 	cmp    BYTE PTR [rbp-0x99],0x0
    7eaf:	44 89 c3             	mov    ebx,r8d
    7eb2:	75 4e                	jne    7f02 <pthread_create@@GLIBC_2.2.5+0x572>
    7eb4:	48 8d 65 d8          	lea    rsp,[rbp-0x28]
    7eb8:	89 d8                	mov    eax,ebx
    7eba:	5b                   	pop    rbx
    7ebb:	41 5c                	pop    r12
    7ebd:	41 5d                	pop    r13
    7ebf:	41 5e                	pop    r14
    7ec1:	41 5f                	pop    r15
    7ec3:	5d                   	pop    rbp
    7ec4:	c3                   	ret    
    7ec5:	41 f6 44 24 08 08    	test   BYTE PTR [r12+0x8],0x8
    7ecb:	0f 84 8a fb ff ff    	je     7a5b <pthread_create@@GLIBC_2.2.5+0xcb>
    7ed1:	49 8b 54 24 18       	mov    rdx,QWORD PTR [r12+0x18]
    7ed6:	48 89 f0             	mov    rax,rsi
    7ed9:	48 8b 1d a0 44 21 00 	mov    rbx,QWORD PTR [rip+0x2144a0]        # 21c380 <__static_tls_size>
    7ee0:	48 8d 8b 00 08 00 00 	lea    rcx,[rbx+0x800]
    7ee7:	48 39 c8             	cmp    rax,rcx
    7eea:	0f 83 46 01 00 00    	jae    8036 <pthread_create@@GLIBC_2.2.5+0x6a6>
    7ef0:	80 bd 67 ff ff ff 00 	cmp    BYTE PTR [rbp-0x99],0x0
    7ef7:	41 b8 16 00 00 00    	mov    r8d,0x16
    7efd:	44 89 c3             	mov    ebx,r8d
    7f00:	74 b2                	je     7eb4 <pthread_create@@GLIBC_2.2.5+0x524>
    7f02:	48 8b 7d b8          	mov    rdi,QWORD PTR [rbp-0x48]
    7f06:	e8 b5 d6 ff ff       	call   55c0 <free@plt>
    7f0b:	eb a7                	jmp    7eb4 <pthread_create@@GLIBC_2.2.5+0x524>
    7f0d:	f0 41 ff 8d 18 06 00 	lock dec DWORD PTR [r13+0x618]
    7f14:	00 
    7f15:	74 1a                	je     7f31 <pthread_create@@GLIBC_2.2.5+0x5a1>
    7f17:	49 8d bd 18 06 00 00 	lea    rdi,[r13+0x618]
    7f1e:	48 81 ec 80 00 00 00 	sub    rsp,0x80
    7f25:	e8 a6 83 00 00       	call   102d0 <__lll_unlock_wake_private>
    7f2a:	48 81 c4 80 00 00 00 	add    rsp,0x80
    7f31:	e9 63 ff ff ff       	jmp    7e99 <pthread_create@@GLIBC_2.2.5+0x509>
    7f36:	49 89 fd             	mov    r13,rdi
    7f39:	e9 e2 fb ff ff       	jmp    7b20 <pthread_create@@GLIBC_2.2.5+0x190>
    7f3e:	48 89 f0             	mov    rax,rsi
    7f41:	be 01 00 00 00       	mov    esi,0x1
    7f46:	f0 0f b1 35 72 43 21 	lock cmpxchg DWORD PTR [rip+0x214372],esi        # 21c2c0 <__default_pthread_attr_lock>
    7f4d:	00 
    7f4e:	74 1a                	je     7f6a <pthread_create@@GLIBC_2.2.5+0x5da>
    7f50:	48 8d 3d 69 43 21 00 	lea    rdi,[rip+0x214369]        # 21c2c0 <__default_pthread_attr_lock>
    7f57:	48 81 ec 80 00 00 00 	sub    rsp,0x80
    7f5e:	e8 bd 82 00 00       	call   10220 <__lll_lock_wait_private>
    7f63:	48 81 c4 80 00 00 00 	add    rsp,0x80
    7f6a:	48 8b 05 4f 44 21 00 	mov    rax,QWORD PTR [rip+0x21444f]        # 21c3c0 <__default_pthread_attr>
    7f71:	48 8b 1d 78 44 21 00 	mov    rbx,QWORD PTR [rip+0x214478]        # 21c3f0 <__default_pthread_attr+0x30>
    7f78:	48 89 45 90          	mov    QWORD PTR [rbp-0x70],rax
    7f7c:	48 8b 05 45 44 21 00 	mov    rax,QWORD PTR [rip+0x214445]        # 21c3c8 <__default_pthread_attr+0x8>
    7f83:	48 85 db             	test   rbx,rbx
    7f86:	48 89 5d c0          	mov    QWORD PTR [rbp-0x40],rbx
    7f8a:	48 89 45 98          	mov    QWORD PTR [rbp-0x68],rax
    7f8e:	48 8b 05 3b 44 21 00 	mov    rax,QWORD PTR [rip+0x21443b]        # 21c3d0 <__default_pthread_attr+0x10>
    7f95:	48 89 45 a0          	mov    QWORD PTR [rbp-0x60],rax
    7f99:	48 8b 05 38 44 21 00 	mov    rax,QWORD PTR [rip+0x214438]        # 21c3d8 <__default_pthread_attr+0x18>
    7fa0:	48 89 45 a8          	mov    QWORD PTR [rbp-0x58],rax
    7fa4:	48 8b 05 35 44 21 00 	mov    rax,QWORD PTR [rip+0x214435]        # 21c3e0 <__default_pthread_attr+0x20>
    7fab:	48 89 45 b0          	mov    QWORD PTR [rbp-0x50],rax
    7faf:	48 8b 05 32 44 21 00 	mov    rax,QWORD PTR [rip+0x214432]        # 21c3e8 <__default_pthread_attr+0x28>
    7fb6:	48 89 45 b8          	mov    QWORD PTR [rbp-0x48],rax
    7fba:	74 3b                	je     7ff7 <pthread_create@@GLIBC_2.2.5+0x667>
    7fbc:	48 81 fb 00 10 00 00 	cmp    rbx,0x1000
    7fc3:	0f 87 d8 06 00 00    	ja     86a1 <pthread_create@@GLIBC_2.2.5+0xd11>
    7fc9:	48 8d 43 1e          	lea    rax,[rbx+0x1e]
    7fcd:	c6 85 67 ff ff ff 00 	mov    BYTE PTR [rbp-0x99],0x0
    7fd4:	48 83 e0 f0          	and    rax,0xfffffffffffffff0
    7fd8:	48 29 c4             	sub    rsp,rax
    7fdb:	48 8d 4c 24 0f       	lea    rcx,[rsp+0xf]
    7fe0:	48 83 e1 f0          	and    rcx,0xfffffffffffffff0
    7fe4:	48 8b 75 b8          	mov    rsi,QWORD PTR [rbp-0x48]
    7fe8:	48 89 da             	mov    rdx,rbx
    7feb:	48 89 cf             	mov    rdi,rcx
    7fee:	e8 dd d7 ff ff       	call   57d0 <memcpy@plt>
    7ff3:	48 89 45 b8          	mov    QWORD PTR [rbp-0x48],rax
    7ff7:	f0 ff 0d c2 42 21 00 	lock dec DWORD PTR [rip+0x2142c2]        # 21c2c0 <__default_pthread_attr_lock>
    7ffe:	74 1a                	je     801a <pthread_create@@GLIBC_2.2.5+0x68a>
    8000:	48 8d 3d b9 42 21 00 	lea    rdi,[rip+0x2142b9]        # 21c2c0 <__default_pthread_attr_lock>
    8007:	48 81 ec 80 00 00 00 	sub    rsp,0x80
    800e:	e8 bd 82 00 00       	call   102d0 <__lll_unlock_wake_private>
    8013:	48 81 c4 80 00 00 00 	add    rsp,0x80
    801a:	4c 8d 65 90          	lea    r12,[rbp-0x70]
    801e:	e9 b0 f9 ff ff       	jmp    79d3 <pthread_create@@GLIBC_2.2.5+0x43>
    8023:	49 8b 44 24 20       	mov    rax,QWORD PTR [r12+0x20]
    8028:	49 8b 54 24 18       	mov    rdx,QWORD PTR [r12+0x18]
    802d:	48 85 c0             	test   rax,rax
    8030:	0f 85 a3 fe ff ff    	jne    7ed9 <pthread_create@@GLIBC_2.2.5+0x549>
    8036:	4c 8d 8a 00 f7 ff ff 	lea    r9,[rdx-0x900]
    803d:	4c 89 c8             	mov    rax,r9
    8040:	48 23 05 29 43 21 00 	and    rax,QWORD PTR [rip+0x214329]        # 21c370 <__static_tls_align_m1>
    8047:	48 8d 88 00 09 00 00 	lea    rcx,[rax+0x900]
    804e:	48 39 f1             	cmp    rcx,rsi
    8051:	0f 83 ed 05 00 00    	jae    8644 <pthread_create@@GLIBC_2.2.5+0xcb4>
    8057:	49 29 c1             	sub    r9,rax
    805a:	31 c0                	xor    eax,eax
    805c:	48 29 f2             	sub    rdx,rsi
    805f:	49 8d 79 08          	lea    rdi,[r9+0x8]
    8063:	4c 89 c9             	mov    rcx,r9
    8066:	49 c7 01 00 00 00 00 	mov    QWORD PTR [r9],0x0
    806d:	49 c7 81 f8 08 00 00 	mov    QWORD PTR [r9+0x8f8],0x0
    8074:	00 00 00 00 
    8078:	4d 89 cd             	mov    r13,r9
    807b:	48 83 e7 f8          	and    rdi,0xfffffffffffffff8
    807f:	48 29 f9             	sub    rcx,rdi
    8082:	81 c1 00 09 00 00    	add    ecx,0x900
    8088:	c1 e9 03             	shr    ecx,0x3
    808b:	f3 48 ab             	rep stos QWORD PTR es:[rdi],rax
    808e:	49 8d 81 10 03 00 00 	lea    rax,[r9+0x310]
    8095:	49 89 91 90 06 00 00 	mov    QWORD PTR [r9+0x690],rdx
    809c:	49 89 b1 98 06 00 00 	mov    QWORD PTR [r9+0x698],rsi
    80a3:	41 c6 81 12 06 00 00 	mov    BYTE PTR [r9+0x612],0x1
    80aa:	01 
    80ab:	41 c7 41 18 01 00 00 	mov    DWORD PTR [r9+0x18],0x1
    80b2:	00 
    80b3:	49 89 81 10 05 00 00 	mov    QWORD PTR [r9+0x510],rax
    80ba:	48 8b 05 b7 42 21 00 	mov    rax,QWORD PTR [rip+0x2142b7]        # 21c378 <__libc_multiple_threads_ptr>
    80c1:	c7 00 01 00 00 00    	mov    DWORD PTR [rax],0x1
    80c7:	c7 05 cf 42 21 00 01 	mov    DWORD PTR [rip+0x2142cf],0x1        # 21c3a0 <__pthread_multiple_threads>
    80ce:	00 00 00 
    80d1:	64 8b 04 25 d4 02 00 	mov    eax,DWORD PTR fs:0x2d4
    80d8:	00 
    80d9:	41 89 81 d4 02 00 00 	mov    DWORD PTR [r9+0x2d4],eax
    80e0:	41 c7 81 1c 06 00 00 	mov    DWORD PTR [r9+0x61c],0xffffffff
    80e7:	ff ff ff ff 
    80eb:	4c 89 cf             	mov    rdi,r9
    80ee:	e8 4d d8 ff ff       	call   5940 <_dl_allocate_tls@plt>
    80f3:	48 85 c0             	test   rax,rax
    80f6:	0f 84 39 06 00 00    	je     8735 <pthread_create@@GLIBC_2.2.5+0xda5>
    80fc:	be 01 00 00 00       	mov    esi,0x1
    8101:	31 c0                	xor    eax,eax
    8103:	f0 0f b1 35 dd 41 21 	lock cmpxchg DWORD PTR [rip+0x2141dd],esi        # 21c2e8 <stack_cache_lock>
    810a:	00 
    810b:	74 1a                	je     8127 <pthread_create@@GLIBC_2.2.5+0x797>
    810d:	48 8d 3d d4 41 21 00 	lea    rdi,[rip+0x2141d4]        # 21c2e8 <stack_cache_lock>
    8114:	48 81 ec 80 00 00 00 	sub    rsp,0x80
    811b:	e8 00 81 00 00       	call   10220 <__lll_lock_wait_private>
    8120:	48 81 c4 80 00 00 00 	add    rsp,0x80
    8127:	48 8b 15 a2 41 21 00 	mov    rdx,QWORD PTR [rip+0x2141a2]        # 21c2d0 <__GI___stack_user>
    812e:	49 8d 85 c0 02 00 00 	lea    rax,[r13+0x2c0]
    8135:	48 8d 1d 94 41 21 00 	lea    rbx,[rip+0x214194]        # 21c2d0 <__GI___stack_user>
    813c:	49 89 9d c8 02 00 00 	mov    QWORD PTR [r13+0x2c8],rbx
    8143:	49 89 95 c0 02 00 00 	mov    QWORD PTR [r13+0x2c0],rdx
    814a:	48 89 42 08          	mov    QWORD PTR [rdx+0x8],rax
    814e:	48 89 05 7b 41 21 00 	mov    QWORD PTR [rip+0x21417b],rax        # 21c2d0 <__GI___stack_user>
    8155:	f0 ff 0d 8c 41 21 00 	lock dec DWORD PTR [rip+0x21418c]        # 21c2e8 <stack_cache_lock>
    815c:	74 1a                	je     8178 <pthread_create@@GLIBC_2.2.5+0x7e8>
    815e:	48 8d 3d 83 41 21 00 	lea    rdi,[rip+0x214183]        # 21c2e8 <stack_cache_lock>
    8165:	48 81 ec 80 00 00 00 	sub    rsp,0x80
    816c:	e8 5f 81 00 00       	call   102d0 <__lll_unlock_wake_private>
    8171:	48 81 c4 80 00 00 00 	add    rsp,0x80
    8178:	e9 ad fb ff ff       	jmp    7d2a <pthread_create@@GLIBC_2.2.5+0x39a>
    817d:	44 89 95 38 ff ff ff 	mov    DWORD PTR [rbp-0xc8],r10d
    8184:	f0 ff 0d 5d 41 21 00 	lock dec DWORD PTR [rip+0x21415d]        # 21c2e8 <stack_cache_lock>
    818b:	74 1a                	je     81a7 <pthread_create@@GLIBC_2.2.5+0x817>
    818d:	48 8d 3d 54 41 21 00 	lea    rdi,[rip+0x214154]        # 21c2e8 <stack_cache_lock>
    8194:	48 81 ec 80 00 00 00 	sub    rsp,0x80
    819b:	e8 30 81 00 00       	call   102d0 <__lll_unlock_wake_private>
    81a0:	48 81 c4 80 00 00 00 	add    rsp,0x80
    81a7:	48 01 da             	add    rdx,rbx
    81aa:	66 85 db             	test   bx,bx
    81ad:	41 b8 ff ff ff ff    	mov    r8d,0xffffffff
    81b3:	48 0f 45 d3          	cmovne rdx,rbx
    81b7:	b9 22 00 02 00       	mov    ecx,0x20022
    81bc:	45 31 c9             	xor    r9d,r9d
    81bf:	48 89 d6             	mov    rsi,rdx
    81c2:	48 89 95 68 ff ff ff 	mov    QWORD PTR [rbp-0x98],rdx
    81c9:	8b 95 60 ff ff ff    	mov    edx,DWORD PTR [rbp-0xa0]
    81cf:	31 ff                	xor    edi,edi
    81d1:	e8 ca d4 ff ff       	call   56a0 <mmap@plt>
    81d6:	48 83 f8 ff          	cmp    rax,0xffffffffffffffff
    81da:	48 89 85 78 ff ff ff 	mov    QWORD PTR [rbp-0x88],rax
    81e1:	44 8b 95 38 ff ff ff 	mov    r10d,DWORD PTR [rbp-0xc8]
    81e8:	0f 84 d5 02 00 00    	je     84c3 <pthread_create@@GLIBC_2.2.5+0xb33>
    81ee:	48 83 bd 78 ff ff ff 	cmp    QWORD PTR [rbp-0x88],0x0
    81f5:	00 
    81f6:	0f 84 1a 05 00 00    	je     8716 <pthread_create@@GLIBC_2.2.5+0xd86>
    81fc:	48 8b 95 68 ff ff ff 	mov    rdx,QWORD PTR [rbp-0x98]
    8203:	44 89 95 38 ff ff ff 	mov    DWORD PTR [rbp-0xc8],r10d
    820a:	4c 8d ac 10 00 f7 ff 	lea    r13,[rax+rdx*1-0x900]
    8211:	ff 
    8212:	49 89 85 90 06 00 00 	mov    QWORD PTR [r13+0x690],rax
    8219:	49 8d 85 10 03 00 00 	lea    rax,[r13+0x310]
    8220:	49 89 95 98 06 00 00 	mov    QWORD PTR [r13+0x698],rdx
    8227:	41 c7 45 18 01 00 00 	mov    DWORD PTR [r13+0x18],0x1
    822e:	00 
    822f:	49 89 85 10 05 00 00 	mov    QWORD PTR [r13+0x510],rax
    8236:	48 8b 05 3b 41 21 00 	mov    rax,QWORD PTR [rip+0x21413b]        # 21c378 <__libc_multiple_threads_ptr>
    823d:	c7 00 01 00 00 00    	mov    DWORD PTR [rax],0x1
    8243:	c7 05 53 41 21 00 01 	mov    DWORD PTR [rip+0x214153],0x1        # 21c3a0 <__pthread_multiple_threads>
    824a:	00 00 00 
    824d:	41 c7 85 1c 06 00 00 	mov    DWORD PTR [r13+0x61c],0xffffffff
    8254:	ff ff ff ff 
    8258:	64 8b 04 25 d4 02 00 	mov    eax,DWORD PTR fs:0x2d4
    825f:	00 
    8260:	41 89 85 d4 02 00 00 	mov    DWORD PTR [r13+0x2d4],eax
    8267:	4c 89 ef             	mov    rdi,r13
    826a:	e8 d1 d6 ff ff       	call   5940 <_dl_allocate_tls@plt>
    826f:	48 85 c0             	test   rax,rax
    8272:	44 8b 95 38 ff ff ff 	mov    r10d,DWORD PTR [rbp-0xc8]
    8279:	0f 84 e6 04 00 00    	je     8765 <pthread_create@@GLIBC_2.2.5+0xdd5>
    827f:	be 01 00 00 00       	mov    esi,0x1
    8284:	31 c0                	xor    eax,eax
    8286:	f0 0f b1 35 5a 40 21 	lock cmpxchg DWORD PTR [rip+0x21405a],esi        # 21c2e8 <stack_cache_lock>
    828d:	00 
    828e:	74 1a                	je     82aa <pthread_create@@GLIBC_2.2.5+0x91a>
    8290:	48 8d 3d 51 40 21 00 	lea    rdi,[rip+0x214051]        # 21c2e8 <stack_cache_lock>
    8297:	48 81 ec 80 00 00 00 	sub    rsp,0x80
    829e:	e8 7d 7f 00 00       	call   10220 <__lll_lock_wait_private>
    82a3:	48 81 c4 80 00 00 00 	add    rsp,0x80
    82aa:	4d 8d b5 c0 02 00 00 	lea    r14,[r13+0x2c0]
    82b1:	4c 89 f0             	mov    rax,r14
    82b4:	4c 89 b5 38 ff ff ff 	mov    QWORD PTR [rbp-0xc8],r14
    82bb:	48 83 c8 01          	or     rax,0x1
    82bf:	48 89 05 1a 40 21 00 	mov    QWORD PTR [rip+0x21401a],rax        # 21c2e0 <in_flight_stack>
    82c6:	48 8b 05 93 ff 20 00 	mov    rax,QWORD PTR [rip+0x20ff93]        # 218260 <stack_used>
    82cd:	48 8d 3d 8c ff 20 00 	lea    rdi,[rip+0x20ff8c]        # 218260 <stack_used>
    82d4:	49 89 bd c8 02 00 00 	mov    QWORD PTR [r13+0x2c8],rdi
    82db:	49 89 85 c0 02 00 00 	mov    QWORD PTR [r13+0x2c0],rax
    82e2:	4c 89 70 08          	mov    QWORD PTR [rax+0x8],r14
    82e6:	4c 89 35 73 ff 20 00 	mov    QWORD PTR [rip+0x20ff73],r14        # 218260 <stack_used>
    82ed:	48 c7 05 e8 3f 21 00 	mov    QWORD PTR [rip+0x213fe8],0x0        # 21c2e0 <in_flight_stack>
    82f4:	00 00 00 00 
    82f8:	f0 ff 0d e9 3f 21 00 	lock dec DWORD PTR [rip+0x213fe9]        # 21c2e8 <stack_cache_lock>
    82ff:	74 1a                	je     831b <pthread_create@@GLIBC_2.2.5+0x98b>
    8301:	48 8d 3d e0 3f 21 00 	lea    rdi,[rip+0x213fe0]        # 21c2e8 <stack_cache_lock>
    8308:	48 81 ec 80 00 00 00 	sub    rsp,0x80
    830f:	e8 bc 7f 00 00       	call   102d0 <__lll_unlock_wake_private>
    8314:	48 81 c4 80 00 00 00 	add    rsp,0x80
    831b:	48 8b 05 b6 fc 20 00 	mov    rax,QWORD PTR [rip+0x20fcb6]        # 217fd8 <_DYNAMIC+0x288>
    8322:	f6 80 20 0f 00 00 01 	test   BYTE PTR [rax+0xf20],0x1
    8329:	0f 84 bf f9 ff ff    	je     7cee <pthread_create@@GLIBC_2.2.5+0x35e>
    832f:	45 85 d2             	test   r10d,r10d
    8332:	0f 85 b6 f9 ff ff    	jne    7cee <pthread_create@@GLIBC_2.2.5+0x35e>
    8338:	49 8b 85 a0 06 00 00 	mov    rax,QWORD PTR [r13+0x6a0]
    833f:	49 8b b5 98 06 00 00 	mov    rsi,QWORD PTR [r13+0x698]
    8346:	ba 07 00 00 00       	mov    edx,0x7
    834b:	48 29 c6             	sub    rsi,rax
    834e:	49 03 85 90 06 00 00 	add    rax,QWORD PTR [r13+0x690]
    8355:	48 89 c7             	mov    rdi,rax
    8358:	e8 a3 d5 ff ff       	call   5900 <mprotect@plt>
    835d:	85 c0                	test   eax,eax
    835f:	0f 84 89 f9 ff ff    	je     7cee <pthread_create@@GLIBC_2.2.5+0x35e>
    8365:	48 8b 05 1c fc 20 00 	mov    rax,QWORD PTR [rip+0x20fc1c]        # 217f88 <_DYNAMIC+0x238>
    836c:	64 44 8b 00          	mov    r8d,DWORD PTR fs:[rax]
    8370:	45 85 c0             	test   r8d,r8d
    8373:	0f 84 75 f9 ff ff    	je     7cee <pthread_create@@GLIBC_2.2.5+0x35e>
    8379:	48 8b b5 68 ff ff ff 	mov    rsi,QWORD PTR [rbp-0x98]
    8380:	48 8b bd 78 ff ff ff 	mov    rdi,QWORD PTR [rbp-0x88]
    8387:	44 89 85 70 ff ff ff 	mov    DWORD PTR [rbp-0x90],r8d
    838e:	e8 3d d5 ff ff       	call   58d0 <munmap@plt>
    8393:	44 8b 85 70 ff ff ff 	mov    r8d,DWORD PTR [rbp-0x90]
    839a:	41 83 f8 0c          	cmp    r8d,0xc
    839e:	0f 84 cb 01 00 00    	je     856f <pthread_create@@GLIBC_2.2.5+0xbdf>
    83a4:	e9 ff fa ff ff       	jmp    7ea8 <pthread_create@@GLIBC_2.2.5+0x518>
    83a9:	0f 1f 80 00 00 00 00 	nop    DWORD PTR [rax+0x0]
    83b0:	8b 05 4a 3f 21 00    	mov    eax,DWORD PTR [rip+0x213f4a]        # 21c300 <__nptl_threads_events>
    83b6:	41 0b 85 50 06 00 00 	or     eax,DWORD PTR [r13+0x650]
    83bd:	a8 80                	test   al,0x80
    83bf:	0f 84 b2 fa ff ff    	je     7e77 <pthread_create@@GLIBC_2.2.5+0x4e7>
    83c5:	ba 01 00 00 00       	mov    edx,0x1
    83ca:	4c 89 e6             	mov    rsi,r12
    83cd:	4c 89 ef             	mov    rdi,r13
    83d0:	e8 0b dd ff ff       	call   60e0 <create_thread>
    83d5:	85 c0                	test   eax,eax
    83d7:	41 89 c0             	mov    r8d,eax
    83da:	0f 85 6d 01 00 00    	jne    854d <pthread_create@@GLIBC_2.2.5+0xbbd>
    83e0:	41 80 bd 13 06 00 00 	cmp    BYTE PTR [r13+0x613],0x0
    83e7:	00 
    83e8:	0f 84 a0 03 00 00    	je     878e <pthread_create@@GLIBC_2.2.5+0xdfe>
    83ee:	41 c7 85 58 06 00 00 	mov    DWORD PTR [r13+0x658],0x8
    83f5:	08 00 00 00 
    83f9:	4d 89 ad 60 06 00 00 	mov    QWORD PTR [r13+0x660],r13
    8400:	48 8b 05 f1 3e 21 00 	mov    rax,QWORD PTR [rip+0x213ef1]        # 21c2f8 <__nptl_last_event>
    8407:	49 89 85 68 06 00 00 	mov    QWORD PTR [r13+0x668],rax
    840e:	f0 4c 0f b1 2d e1 3e 	lock cmpxchg QWORD PTR [rip+0x213ee1],r13        # 21c2f8 <__nptl_last_event>
    8415:	21 00 
    8417:	75 e7                	jne    8400 <pthread_create@@GLIBC_2.2.5+0xa70>
    8419:	e8 72 dc ff ff       	call   6090 <__GI___nptl_create_event>
    841e:	e9 6c fa ff ff       	jmp    7e8f <pthread_create@@GLIBC_2.2.5+0x4ff>
    8423:	be 01 00 00 00       	mov    esi,0x1
    8428:	31 c0                	xor    eax,eax
    842a:	f0 0f b1 35 b6 3e 21 	lock cmpxchg DWORD PTR [rip+0x213eb6],esi        # 21c2e8 <stack_cache_lock>
    8431:	00 
    8432:	74 1a                	je     844e <pthread_create@@GLIBC_2.2.5+0xabe>
    8434:	48 8d 3d ad 3e 21 00 	lea    rdi,[rip+0x213ead]        # 21c2e8 <stack_cache_lock>
    843b:	48 81 ec 80 00 00 00 	sub    rsp,0x80
    8442:	e8 d9 7d 00 00       	call   10220 <__lll_lock_wait_private>
    8447:	48 81 c4 80 00 00 00 	add    rsp,0x80
    844e:	48 8b 85 38 ff ff ff 	mov    rax,QWORD PTR [rbp-0xc8]
    8455:	48 89 05 84 3e 21 00 	mov    QWORD PTR [rip+0x213e84],rax        # 21c2e0 <in_flight_stack>
    845c:	49 8b 95 c8 02 00 00 	mov    rdx,QWORD PTR [r13+0x2c8]
    8463:	49 8b 85 c0 02 00 00 	mov    rax,QWORD PTR [r13+0x2c0]
    846a:	48 89 50 08          	mov    QWORD PTR [rax+0x8],rdx
    846e:	49 8b 95 c8 02 00 00 	mov    rdx,QWORD PTR [r13+0x2c8]
    8475:	48 89 02             	mov    QWORD PTR [rdx],rax
    8478:	48 c7 05 5d 3e 21 00 	mov    QWORD PTR [rip+0x213e5d],0x0        # 21c2e0 <in_flight_stack>
    847f:	00 00 00 00 
    8483:	f0 ff 0d 5e 3e 21 00 	lock dec DWORD PTR [rip+0x213e5e]        # 21c2e8 <stack_cache_lock>
    848a:	74 1a                	je     84a6 <pthread_create@@GLIBC_2.2.5+0xb16>
    848c:	48 8d 3d 55 3e 21 00 	lea    rdi,[rip+0x213e55]        # 21c2e8 <stack_cache_lock>
    8493:	48 81 ec 80 00 00 00 	sub    rsp,0x80
    849a:	e8 31 7e 00 00       	call   102d0 <__lll_unlock_wake_private>
    849f:	48 81 c4 80 00 00 00 	add    rsp,0x80
    84a6:	31 f6                	xor    esi,esi
    84a8:	4c 89 ef             	mov    rdi,r13
    84ab:	e8 70 d2 ff ff       	call   5720 <_dl_deallocate_tls@plt>
    84b0:	48 8b b5 68 ff ff ff 	mov    rsi,QWORD PTR [rbp-0x98]
    84b7:	48 8b bd 78 ff ff ff 	mov    rdi,QWORD PTR [rbp-0x88]
    84be:	e8 0d d4 ff ff       	call   58d0 <munmap@plt>
    84c3:	48 8b 05 be fa 20 00 	mov    rax,QWORD PTR [rip+0x20fabe]        # 217f88 <_DYNAMIC+0x238>
    84ca:	64 44 8b 00          	mov    r8d,DWORD PTR fs:[rax]
    84ce:	45 85 c0             	test   r8d,r8d
    84d1:	0f 85 c3 fe ff ff    	jne    839a <pthread_create@@GLIBC_2.2.5+0xa0a>
    84d7:	48 c7 04 25 10 00 00 	mov    QWORD PTR ds:0x10,0x0
    84de:	00 00 00 00 00 
    84e3:	0f 0b                	ud2    
    84e5:	48 8b b5 70 ff ff ff 	mov    rsi,QWORD PTR [rbp-0x90]
    84ec:	48 8b bd 78 ff ff ff 	mov    rdi,QWORD PTR [rbp-0x88]
    84f3:	31 d2                	xor    edx,edx
    84f5:	e8 06 d4 ff ff       	call   5900 <mprotect@plt>
    84fa:	85 c0                	test   eax,eax
    84fc:	0f 85 21 ff ff ff    	jne    8423 <pthread_create@@GLIBC_2.2.5+0xa93>
    8502:	48 8b 85 70 ff ff ff 	mov    rax,QWORD PTR [rbp-0x90]
    8509:	49 89 85 a0 06 00 00 	mov    QWORD PTR [r13+0x6a0],rax
    8510:	e9 07 f8 ff ff       	jmp    7d1c <pthread_create@@GLIBC_2.2.5+0x38c>
    8515:	48 8b bd 78 ff ff ff 	mov    rdi,QWORD PTR [rbp-0x88]
    851c:	48 8b 9d 70 ff ff ff 	mov    rbx,QWORD PTR [rbp-0x90]
    8523:	8b 95 60 ff ff ff    	mov    edx,DWORD PTR [rbp-0xa0]
    8529:	48 01 df             	add    rdi,rbx
    852c:	e8 cf d3 ff ff       	call   5900 <mprotect@plt>
    8531:	85 c0                	test   eax,eax
    8533:	0f 85 ea fe ff ff    	jne    8423 <pthread_create@@GLIBC_2.2.5+0xa93>
    8539:	49 89 9d a0 06 00 00 	mov    QWORD PTR [r13+0x6a0],rbx
    8540:	e9 d7 f7 ff ff       	jmp    7d1c <pthread_create@@GLIBC_2.2.5+0x38c>
    8545:	49 89 fd             	mov    r13,rdi
    8548:	e9 1a f6 ff ff       	jmp    7b67 <pthread_create@@GLIBC_2.2.5+0x1d7>
    854d:	80 7d 8f 00          	cmp    BYTE PTR [rbp-0x71],0x0
    8551:	0f 84 b9 00 00 00    	je     8610 <pthread_create@@GLIBC_2.2.5+0xc80>
    8557:	41 80 bd 13 06 00 00 	cmp    BYTE PTR [r13+0x613],0x0
    855e:	00 
    855f:	0f 84 67 02 00 00    	je     87cc <pthread_create@@GLIBC_2.2.5+0xe3c>
    8565:	41 83 f8 0c          	cmp    r8d,0xc
    8569:	0f 85 39 f9 ff ff    	jne    7ea8 <pthread_create@@GLIBC_2.2.5+0x518>
    856f:	41 b8 0b 00 00 00    	mov    r8d,0xb
    8575:	e9 2e f9 ff ff       	jmp    7ea8 <pthread_create@@GLIBC_2.2.5+0x518>
    857a:	f6 c1 60             	test   cl,0x60
    857d:	0f 84 c5 f8 ff ff    	je     7e48 <pthread_create@@GLIBC_2.2.5+0x4b8>
    8583:	f6 c1 40             	test   cl,0x40
    8586:	74 16                	je     859e <pthread_create@@GLIBC_2.2.5+0xc0e>
    8588:	41 8b 74 24 04       	mov    esi,DWORD PTR [r12+0x4]
    858d:	83 c8 40             	or     eax,0x40
    8590:	41 89 85 0c 03 00 00 	mov    DWORD PTR [r13+0x30c],eax
    8597:	41 89 b5 3c 06 00 00 	mov    DWORD PTR [r13+0x63c],esi
    859e:	83 e1 20             	and    ecx,0x20
    85a1:	74 15                	je     85b8 <pthread_create@@GLIBC_2.2.5+0xc28>
    85a3:	41 8b 0c 24          	mov    ecx,DWORD PTR [r12]
    85a7:	83 c8 20             	or     eax,0x20
    85aa:	41 89 85 0c 03 00 00 	mov    DWORD PTR [r13+0x30c],eax
    85b1:	41 89 8d 38 06 00 00 	mov    DWORD PTR [r13+0x638],ecx
    85b8:	89 c1                	mov    ecx,eax
    85ba:	83 e1 60             	and    ecx,0x60
    85bd:	83 f9 60             	cmp    ecx,0x60
    85c0:	0f 84 82 f8 ff ff    	je     7e48 <pthread_create@@GLIBC_2.2.5+0x4b8>
    85c6:	a8 40                	test   al,0x40
    85c8:	75 21                	jne    85eb <pthread_create@@GLIBC_2.2.5+0xc5b>
    85ca:	31 ff                	xor    edi,edi
    85cc:	b8 91 00 00 00       	mov    eax,0x91
    85d1:	0f 05                	syscall 
    85d3:	41 89 85 3c 06 00 00 	mov    DWORD PTR [r13+0x63c],eax
    85da:	41 8b 85 0c 03 00 00 	mov    eax,DWORD PTR [r13+0x30c]
    85e1:	83 c8 40             	or     eax,0x40
    85e4:	41 89 85 0c 03 00 00 	mov    DWORD PTR [r13+0x30c],eax
    85eb:	a8 20                	test   al,0x20
    85ed:	0f 85 55 f8 ff ff    	jne    7e48 <pthread_create@@GLIBC_2.2.5+0x4b8>
    85f3:	49 8d b5 38 06 00 00 	lea    rsi,[r13+0x638]
    85fa:	31 ff                	xor    edi,edi
    85fc:	b8 8f 00 00 00       	mov    eax,0x8f
    8601:	0f 05                	syscall 
    8603:	41 83 8d 0c 03 00 00 	or     DWORD PTR [r13+0x30c],0x20
    860a:	20 
    860b:	e9 38 f8 ff ff       	jmp    7e48 <pthread_create@@GLIBC_2.2.5+0x4b8>
    8610:	f0 ff 0d 41 fc 20 00 	lock dec DWORD PTR [rip+0x20fc41]        # 218258 <__nptl_nthreads>
    8617:	31 c0                	xor    eax,eax
    8619:	41 87 85 1c 06 00 00 	xchg   DWORD PTR [r13+0x61c],eax
    8620:	83 f8 fe             	cmp    eax,0xfffffffe
    8623:	0f 84 a8 00 00 00    	je     86d1 <pthread_create@@GLIBC_2.2.5+0xd41>
    8629:	4c 89 ef             	mov    rdi,r13
    862c:	44 89 85 78 ff ff ff 	mov    DWORD PTR [rbp-0x88],r8d
    8633:	e8 88 df ff ff       	call   65c0 <__deallocate_stack>
    8638:	44 8b 85 78 ff ff ff 	mov    r8d,DWORD PTR [rbp-0x88]
    863f:	e9 21 ff ff ff       	jmp    8565 <pthread_create@@GLIBC_2.2.5+0xbd5>
    8644:	48 8d 0d 65 a6 00 00 	lea    rcx,[rip+0xa665]        # 12cb0 <__PRETTY_FUNCTION__.11764>
    864b:	48 8d 35 6d a6 00 00 	lea    rsi,[rip+0xa66d]        # 12cbf <__PRETTY_FUNCTION__.11764+0xf>
    8652:	48 8d 3d b8 a6 00 00 	lea    rdi,[rip+0xa6b8]        # 12d11 <__PRETTY_FUNCTION__.11764+0x61>
    8659:	ba 8b 01 00 00       	mov    edx,0x18b
    865e:	e8 6d d0 ff ff       	call   56d0 <__assert_fail@plt>
    8663:	48 8d 0d 46 a6 00 00 	lea    rcx,[rip+0xa646]        # 12cb0 <__PRETTY_FUNCTION__.11764>
    866a:	48 8d 35 4e a6 00 00 	lea    rsi,[rip+0xa64e]        # 12cbf <__PRETTY_FUNCTION__.11764+0xf>
    8671:	48 8d 3d 7e a6 00 00 	lea    rdi,[rip+0xa67e]        # 12cf6 <__PRETTY_FUNCTION__.11764+0x46>
    8678:	ba 65 01 00 00       	mov    edx,0x165
    867d:	e8 4e d0 ff ff       	call   56d0 <__assert_fail@plt>
    8682:	48 8d 0d 27 a6 00 00 	lea    rcx,[rip+0xa627]        # 12cb0 <__PRETTY_FUNCTION__.11764>
    8689:	48 8d 35 2f a6 00 00 	lea    rsi,[rip+0xa62f]        # 12cbf <__PRETTY_FUNCTION__.11764+0xf>
    8690:	48 8d 3d a4 a6 00 00 	lea    rdi,[rip+0xa6a4]        # 12d3b <__PRETTY_FUNCTION__.11764+0x8b>
    8697:	ba e7 01 00 00       	mov    edx,0x1e7
    869c:	e8 2f d0 ff ff       	call   56d0 <__assert_fail@plt>
    86a1:	48 89 df             	mov    rdi,rbx
    86a4:	e8 27 d3 ff ff       	call   59d0 <__libc_alloca_cutoff@plt>
    86a9:	85 c0                	test   eax,eax
    86ab:	0f 85 18 f9 ff ff    	jne    7fc9 <pthread_create@@GLIBC_2.2.5+0x639>
    86b1:	48 89 df             	mov    rdi,rbx
    86b4:	e8 87 d1 ff ff       	call   5840 <malloc@plt>
    86b9:	48 85 c0             	test   rax,rax
    86bc:	48 89 c1             	mov    rcx,rax
    86bf:	0f 84 26 01 00 00    	je     87eb <pthread_create@@GLIBC_2.2.5+0xe5b>
    86c5:	c6 85 67 ff ff ff 01 	mov    BYTE PTR [rbp-0x99],0x1
    86cc:	e9 13 f9 ff ff       	jmp    7fe4 <pthread_create@@GLIBC_2.2.5+0x654>
    86d1:	45 31 d2             	xor    r10d,r10d
    86d4:	ba 01 00 00 00       	mov    edx,0x1
    86d9:	be 81 00 00 00       	mov    esi,0x81
    86de:	49 8d bd 1c 06 00 00 	lea    rdi,[r13+0x61c]
    86e5:	b8 ca 00 00 00       	mov    eax,0xca
    86ea:	0f 05                	syscall 
    86ec:	48 3d 00 f0 ff ff    	cmp    rax,0xfffffffffffff000
    86f2:	0f 86 31 ff ff ff    	jbe    8629 <pthread_create@@GLIBC_2.2.5+0xc99>
    86f8:	83 f8 ea             	cmp    eax,0xffffffea
    86fb:	0f 84 28 ff ff ff    	je     8629 <pthread_create@@GLIBC_2.2.5+0xc99>
    8701:	83 f8 f2             	cmp    eax,0xfffffff2
    8704:	0f 84 1f ff ff ff    	je     8629 <pthread_create@@GLIBC_2.2.5+0xc99>
    870a:	48 8d 3d cf a3 00 00 	lea    rdi,[rip+0xa3cf]        # 12ae0 <_fini+0xc>
    8711:	e8 1a cf ff ff       	call   5630 <__libc_fatal@plt>
    8716:	48 8d 0d 93 a5 00 00 	lea    rcx,[rip+0xa593]        # 12cb0 <__PRETTY_FUNCTION__.11764>
    871d:	48 8d 35 9b a5 00 00 	lea    rsi,[rip+0xa59b]        # 12cbf <__PRETTY_FUNCTION__.11764+0xf>
    8724:	48 8d 3d 1a a6 00 00 	lea    rdi,[rip+0xa61a]        # 12d45 <__PRETTY_FUNCTION__.11764+0x95>
    872b:	ba 09 02 00 00       	mov    edx,0x209
    8730:	e8 9b cf ff ff       	call   56d0 <__assert_fail@plt>
    8735:	48 8b 05 4c f8 20 00 	mov    rax,QWORD PTR [rip+0x20f84c]        # 217f88 <_DYNAMIC+0x238>
    873c:	64 83 38 0c          	cmp    DWORD PTR fs:[rax],0xc
    8740:	0f 84 29 fe ff ff    	je     856f <pthread_create@@GLIBC_2.2.5+0xbdf>
    8746:	48 8d 0d 63 a5 00 00 	lea    rcx,[rip+0xa563]        # 12cb0 <__PRETTY_FUNCTION__.11764>
    874d:	48 8d 35 6b a5 00 00 	lea    rsi,[rip+0xa56b]        # 12cbf <__PRETTY_FUNCTION__.11764+0xf>
    8754:	48 8d 3d d0 a5 00 00 	lea    rdi,[rip+0xa5d0]        # 12d2b <__PRETTY_FUNCTION__.11764+0x7b>
    875b:	ba c7 01 00 00       	mov    edx,0x1c7
    8760:	e8 6b cf ff ff       	call   56d0 <__assert_fail@plt>
    8765:	48 8b 1d 1c f8 20 00 	mov    rbx,QWORD PTR [rip+0x20f81c]        # 217f88 <_DYNAMIC+0x238>
    876c:	64 83 3b 0c          	cmp    DWORD PTR fs:[rbx],0xc
    8770:	75 3b                	jne    87ad <pthread_create@@GLIBC_2.2.5+0xe1d>
    8772:	48 8b b5 68 ff ff ff 	mov    rsi,QWORD PTR [rbp-0x98]
    8779:	48 8b bd 78 ff ff ff 	mov    rdi,QWORD PTR [rbp-0x88]
    8780:	e8 4b d1 ff ff       	call   58d0 <munmap@plt>
    8785:	64 44 8b 03          	mov    r8d,DWORD PTR fs:[rbx]
    8789:	e9 40 fd ff ff       	jmp    84ce <pthread_create@@GLIBC_2.2.5+0xb3e>
    878e:	48 8d 0d db a5 00 00 	lea    rcx,[rip+0xa5db]        # 12d70 <__PRETTY_FUNCTION__.12225>
    8795:	48 8d 35 49 a5 00 00 	lea    rsi,[rip+0xa549]        # 12ce5 <__PRETTY_FUNCTION__.11764+0x35>
    879c:	48 8d 3d ae a5 00 00 	lea    rdi,[rip+0xa5ae]        # 12d51 <__PRETTY_FUNCTION__.11764+0xa1>
    87a3:	ba 92 02 00 00       	mov    edx,0x292
    87a8:	e8 23 cf ff ff       	call   56d0 <__assert_fail@plt>
    87ad:	48 8d 0d fc a4 00 00 	lea    rcx,[rip+0xa4fc]        # 12cb0 <__PRETTY_FUNCTION__.11764>
    87b4:	48 8d 35 04 a5 00 00 	lea    rsi,[rip+0xa504]        # 12cbf <__PRETTY_FUNCTION__.11764+0xf>
    87bb:	48 8d 3d 69 a5 00 00 	lea    rdi,[rip+0xa569]        # 12d2b <__PRETTY_FUNCTION__.11764+0x7b>
    87c2:	ba 4f 02 00 00       	mov    edx,0x24f
    87c7:	e8 04 cf ff ff       	call   56d0 <__assert_fail@plt>
    87cc:	48 8d 0d 9d a5 00 00 	lea    rcx,[rip+0xa59d]        # 12d70 <__PRETTY_FUNCTION__.12225>
    87d3:	48 8d 35 0b a5 00 00 	lea    rsi,[rip+0xa50b]        # 12ce5 <__PRETTY_FUNCTION__.11764+0x35>
    87da:	48 8d 3d 70 a5 00 00 	lea    rdi,[rip+0xa570]        # 12d51 <__PRETTY_FUNCTION__.11764+0xa1>
    87e1:	ba b3 02 00 00       	mov    edx,0x2b3
    87e6:	e8 e5 ce ff ff       	call   56d0 <__assert_fail@plt>
    87eb:	f0 ff 0d ce 3a 21 00 	lock dec DWORD PTR [rip+0x213ace]        # 21c2c0 <__default_pthread_attr_lock>
    87f2:	74 1a                	je     880e <pthread_create@@GLIBC_2.2.5+0xe7e>
    87f4:	48 8d 3d c5 3a 21 00 	lea    rdi,[rip+0x213ac5]        # 21c2c0 <__default_pthread_attr_lock>
    87fb:	48 81 ec 80 00 00 00 	sub    rsp,0x80
    8802:	e8 c9 7a 00 00       	call   102d0 <__lll_unlock_wake_private>
    8807:	48 81 c4 80 00 00 00 	add    rsp,0x80
    880e:	bb 0c 00 00 00       	mov    ebx,0xc
    8813:	e9 9c f6 ff ff       	jmp    7eb4 <pthread_create@@GLIBC_2.2.5+0x524>
    8818:	0f 1f 84 00 00 00 00 	nop    DWORD PTR [rax+rax*1+0x0]
    881f:	00 

0000000000008820 <pthread_exit>:
    8820:	48 83 ec 08          	sub    rsp,0x8
    8824:	64 48 89 3c 25 30 06 	mov    QWORD PTR fs:0x630,rdi
    882b:	00 00 
    882d:	f0 64 83 0c 25 08 03 	lock or DWORD PTR fs:0x308,0x10
    8834:	00 00 10 
    8837:	64 48 8b 3c 25 00 03 	mov    rdi,QWORD PTR fs:0x300
    883e:	00 00 
    8840:	e8 eb 77 00 00       	call   10030 <__pthread_unwind>
    8845:	66 2e 0f 1f 84 00 00 	nop    WORD PTR cs:[rax+rax*1+0x0]
    884c:	00 00 00 
    884f:	90                   	nop

0000000000008850 <pthread_detach>:
    8850:	48 85 ff             	test   rdi,rdi
    8853:	74 33                	je     8888 <pthread_detach+0x38>
    8855:	8b 8f d0 02 00 00    	mov    ecx,DWORD PTR [rdi+0x2d0]
    885b:	85 c9                	test   ecx,ecx
    885d:	78 29                	js     8888 <pthread_detach+0x38>
    885f:	31 c0                	xor    eax,eax
    8861:	f0 48 0f b1 bf 28 06 	lock cmpxchg QWORD PTR [rdi+0x628],rdi
    8868:	00 00 
    886a:	74 22                	je     888e <pthread_detach+0x3e>
    886c:	48 39 bf 28 06 00 00 	cmp    QWORD PTR [rdi+0x628],rdi
    8873:	ba 16 00 00 00       	mov    edx,0x16
    8878:	b8 00 00 00 00       	mov    eax,0x0
    887d:	0f 44 c2             	cmove  eax,edx
    8880:	c3                   	ret    
    8881:	0f 1f 80 00 00 00 00 	nop    DWORD PTR [rax+0x0]
    8888:	b8 03 00 00 00       	mov    eax,0x3
    888d:	c3                   	ret    
    888e:	8b 87 08 03 00 00    	mov    eax,DWORD PTR [rdi+0x308]
    8894:	83 e0 10             	and    eax,0x10
    8897:	75 01                	jne    889a <pthread_detach+0x4a>
    8899:	c3                   	ret    
    889a:	50                   	push   rax
    889b:	e8 60 eb ff ff       	call   7400 <__free_tcb>
    88a0:	31 c0                	xor    eax,eax
    88a2:	5a                   	pop    rdx
    88a3:	eb f4                	jmp    8899 <pthread_detach+0x49>
    88a5:	66 2e 0f 1f 84 00 00 	nop    WORD PTR cs:[rax+rax*1+0x0]
    88ac:	00 00 00 
    88af:	90                   	nop

00000000000088b0 <cleanup>:
    88b0:	31 d2                	xor    edx,edx
    88b2:	64 48 8b 04 25 10 00 	mov    rax,QWORD PTR fs:0x10
    88b9:	00 00 
    88bb:	f0 48 0f b1 17       	lock cmpxchg QWORD PTR [rdi],rdx
    88c0:	c3                   	ret    
    88c1:	0f 1f 44 00 00       	nop    DWORD PTR [rax+rax*1+0x0]
    88c6:	66 2e 0f 1f 84 00 00 	nop    WORD PTR cs:[rax+rax*1+0x0]
    88cd:	00 00 00 

00000000000088d0 <pthread_join>:
    88d0:	48 85 ff             	test   rdi,rdi
    88d3:	0f 84 07 01 00 00    	je     89e0 <pthread_join+0x110>
    88d9:	8b 87 d0 02 00 00    	mov    eax,DWORD PTR [rdi+0x2d0]
    88df:	85 c0                	test   eax,eax
    88e1:	0f 88 f9 00 00 00    	js     89e0 <pthread_join+0x110>
    88e7:	48 3b bf 28 06 00 00 	cmp    rdi,QWORD PTR [rdi+0x628]
    88ee:	b8 16 00 00 00       	mov    eax,0x16
    88f3:	0f 84 e4 00 00 00    	je     89dd <pthread_join+0x10d>
    88f9:	41 57                	push   r15
    88fb:	41 56                	push   r14
    88fd:	41 55                	push   r13
    88ff:	41 54                	push   r12
    8901:	55                   	push   rbp
    8902:	53                   	push   rbx
    8903:	48 89 f5             	mov    rbp,rsi
    8906:	48 89 fb             	mov    rbx,rdi
    8909:	48 83 ec 38          	sub    rsp,0x38
    890d:	64 4c 8b 34 25 10 00 	mov    r14,QWORD PTR fs:0x10
    8914:	00 00 
    8916:	90                   	nop
    8917:	4c 8d bf 28 06 00 00 	lea    r15,[rdi+0x628]
    891e:	4c 8d 64 24 10       	lea    r12,[rsp+0x10]
    8923:	48 8d 35 86 ff ff ff 	lea    rsi,[rip+0xffffffffffffff86]        # 88b0 <cleanup>
    892a:	4c 89 fa             	mov    rdx,r15
    892d:	4c 89 e7             	mov    rdi,r12
    8930:	e8 5b 74 00 00       	call   fd90 <_pthread_cleanup_push>
    8935:	e8 26 78 00 00       	call   10160 <__pthread_enable_asynccancel>
    893a:	4c 39 f3             	cmp    rbx,r14
    893d:	41 89 c5             	mov    r13d,eax
    8940:	0f 84 b7 00 00 00    	je     89fd <pthread_join+0x12d>
    8946:	49 3b 9e 28 06 00 00 	cmp    rbx,QWORD PTR [r14+0x628]
    894d:	0f 84 9d 00 00 00    	je     89f0 <pthread_join+0x120>
    8953:	31 c0                	xor    eax,eax
    8955:	f0 4d 0f b1 37       	lock cmpxchg QWORD PTR [r15],r14
    895a:	0f 85 d8 00 00 00    	jne    8a38 <pthread_join+0x168>
    8960:	48 63 93 d0 02 00 00 	movsxd rdx,DWORD PTR [rbx+0x2d0]
    8967:	85 d2                	test   edx,edx
    8969:	74 2d                	je     8998 <pthread_join+0xc8>
    896b:	4c 8d 8b d0 02 00 00 	lea    r9,[rbx+0x2d0]
    8972:	41 b8 ca 00 00 00    	mov    r8d,0xca
    8978:	0f 1f 84 00 00 00 00 	nop    DWORD PTR [rax+rax*1+0x0]
    897f:	00 
    8980:	45 31 d2             	xor    r10d,r10d
    8983:	31 f6                	xor    esi,esi
    8985:	4c 89 cf             	mov    rdi,r9
    8988:	44 89 c0             	mov    eax,r8d
    898b:	0f 05                	syscall 
    898d:	48 63 93 d0 02 00 00 	movsxd rdx,DWORD PTR [rbx+0x2d0]
    8994:	85 d2                	test   edx,edx
    8996:	75 e8                	jne    8980 <pthread_join+0xb0>
    8998:	44 89 ef             	mov    edi,r13d
    899b:	e8 20 78 00 00       	call   101c0 <__pthread_disable_asynccancel>
    89a0:	31 f6                	xor    esi,esi
    89a2:	4c 89 e7             	mov    rdi,r12
    89a5:	e8 06 74 00 00       	call   fdb0 <_pthread_cleanup_pop>
    89aa:	48 85 ed             	test   rbp,rbp
    89ad:	c7 83 d0 02 00 00 ff 	mov    DWORD PTR [rbx+0x2d0],0xffffffff
    89b4:	ff ff ff 
    89b7:	74 0b                	je     89c4 <pthread_join+0xf4>
    89b9:	48 8b 83 30 06 00 00 	mov    rax,QWORD PTR [rbx+0x630]
    89c0:	48 89 45 00          	mov    QWORD PTR [rbp+0x0],rax
    89c4:	48 89 df             	mov    rdi,rbx
    89c7:	e8 34 ea ff ff       	call   7400 <__free_tcb>
    89cc:	31 c0                	xor    eax,eax
    89ce:	90                   	nop
    89cf:	48 83 c4 38          	add    rsp,0x38
    89d3:	5b                   	pop    rbx
    89d4:	5d                   	pop    rbp
    89d5:	41 5c                	pop    r12
    89d7:	41 5d                	pop    r13
    89d9:	41 5e                	pop    r14
    89db:	41 5f                	pop    r15
    89dd:	f3 c3                	repz ret 
    89df:	90                   	nop
    89e0:	b8 03 00 00 00       	mov    eax,0x3
    89e5:	c3                   	ret    
    89e6:	66 2e 0f 1f 84 00 00 	nop    WORD PTR cs:[rax+rax*1+0x0]
    89ed:	00 00 00 
    89f0:	f6 83 08 03 00 00 3c 	test   BYTE PTR [rbx+0x308],0x3c
    89f7:	0f 85 56 ff ff ff    	jne    8953 <pthread_join+0x83>
    89fd:	41 8b 96 08 03 00 00 	mov    edx,DWORD PTR [r14+0x308]
    8a04:	b8 23 00 00 00       	mov    eax,0x23
    8a09:	83 e2 b9             	and    edx,0xffffffb9
    8a0c:	83 fa 08             	cmp    edx,0x8
    8a0f:	0f 84 3e ff ff ff    	je     8953 <pthread_join+0x83>
    8a15:	44 89 ef             	mov    edi,r13d
    8a18:	89 44 24 0c          	mov    DWORD PTR [rsp+0xc],eax
    8a1c:	e8 9f 77 00 00       	call   101c0 <__pthread_disable_asynccancel>
    8a21:	31 f6                	xor    esi,esi
    8a23:	4c 89 e7             	mov    rdi,r12
    8a26:	e8 85 73 00 00       	call   fdb0 <_pthread_cleanup_pop>
    8a2b:	8b 44 24 0c          	mov    eax,DWORD PTR [rsp+0xc]
    8a2f:	eb 9d                	jmp    89ce <pthread_join+0xfe>
    8a31:	0f 1f 80 00 00 00 00 	nop    DWORD PTR [rax+0x0]
    8a38:	b8 16 00 00 00       	mov    eax,0x16
    8a3d:	eb d6                	jmp    8a15 <pthread_join+0x145>
    8a3f:	90                   	nop

0000000000008a40 <pthread_tryjoin_np>:
    8a40:	53                   	push   rbx
    8a41:	48 3b bf 28 06 00 00 	cmp    rdi,QWORD PTR [rdi+0x628]
    8a48:	74 43                	je     8a8d <pthread_tryjoin_np+0x4d>
    8a4a:	64 48 8b 14 25 10 00 	mov    rdx,QWORD PTR fs:0x10
    8a51:	00 00 
    8a53:	48 39 d7             	cmp    rdi,rdx
    8a56:	bb 23 00 00 00       	mov    ebx,0x23
    8a5b:	74 18                	je     8a75 <pthread_tryjoin_np+0x35>
    8a5d:	48 3b ba 28 06 00 00 	cmp    rdi,QWORD PTR [rdx+0x628]
    8a64:	74 0f                	je     8a75 <pthread_tryjoin_np+0x35>
    8a66:	8b 9f d0 02 00 00    	mov    ebx,DWORD PTR [rdi+0x2d0]
    8a6c:	85 db                	test   ebx,ebx
    8a6e:	74 10                	je     8a80 <pthread_tryjoin_np+0x40>
    8a70:	bb 10 00 00 00       	mov    ebx,0x10
    8a75:	89 d8                	mov    eax,ebx
    8a77:	5b                   	pop    rbx
    8a78:	c3                   	ret    
    8a79:	0f 1f 80 00 00 00 00 	nop    DWORD PTR [rax+0x0]
    8a80:	31 c0                	xor    eax,eax
    8a82:	f0 48 0f b1 97 28 06 	lock cmpxchg QWORD PTR [rdi+0x628],rdx
    8a89:	00 00 
    8a8b:	74 09                	je     8a96 <pthread_tryjoin_np+0x56>
    8a8d:	bb 16 00 00 00       	mov    ebx,0x16
    8a92:	89 d8                	mov    eax,ebx
    8a94:	5b                   	pop    rbx
    8a95:	c3                   	ret    
    8a96:	48 85 f6             	test   rsi,rsi
    8a99:	74 0a                	je     8aa5 <pthread_tryjoin_np+0x65>
    8a9b:	48 8b 87 30 06 00 00 	mov    rax,QWORD PTR [rdi+0x630]
    8aa2:	48 89 06             	mov    QWORD PTR [rsi],rax
    8aa5:	e8 56 e9 ff ff       	call   7400 <__free_tcb>
    8aaa:	eb c9                	jmp    8a75 <pthread_tryjoin_np+0x35>
    8aac:	0f 1f 40 00          	nop    DWORD PTR [rax+0x0]

0000000000008ab0 <cleanup>:
    8ab0:	48 c7 07 00 00 00 00 	mov    QWORD PTR [rdi],0x0
    8ab7:	c3                   	ret    
    8ab8:	0f 1f 84 00 00 00 00 	nop    DWORD PTR [rax+rax*1+0x0]
    8abf:	00 

0000000000008ac0 <pthread_timedjoin_np>:
    8ac0:	48 85 ff             	test   rdi,rdi
    8ac3:	0f 84 0f 01 00 00    	je     8bd8 <pthread_timedjoin_np+0x118>
    8ac9:	8b 8f d0 02 00 00    	mov    ecx,DWORD PTR [rdi+0x2d0]
    8acf:	85 c9                	test   ecx,ecx
    8ad1:	0f 88 01 01 00 00    	js     8bd8 <pthread_timedjoin_np+0x118>
    8ad7:	48 3b bf 28 06 00 00 	cmp    rdi,QWORD PTR [rdi+0x628]
    8ade:	0f 84 ac 00 00 00    	je     8b90 <pthread_timedjoin_np+0xd0>
    8ae4:	64 48 8b 0c 25 10 00 	mov    rcx,QWORD PTR fs:0x10
    8aeb:	00 00 
    8aed:	48 39 cf             	cmp    rdi,rcx
    8af0:	b8 23 00 00 00       	mov    eax,0x23
    8af5:	0f 84 8e 00 00 00    	je     8b89 <pthread_timedjoin_np+0xc9>
    8afb:	48 3b b9 28 06 00 00 	cmp    rdi,QWORD PTR [rcx+0x628]
    8b02:	0f 84 81 00 00 00    	je     8b89 <pthread_timedjoin_np+0xc9>
    8b08:	4c 8d 87 28 06 00 00 	lea    r8,[rdi+0x628]
    8b0f:	31 c0                	xor    eax,eax
    8b11:	f0 49 0f b1 08       	lock cmpxchg QWORD PTR [r8],rcx
    8b16:	75 78                	jne    8b90 <pthread_timedjoin_np+0xd0>
    8b18:	41 56                	push   r14
    8b1a:	41 55                	push   r13
    8b1c:	41 54                	push   r12
    8b1e:	55                   	push   rbp
    8b1f:	48 89 f5             	mov    rbp,rsi
    8b22:	53                   	push   rbx
    8b23:	48 8d 35 86 ff ff ff 	lea    rsi,[rip+0xffffffffffffff86]        # 8ab0 <cleanup>
    8b2a:	48 89 fb             	mov    rbx,rdi
    8b2d:	49 89 d4             	mov    r12,rdx
    8b30:	4c 89 c2             	mov    rdx,r8
    8b33:	48 83 ec 20          	sub    rsp,0x20
    8b37:	48 89 e7             	mov    rdi,rsp
    8b3a:	e8 51 72 00 00       	call   fd90 <_pthread_cleanup_push>
    8b3f:	e8 1c 76 00 00       	call   10160 <__pthread_enable_asynccancel>
    8b44:	41 89 c6             	mov    r14d,eax
    8b47:	8b 83 d0 02 00 00    	mov    eax,DWORD PTR [rbx+0x2d0]
    8b4d:	85 c0                	test   eax,eax
    8b4f:	75 4f                	jne    8ba0 <pthread_timedjoin_np+0xe0>
    8b51:	44 89 f7             	mov    edi,r14d
    8b54:	e8 67 76 00 00       	call   101c0 <__pthread_disable_asynccancel>
    8b59:	31 f6                	xor    esi,esi
    8b5b:	48 89 e7             	mov    rdi,rsp
    8b5e:	e8 4d 72 00 00       	call   fdb0 <_pthread_cleanup_pop>
    8b63:	48 85 ed             	test   rbp,rbp
    8b66:	74 0b                	je     8b73 <pthread_timedjoin_np+0xb3>
    8b68:	48 8b 83 30 06 00 00 	mov    rax,QWORD PTR [rbx+0x630]
    8b6f:	48 89 45 00          	mov    QWORD PTR [rbp+0x0],rax
    8b73:	48 89 df             	mov    rdi,rbx
    8b76:	e8 85 e8 ff ff       	call   7400 <__free_tcb>
    8b7b:	31 c0                	xor    eax,eax
    8b7d:	48 83 c4 20          	add    rsp,0x20
    8b81:	5b                   	pop    rbx
    8b82:	5d                   	pop    rbp
    8b83:	41 5c                	pop    r12
    8b85:	41 5d                	pop    r13
    8b87:	41 5e                	pop    r14
    8b89:	f3 c3                	repz ret 
    8b8b:	0f 1f 44 00 00       	nop    DWORD PTR [rax+rax*1+0x0]
    8b90:	b8 16 00 00 00       	mov    eax,0x16
    8b95:	c3                   	ret    
    8b96:	66 2e 0f 1f 84 00 00 	nop    WORD PTR cs:[rax+rax*1+0x0]
    8b9d:	00 00 00 
    8ba0:	49 81 7c 24 08 ff c9 	cmp    QWORD PTR [r12+0x8],0x3b9ac9ff
    8ba7:	9a 3b 
    8ba9:	76 35                	jbe    8be0 <pthread_timedjoin_np+0x120>
    8bab:	44 89 f7             	mov    edi,r14d
    8bae:	41 bc 16 00 00 00    	mov    r12d,0x16
    8bb4:	e8 07 76 00 00       	call   101c0 <__pthread_disable_asynccancel>
    8bb9:	31 f6                	xor    esi,esi
    8bbb:	48 89 e7             	mov    rdi,rsp
    8bbe:	e8 ed 71 00 00       	call   fdb0 <_pthread_cleanup_pop>
    8bc3:	48 c7 83 28 06 00 00 	mov    QWORD PTR [rbx+0x628],0x0
    8bca:	00 00 00 00 
    8bce:	44 89 e0             	mov    eax,r12d
    8bd1:	eb aa                	jmp    8b7d <pthread_timedjoin_np+0xbd>
    8bd3:	0f 1f 44 00 00       	nop    DWORD PTR [rax+rax*1+0x0]
    8bd8:	b8 03 00 00 00       	mov    eax,0x3
    8bdd:	c3                   	ret    
    8bde:	66 90                	xchg   ax,ax
    8be0:	48 8d bb d0 02 00 00 	lea    rdi,[rbx+0x2d0]
    8be7:	4c 89 e6             	mov    rsi,r12
    8bea:	e8 21 77 00 00       	call   10310 <__lll_timedwait_tid>
    8bef:	44 89 f7             	mov    edi,r14d
    8bf2:	41 89 c4             	mov    r12d,eax
    8bf5:	e8 c6 75 00 00       	call   101c0 <__pthread_disable_asynccancel>
    8bfa:	31 f6                	xor    esi,esi
    8bfc:	48 89 e7             	mov    rdi,rsp
    8bff:	e8 ac 71 00 00       	call   fdb0 <_pthread_cleanup_pop>
    8c04:	45 85 e4             	test   r12d,r12d
    8c07:	75 ba                	jne    8bc3 <pthread_timedjoin_np+0x103>
    8c09:	e9 55 ff ff ff       	jmp    8b63 <pthread_timedjoin_np+0xa3>
    8c0e:	66 90                	xchg   ax,ax

0000000000008c10 <pthread_self>:
    8c10:	64 48 8b 04 25 10 00 	mov    rax,QWORD PTR fs:0x10
    8c17:	00 00 
    8c19:	c3                   	ret    
    8c1a:	66 0f 1f 44 00 00    	nop    WORD PTR [rax+rax*1+0x0]

0000000000008c20 <pthread_equal>:
    8c20:	31 c0                	xor    eax,eax
    8c22:	48 39 f7             	cmp    rdi,rsi
    8c25:	0f 94 c0             	sete   al
    8c28:	c3                   	ret    
    8c29:	0f 1f 80 00 00 00 00 	nop    DWORD PTR [rax+0x0]

0000000000008c30 <pthread_yield>:
    8c30:	e9 db ca ff ff       	jmp    5710 <sched_yield@plt>
    8c35:	66 2e 0f 1f 84 00 00 	nop    WORD PTR cs:[rax+rax*1+0x0]
    8c3c:	00 00 00 
    8c3f:	90                   	nop

0000000000008c40 <pthread_getconcurrency>:
    8c40:	8b 05 b6 37 21 00    	mov    eax,DWORD PTR [rip+0x2137b6]        # 21c3fc <__concurrency_level>
    8c46:	c3                   	ret    
    8c47:	66 0f 1f 84 00 00 00 	nop    WORD PTR [rax+rax*1+0x0]
    8c4e:	00 00 

0000000000008c50 <pthread_setconcurrency>:
    8c50:	85 ff                	test   edi,edi
    8c52:	b8 16 00 00 00       	mov    eax,0x16
    8c57:	78 08                	js     8c61 <pthread_setconcurrency+0x11>
    8c59:	89 3d 9d 37 21 00    	mov    DWORD PTR [rip+0x21379d],edi        # 21c3fc <__concurrency_level>
    8c5f:	31 c0                	xor    eax,eax
    8c61:	f3 c3                	repz ret 
    8c63:	66 2e 0f 1f 84 00 00 	nop    WORD PTR cs:[rax+rax*1+0x0]
    8c6a:	00 00 00 
    8c6d:	0f 1f 00             	nop    DWORD PTR [rax]

0000000000008c70 <pthread_getschedparam>:
    8c70:	48 85 ff             	test   rdi,rdi
    8c73:	0f 84 0f 01 00 00    	je     8d88 <pthread_getschedparam+0x118>
    8c79:	8b 87 d0 02 00 00    	mov    eax,DWORD PTR [rdi+0x2d0]
    8c7f:	85 c0                	test   eax,eax
    8c81:	0f 8e 01 01 00 00    	jle    8d88 <pthread_getschedparam+0x118>
    8c87:	41 54                	push   r12
    8c89:	31 c0                	xor    eax,eax
    8c8b:	55                   	push   rbp
    8c8c:	49 89 d4             	mov    r12,rdx
    8c8f:	53                   	push   rbx
    8c90:	48 89 f5             	mov    rbp,rsi
    8c93:	48 89 fb             	mov    rbx,rdi
    8c96:	be 01 00 00 00       	mov    esi,0x1
    8c9b:	f0 0f b1 b3 18 06 00 	lock cmpxchg DWORD PTR [rbx+0x618],esi
    8ca2:	00 
    8ca3:	74 1a                	je     8cbf <pthread_getschedparam+0x4f>
    8ca5:	48 8d bb 18 06 00 00 	lea    rdi,[rbx+0x618]
    8cac:	48 81 ec 80 00 00 00 	sub    rsp,0x80
    8cb3:	e8 68 75 00 00       	call   10220 <__lll_lock_wait_private>
    8cb8:	48 81 c4 80 00 00 00 	add    rsp,0x80
    8cbf:	8b 83 0c 03 00 00    	mov    eax,DWORD PTR [rbx+0x30c]
    8cc5:	a8 20                	test   al,0x20
    8cc7:	74 67                	je     8d30 <pthread_getschedparam+0xc0>
    8cc9:	a8 40                	test   al,0x40
    8ccb:	74 43                	je     8d10 <pthread_getschedparam+0xa0>
    8ccd:	8b 83 3c 06 00 00    	mov    eax,DWORD PTR [rbx+0x63c]
    8cd3:	31 d2                	xor    edx,edx
    8cd5:	89 45 00             	mov    DWORD PTR [rbp+0x0],eax
    8cd8:	8b 83 38 06 00 00    	mov    eax,DWORD PTR [rbx+0x638]
    8cde:	41 89 04 24          	mov    DWORD PTR [r12],eax
    8ce2:	f0 ff 8b 18 06 00 00 	lock dec DWORD PTR [rbx+0x618]
    8ce9:	74 1a                	je     8d05 <pthread_getschedparam+0x95>
    8ceb:	48 8d bb 18 06 00 00 	lea    rdi,[rbx+0x618]
    8cf2:	48 81 ec 80 00 00 00 	sub    rsp,0x80
    8cf9:	e8 d2 75 00 00       	call   102d0 <__lll_unlock_wake_private>
    8cfe:	48 81 c4 80 00 00 00 	add    rsp,0x80
    8d05:	5b                   	pop    rbx
    8d06:	89 d0                	mov    eax,edx
    8d08:	5d                   	pop    rbp
    8d09:	41 5c                	pop    r12
    8d0b:	c3                   	ret    
    8d0c:	0f 1f 40 00          	nop    DWORD PTR [rax+0x0]
    8d10:	8b bb d0 02 00 00    	mov    edi,DWORD PTR [rbx+0x2d0]
    8d16:	e8 f5 c8 ff ff       	call   5610 <__sched_getscheduler@plt>
    8d1b:	83 f8 ff             	cmp    eax,0xffffffff
    8d1e:	89 83 3c 06 00 00    	mov    DWORD PTR [rbx+0x63c],eax
    8d24:	75 68                	jne    8d8e <pthread_getschedparam+0x11e>
    8d26:	ba 01 00 00 00       	mov    edx,0x1
    8d2b:	eb b5                	jmp    8ce2 <pthread_getschedparam+0x72>
    8d2d:	0f 1f 00             	nop    DWORD PTR [rax]
    8d30:	8b bb d0 02 00 00    	mov    edi,DWORD PTR [rbx+0x2d0]
    8d36:	48 8d b3 38 06 00 00 	lea    rsi,[rbx+0x638]
    8d3d:	e8 fe c9 ff ff       	call   5740 <__sched_getparam@plt>
    8d42:	85 c0                	test   eax,eax
    8d44:	74 2a                	je     8d70 <pthread_getschedparam+0x100>
    8d46:	f6 83 0c 03 00 00 40 	test   BYTE PTR [rbx+0x30c],0x40
    8d4d:	75 d7                	jne    8d26 <pthread_getschedparam+0xb6>
    8d4f:	8b bb d0 02 00 00    	mov    edi,DWORD PTR [rbx+0x2d0]
    8d55:	e8 b6 c8 ff ff       	call   5610 <__sched_getscheduler@plt>
    8d5a:	89 83 3c 06 00 00    	mov    DWORD PTR [rbx+0x63c],eax
    8d60:	83 c0 01             	add    eax,0x1
    8d63:	74 c1                	je     8d26 <pthread_getschedparam+0xb6>
    8d65:	83 8b 0c 03 00 00 40 	or     DWORD PTR [rbx+0x30c],0x40
    8d6c:	eb b8                	jmp    8d26 <pthread_getschedparam+0xb6>
    8d6e:	66 90                	xchg   ax,ax
    8d70:	8b 83 0c 03 00 00    	mov    eax,DWORD PTR [rbx+0x30c]
    8d76:	83 c8 20             	or     eax,0x20
    8d79:	89 83 0c 03 00 00    	mov    DWORD PTR [rbx+0x30c],eax
    8d7f:	e9 45 ff ff ff       	jmp    8cc9 <pthread_getschedparam+0x59>
    8d84:	0f 1f 40 00          	nop    DWORD PTR [rax+0x0]
    8d88:	b8 03 00 00 00       	mov    eax,0x3
    8d8d:	c3                   	ret    
    8d8e:	83 8b 0c 03 00 00 40 	or     DWORD PTR [rbx+0x30c],0x40
    8d95:	e9 33 ff ff ff       	jmp    8ccd <pthread_getschedparam+0x5d>
    8d9a:	66 0f 1f 44 00 00    	nop    WORD PTR [rax+rax*1+0x0]

0000000000008da0 <pthread_setschedparam>:
    8da0:	48 85 ff             	test   rdi,rdi
    8da3:	0f 84 bf 00 00 00    	je     8e68 <pthread_setschedparam+0xc8>
    8da9:	8b 87 d0 02 00 00    	mov    eax,DWORD PTR [rdi+0x2d0]
    8daf:	49 89 f8             	mov    r8,rdi
    8db2:	85 c0                	test   eax,eax
    8db4:	0f 8e ae 00 00 00    	jle    8e68 <pthread_setschedparam+0xc8>
    8dba:	41 54                	push   r12
    8dbc:	55                   	push   rbp
    8dbd:	41 89 f4             	mov    r12d,esi
    8dc0:	53                   	push   rbx
    8dc1:	49 89 d1             	mov    r9,rdx
    8dc4:	be 01 00 00 00       	mov    esi,0x1
    8dc9:	31 c0                	xor    eax,eax
    8dcb:	48 83 ec 10          	sub    rsp,0x10
    8dcf:	f0 41 0f b1 b0 18 06 	lock cmpxchg DWORD PTR [r8+0x618],esi
    8dd6:	00 00 
    8dd8:	74 1a                	je     8df4 <pthread_setschedparam+0x54>
    8dda:	49 8d b8 18 06 00 00 	lea    rdi,[r8+0x618]
    8de1:	48 81 ec 80 00 00 00 	sub    rsp,0x80
    8de8:	e8 33 74 00 00       	call   10220 <__lll_lock_wait_private>
    8ded:	48 81 c4 80 00 00 00 	add    rsp,0x80
    8df4:	49 8b 80 b0 06 00 00 	mov    rax,QWORD PTR [r8+0x6b0]
    8dfb:	48 85 c0             	test   rax,rax
    8dfe:	75 70                	jne    8e70 <pthread_setschedparam+0xd0>
    8e00:	41 8b b8 d0 02 00 00 	mov    edi,DWORD PTR [r8+0x2d0]
    8e07:	44 89 e6             	mov    esi,r12d
    8e0a:	4c 89 cd             	mov    rbp,r9
    8e0d:	4c 89 c3             	mov    rbx,r8
    8e10:	e8 fb c9 ff ff       	call   5810 <__sched_setscheduler@plt>
    8e15:	83 f8 ff             	cmp    eax,0xffffffff
    8e18:	74 66                	je     8e80 <pthread_setschedparam+0xe0>
    8e1a:	44 89 a3 3c 06 00 00 	mov    DWORD PTR [rbx+0x63c],r12d
    8e21:	8b 45 00             	mov    eax,DWORD PTR [rbp+0x0]
    8e24:	31 d2                	xor    edx,edx
    8e26:	83 8b 0c 03 00 00 60 	or     DWORD PTR [rbx+0x30c],0x60
    8e2d:	89 83 38 06 00 00    	mov    DWORD PTR [rbx+0x638],eax
    8e33:	f0 ff 8b 18 06 00 00 	lock dec DWORD PTR [rbx+0x618]
    8e3a:	74 1a                	je     8e56 <pthread_setschedparam+0xb6>
    8e3c:	48 8d bb 18 06 00 00 	lea    rdi,[rbx+0x618]
    8e43:	48 81 ec 80 00 00 00 	sub    rsp,0x80
    8e4a:	e8 81 74 00 00       	call   102d0 <__lll_unlock_wake_private>
    8e4f:	48 81 c4 80 00 00 00 	add    rsp,0x80
    8e56:	48 83 c4 10          	add    rsp,0x10
    8e5a:	89 d0                	mov    eax,edx
    8e5c:	5b                   	pop    rbx
    8e5d:	5d                   	pop    rbp
    8e5e:	41 5c                	pop    r12
    8e60:	c3                   	ret    
    8e61:	0f 1f 80 00 00 00 00 	nop    DWORD PTR [rax+0x0]
    8e68:	b8 03 00 00 00       	mov    eax,0x3
    8e6d:	c3                   	ret    
    8e6e:	66 90                	xchg   ax,ax
    8e70:	8b 00                	mov    eax,DWORD PTR [rax]
    8e72:	3b 02                	cmp    eax,DWORD PTR [rdx]
    8e74:	7e 8a                	jle    8e00 <pthread_setschedparam+0x60>
    8e76:	89 04 24             	mov    DWORD PTR [rsp],eax
    8e79:	48 89 e2             	mov    rdx,rsp
    8e7c:	eb 82                	jmp    8e00 <pthread_setschedparam+0x60>
    8e7e:	66 90                	xchg   ax,ax
    8e80:	48 8b 05 01 f1 20 00 	mov    rax,QWORD PTR [rip+0x20f101]        # 217f88 <_DYNAMIC+0x238>
    8e87:	64 8b 10             	mov    edx,DWORD PTR fs:[rax]
    8e8a:	eb a7                	jmp    8e33 <pthread_setschedparam+0x93>
    8e8c:	0f 1f 40 00          	nop    DWORD PTR [rax+0x0]

0000000000008e90 <pthread_setschedprio>:
    8e90:	48 85 ff             	test   rdi,rdi
    8e93:	0f 84 af 00 00 00    	je     8f48 <pthread_setschedprio+0xb8>
    8e99:	8b 87 d0 02 00 00    	mov    eax,DWORD PTR [rdi+0x2d0]
    8e9f:	48 89 fa             	mov    rdx,rdi
    8ea2:	85 c0                	test   eax,eax
    8ea4:	0f 8e 9e 00 00 00    	jle    8f48 <pthread_setschedprio+0xb8>
    8eaa:	55                   	push   rbp
    8eab:	53                   	push   rbx
    8eac:	41 89 f0             	mov    r8d,esi
    8eaf:	31 c0                	xor    eax,eax
    8eb1:	48 83 ec 18          	sub    rsp,0x18
    8eb5:	89 34 24             	mov    DWORD PTR [rsp],esi
    8eb8:	be 01 00 00 00       	mov    esi,0x1
    8ebd:	f0 0f b1 b2 18 06 00 	lock cmpxchg DWORD PTR [rdx+0x618],esi
    8ec4:	00 
    8ec5:	74 1a                	je     8ee1 <pthread_setschedprio+0x51>
    8ec7:	48 8d ba 18 06 00 00 	lea    rdi,[rdx+0x618]
    8ece:	48 81 ec 80 00 00 00 	sub    rsp,0x80
    8ed5:	e8 46 73 00 00       	call   10220 <__lll_lock_wait_private>
    8eda:	48 81 c4 80 00 00 00 	add    rsp,0x80
    8ee1:	48 8b 82 b0 06 00 00 	mov    rax,QWORD PTR [rdx+0x6b0]
    8ee8:	48 85 c0             	test   rax,rax
    8eeb:	75 63                	jne    8f50 <pthread_setschedprio+0xc0>
    8eed:	8b ba d0 02 00 00    	mov    edi,DWORD PTR [rdx+0x2d0]
    8ef3:	48 89 e6             	mov    rsi,rsp
    8ef6:	44 89 c5             	mov    ebp,r8d
    8ef9:	48 89 d3             	mov    rbx,rdx
    8efc:	e8 5f ca ff ff       	call   5960 <sched_setparam@plt>
    8f01:	83 f8 ff             	cmp    eax,0xffffffff
    8f04:	74 5a                	je     8f60 <pthread_setschedprio+0xd0>
    8f06:	83 8b 0c 03 00 00 20 	or     DWORD PTR [rbx+0x30c],0x20
    8f0d:	89 2c 24             	mov    DWORD PTR [rsp],ebp
    8f10:	31 d2                	xor    edx,edx
    8f12:	89 ab 38 06 00 00    	mov    DWORD PTR [rbx+0x638],ebp
    8f18:	f0 ff 8b 18 06 00 00 	lock dec DWORD PTR [rbx+0x618]
    8f1f:	74 1a                	je     8f3b <pthread_setschedprio+0xab>
    8f21:	48 8d bb 18 06 00 00 	lea    rdi,[rbx+0x618]
    8f28:	48 81 ec 80 00 00 00 	sub    rsp,0x80
    8f2f:	e8 9c 73 00 00       	call   102d0 <__lll_unlock_wake_private>
    8f34:	48 81 c4 80 00 00 00 	add    rsp,0x80
    8f3b:	48 83 c4 18          	add    rsp,0x18
    8f3f:	89 d0                	mov    eax,edx
    8f41:	5b                   	pop    rbx
    8f42:	5d                   	pop    rbp
    8f43:	c3                   	ret    
    8f44:	0f 1f 40 00          	nop    DWORD PTR [rax+0x0]
    8f48:	b8 03 00 00 00       	mov    eax,0x3
    8f4d:	c3                   	ret    
    8f4e:	66 90                	xchg   ax,ax
    8f50:	8b 00                	mov    eax,DWORD PTR [rax]
    8f52:	41 39 c0             	cmp    r8d,eax
    8f55:	7d 96                	jge    8eed <pthread_setschedprio+0x5d>
    8f57:	89 04 24             	mov    DWORD PTR [rsp],eax
    8f5a:	eb 91                	jmp    8eed <pthread_setschedprio+0x5d>
    8f5c:	0f 1f 40 00          	nop    DWORD PTR [rax+0x0]
    8f60:	48 8b 05 21 f0 20 00 	mov    rax,QWORD PTR [rip+0x20f021]        # 217f88 <_DYNAMIC+0x238>
    8f67:	64 8b 10             	mov    edx,DWORD PTR fs:[rax]
    8f6a:	eb ac                	jmp    8f18 <pthread_setschedprio+0x88>
    8f6c:	0f 1f 40 00          	nop    DWORD PTR [rax+0x0]

0000000000008f70 <pthread_attr_init@@GLIBC_2.2.5>:
    8f70:	53                   	push   rbx
    8f71:	48 89 fb             	mov    rbx,rdi
    8f74:	48 c7 07 00 00 00 00 	mov    QWORD PTR [rdi],0x0
    8f7b:	48 c7 47 30 00 00 00 	mov    QWORD PTR [rdi+0x30],0x0
    8f82:	00 
    8f83:	48 8d 7f 08          	lea    rdi,[rdi+0x8]
    8f87:	48 89 d9             	mov    rcx,rbx
    8f8a:	31 c0                	xor    eax,eax
    8f8c:	48 83 e7 f8          	and    rdi,0xfffffffffffffff8
    8f90:	48 29 f9             	sub    rcx,rdi
    8f93:	83 c1 38             	add    ecx,0x38
    8f96:	c1 e9 03             	shr    ecx,0x3
    8f99:	f3 48 ab             	rep stos QWORD PTR es:[rdi],rax
    8f9c:	e8 8f c8 ff ff       	call   5830 <__getpagesize@plt>
    8fa1:	48 98                	cdqe   
    8fa3:	48 89 43 10          	mov    QWORD PTR [rbx+0x10],rax
    8fa7:	31 c0                	xor    eax,eax
    8fa9:	5b                   	pop    rbx
    8faa:	c3                   	ret    
    8fab:	0f 1f 44 00 00       	nop    DWORD PTR [rax+rax*1+0x0]

0000000000008fb0 <pthread_attr_destroy>:
    8fb0:	48 83 ec 08          	sub    rsp,0x8
    8fb4:	48 8b 7f 28          	mov    rdi,QWORD PTR [rdi+0x28]
    8fb8:	e8 03 c6 ff ff       	call   55c0 <free@plt>
    8fbd:	31 c0                	xor    eax,eax
    8fbf:	48 83 c4 08          	add    rsp,0x8
    8fc3:	c3                   	ret    
    8fc4:	66 2e 0f 1f 84 00 00 	nop    WORD PTR cs:[rax+rax*1+0x0]
    8fcb:	00 00 00 
    8fce:	66 90                	xchg   ax,ax

0000000000008fd0 <pthread_attr_getdetachstate>:
    8fd0:	8b 47 08             	mov    eax,DWORD PTR [rdi+0x8]
    8fd3:	83 e0 01             	and    eax,0x1
    8fd6:	89 06                	mov    DWORD PTR [rsi],eax
    8fd8:	31 c0                	xor    eax,eax
    8fda:	c3                   	ret    
    8fdb:	0f 1f 44 00 00       	nop    DWORD PTR [rax+rax*1+0x0]

0000000000008fe0 <pthread_attr_setdetachstate>:
    8fe0:	83 fe 01             	cmp    esi,0x1
    8fe3:	74 0b                	je     8ff0 <pthread_attr_setdetachstate+0x10>
    8fe5:	85 f6                	test   esi,esi
    8fe7:	75 17                	jne    9000 <pthread_attr_setdetachstate+0x20>
    8fe9:	83 67 08 fe          	and    DWORD PTR [rdi+0x8],0xfffffffe
    8fed:	31 c0                	xor    eax,eax
    8fef:	c3                   	ret    
    8ff0:	83 4f 08 01          	or     DWORD PTR [rdi+0x8],0x1
    8ff4:	31 c0                	xor    eax,eax
    8ff6:	c3                   	ret    
    8ff7:	66 0f 1f 84 00 00 00 	nop    WORD PTR [rax+rax*1+0x0]
    8ffe:	00 00 
    9000:	b8 16 00 00 00       	mov    eax,0x16
    9005:	c3                   	ret    
    9006:	66 2e 0f 1f 84 00 00 	nop    WORD PTR cs:[rax+rax*1+0x0]
    900d:	00 00 00 

0000000000009010 <pthread_attr_getguardsize>:
    9010:	48 8b 47 10          	mov    rax,QWORD PTR [rdi+0x10]
    9014:	48 89 06             	mov    QWORD PTR [rsi],rax
    9017:	31 c0                	xor    eax,eax
    9019:	c3                   	ret    
    901a:	66 0f 1f 44 00 00    	nop    WORD PTR [rax+rax*1+0x0]

0000000000009020 <pthread_attr_setguardsize>:
    9020:	48 89 77 10          	mov    QWORD PTR [rdi+0x10],rsi
    9024:	31 c0                	xor    eax,eax
    9026:	c3                   	ret    
    9027:	66 0f 1f 84 00 00 00 	nop    WORD PTR [rax+rax*1+0x0]
    902e:	00 00 

0000000000009030 <pthread_attr_getschedparam>:
    9030:	8b 07                	mov    eax,DWORD PTR [rdi]
    9032:	89 06                	mov    DWORD PTR [rsi],eax
    9034:	31 c0                	xor    eax,eax
    9036:	c3                   	ret    
    9037:	66 0f 1f 84 00 00 00 	nop    WORD PTR [rax+rax*1+0x0]
    903e:	00 00 

0000000000009040 <pthread_attr_setschedparam>:
    9040:	41 56                	push   r14
    9042:	41 55                	push   r13
    9044:	41 54                	push   r12
    9046:	55                   	push   rbp
    9047:	49 89 f4             	mov    r12,rsi
    904a:	53                   	push   rbx
    904b:	8b 6f 04             	mov    ebp,DWORD PTR [rdi+0x4]
    904e:	48 89 fb             	mov    rbx,rdi
    9051:	44 8b 36             	mov    r14d,DWORD PTR [rsi]
    9054:	89 ef                	mov    edi,ebp
    9056:	e8 a5 c9 ff ff       	call   5a00 <__sched_get_priority_min@plt>
    905b:	89 ef                	mov    edi,ebp
    905d:	41 89 c5             	mov    r13d,eax
    9060:	e8 eb c5 ff ff       	call   5650 <__sched_get_priority_max@plt>
    9065:	45 85 ed             	test   r13d,r13d
    9068:	78 04                	js     906e <pthread_attr_setschedparam+0x2e>
    906a:	85 c0                	test   eax,eax
    906c:	79 12                	jns    9080 <pthread_attr_setschedparam+0x40>
    906e:	5b                   	pop    rbx
    906f:	b8 16 00 00 00       	mov    eax,0x16
    9074:	5d                   	pop    rbp
    9075:	41 5c                	pop    r12
    9077:	41 5d                	pop    r13
    9079:	41 5e                	pop    r14
    907b:	c3                   	ret    
    907c:	0f 1f 40 00          	nop    DWORD PTR [rax+0x0]
    9080:	45 39 ee             	cmp    r14d,r13d
    9083:	7c e9                	jl     906e <pthread_attr_setschedparam+0x2e>
    9085:	41 39 c6             	cmp    r14d,eax
    9088:	7f e4                	jg     906e <pthread_attr_setschedparam+0x2e>
    908a:	41 8b 04 24          	mov    eax,DWORD PTR [r12]
    908e:	83 4b 08 20          	or     DWORD PTR [rbx+0x8],0x20
    9092:	89 03                	mov    DWORD PTR [rbx],eax
    9094:	31 c0                	xor    eax,eax
    9096:	5b                   	pop    rbx
    9097:	5d                   	pop    rbp
    9098:	41 5c                	pop    r12
    909a:	41 5d                	pop    r13
    909c:	41 5e                	pop    r14
    909e:	c3                   	ret    
    909f:	90                   	nop

00000000000090a0 <pthread_attr_getschedpolicy>:
    90a0:	8b 47 04             	mov    eax,DWORD PTR [rdi+0x4]
    90a3:	89 06                	mov    DWORD PTR [rsi],eax
    90a5:	31 c0                	xor    eax,eax
    90a7:	c3                   	ret    
    90a8:	0f 1f 84 00 00 00 00 	nop    DWORD PTR [rax+rax*1+0x0]
    90af:	00 

00000000000090b0 <pthread_attr_setschedpolicy>:
    90b0:	83 fe 02             	cmp    esi,0x2
    90b3:	76 0b                	jbe    90c0 <pthread_attr_setschedpolicy+0x10>
    90b5:	b8 16 00 00 00       	mov    eax,0x16
    90ba:	c3                   	ret    
    90bb:	0f 1f 44 00 00       	nop    DWORD PTR [rax+rax*1+0x0]
    90c0:	89 77 04             	mov    DWORD PTR [rdi+0x4],esi
    90c3:	83 4f 08 40          	or     DWORD PTR [rdi+0x8],0x40
    90c7:	31 c0                	xor    eax,eax
    90c9:	c3                   	ret    
    90ca:	66 0f 1f 44 00 00    	nop    WORD PTR [rax+rax*1+0x0]

00000000000090d0 <pthread_attr_getinheritsched>:
    90d0:	8b 47 08             	mov    eax,DWORD PTR [rdi+0x8]
    90d3:	d1 e8                	shr    eax,1
    90d5:	83 e0 01             	and    eax,0x1
    90d8:	89 06                	mov    DWORD PTR [rsi],eax
    90da:	31 c0                	xor    eax,eax
    90dc:	c3                   	ret    
    90dd:	0f 1f 00             	nop    DWORD PTR [rax]

00000000000090e0 <pthread_attr_setinheritsched>:
    90e0:	83 fe 01             	cmp    esi,0x1
    90e3:	b8 16 00 00 00       	mov    eax,0x16
    90e8:	76 06                	jbe    90f0 <pthread_attr_setinheritsched+0x10>
    90ea:	f3 c3                	repz ret 
    90ec:	0f 1f 40 00          	nop    DWORD PTR [rax+0x0]
    90f0:	85 f6                	test   esi,esi
    90f2:	75 0c                	jne    9100 <pthread_attr_setinheritsched+0x20>
    90f4:	83 67 08 fd          	and    DWORD PTR [rdi+0x8],0xfffffffd
    90f8:	31 c0                	xor    eax,eax
    90fa:	c3                   	ret    
    90fb:	0f 1f 44 00 00       	nop    DWORD PTR [rax+rax*1+0x0]
    9100:	83 4f 08 02          	or     DWORD PTR [rdi+0x8],0x2
    9104:	31 c0                	xor    eax,eax
    9106:	c3                   	ret    
    9107:	66 0f 1f 84 00 00 00 	nop    WORD PTR [rax+rax*1+0x0]
    910e:	00 00 

0000000000009110 <pthread_attr_getscope>:
    9110:	8b 47 08             	mov    eax,DWORD PTR [rdi+0x8]
    9113:	c1 e8 02             	shr    eax,0x2
    9116:	83 e0 01             	and    eax,0x1
    9119:	89 06                	mov    DWORD PTR [rsi],eax
    911b:	31 c0                	xor    eax,eax
    911d:	c3                   	ret    
    911e:	66 90                	xchg   ax,ax

0000000000009120 <pthread_attr_setscope>:
    9120:	85 f6                	test   esi,esi
    9122:	74 14                	je     9138 <pthread_attr_setscope+0x18>
    9124:	83 fe 01             	cmp    esi,0x1
    9127:	ba 16 00 00 00       	mov    edx,0x16
    912c:	b8 5f 00 00 00       	mov    eax,0x5f
    9131:	0f 45 c2             	cmovne eax,edx
    9134:	c3                   	ret    
    9135:	0f 1f 00             	nop    DWORD PTR [rax]
    9138:	83 67 08 fb          	and    DWORD PTR [rdi+0x8],0xfffffffb
    913c:	31 c0                	xor    eax,eax
    913e:	c3                   	ret    
    913f:	90                   	nop

0000000000009140 <pthread_attr_getstackaddr>:
    9140:	48 8b 47 18          	mov    rax,QWORD PTR [rdi+0x18]
    9144:	48 89 06             	mov    QWORD PTR [rsi],rax
    9147:	31 c0                	xor    eax,eax
    9149:	c3                   	ret    
    914a:	66 0f 1f 44 00 00    	nop    WORD PTR [rax+rax*1+0x0]

0000000000009150 <pthread_attr_setstackaddr>:
    9150:	48 89 77 18          	mov    QWORD PTR [rdi+0x18],rsi
    9154:	83 4f 08 08          	or     DWORD PTR [rdi+0x8],0x8
    9158:	31 c0                	xor    eax,eax
    915a:	c3                   	ret    
    915b:	0f 1f 44 00 00       	nop    DWORD PTR [rax+rax*1+0x0]

0000000000009160 <pthread_attr_getstacksize>:
    9160:	48 8b 57 20          	mov    rdx,QWORD PTR [rdi+0x20]
    9164:	49 89 f0             	mov    r8,rsi
    9167:	48 85 d2             	test   rdx,rdx
    916a:	75 55                	jne    91c1 <pthread_attr_getstacksize+0x61>
    916c:	be 01 00 00 00       	mov    esi,0x1
    9171:	31 c0                	xor    eax,eax
    9173:	f0 0f b1 35 45 31 21 	lock cmpxchg DWORD PTR [rip+0x213145],esi        # 21c2c0 <__default_pthread_attr_lock>
    917a:	00 
    917b:	74 1a                	je     9197 <pthread_attr_getstacksize+0x37>
    917d:	48 8d 3d 3c 31 21 00 	lea    rdi,[rip+0x21313c]        # 21c2c0 <__default_pthread_attr_lock>
    9184:	48 81 ec 80 00 00 00 	sub    rsp,0x80
    918b:	e8 90 70 00 00       	call   10220 <__lll_lock_wait_private>
    9190:	48 81 c4 80 00 00 00 	add    rsp,0x80
    9197:	48 8b 15 42 32 21 00 	mov    rdx,QWORD PTR [rip+0x213242]        # 21c3e0 <__default_pthread_attr+0x20>
    919e:	f0 ff 0d 1b 31 21 00 	lock dec DWORD PTR [rip+0x21311b]        # 21c2c0 <__default_pthread_attr_lock>
    91a5:	74 1a                	je     91c1 <pthread_attr_getstacksize+0x61>
    91a7:	48 8d 3d 12 31 21 00 	lea    rdi,[rip+0x213112]        # 21c2c0 <__default_pthread_attr_lock>
    91ae:	48 81 ec 80 00 00 00 	sub    rsp,0x80
    91b5:	e8 16 71 00 00       	call   102d0 <__lll_unlock_wake_private>
    91ba:	48 81 c4 80 00 00 00 	add    rsp,0x80
    91c1:	49 89 10             	mov    QWORD PTR [r8],rdx
    91c4:	31 c0                	xor    eax,eax
    91c6:	c3                   	ret    
    91c7:	66 0f 1f 84 00 00 00 	nop    WORD PTR [rax+rax*1+0x0]
    91ce:	00 00 

00000000000091d0 <pthread_attr_setstacksize>:
    91d0:	48 81 fe ff 3f 00 00 	cmp    rsi,0x3fff
    91d7:	77 07                	ja     91e0 <pthread_attr_setstacksize+0x10>
    91d9:	b8 16 00 00 00       	mov    eax,0x16
    91de:	c3                   	ret    
    91df:	90                   	nop
    91e0:	48 89 77 20          	mov    QWORD PTR [rdi+0x20],rsi
    91e4:	31 c0                	xor    eax,eax
    91e6:	c3                   	ret    
    91e7:	66 0f 1f 84 00 00 00 	nop    WORD PTR [rax+rax*1+0x0]
    91ee:	00 00 

00000000000091f0 <pthread_attr_getstack>:
    91f0:	48 8b 4f 20          	mov    rcx,QWORD PTR [rdi+0x20]
    91f4:	48 8b 47 18          	mov    rax,QWORD PTR [rdi+0x18]
    91f8:	48 29 c8             	sub    rax,rcx
    91fb:	48 89 06             	mov    QWORD PTR [rsi],rax
    91fe:	48 89 0a             	mov    QWORD PTR [rdx],rcx
    9201:	31 c0                	xor    eax,eax
    9203:	c3                   	ret    
    9204:	66 2e 0f 1f 84 00 00 	nop    WORD PTR cs:[rax+rax*1+0x0]
    920b:	00 00 00 
    920e:	66 90                	xchg   ax,ax

0000000000009210 <pthread_attr_setstack>:
    9210:	48 81 fa ff 3f 00 00 	cmp    rdx,0x3fff
    9217:	77 07                	ja     9220 <pthread_attr_setstack+0x10>
    9219:	b8 16 00 00 00       	mov    eax,0x16
    921e:	c3                   	ret    
    921f:	90                   	nop
    9220:	48 89 57 20          	mov    QWORD PTR [rdi+0x20],rdx
    9224:	48 01 f2             	add    rdx,rsi
    9227:	83 4f 08 08          	or     DWORD PTR [rdi+0x8],0x8
    922b:	48 89 57 18          	mov    QWORD PTR [rdi+0x18],rdx
    922f:	31 c0                	xor    eax,eax
    9231:	c3                   	ret    
    9232:	66 2e 0f 1f 84 00 00 	nop    WORD PTR cs:[rax+rax*1+0x0]
    9239:	00 00 00 
    923c:	0f 1f 40 00          	nop    DWORD PTR [rax+0x0]

0000000000009240 <pthread_getattr_np>:
    9240:	41 57                	push   r15
    9242:	41 56                	push   r14
    9244:	31 c0                	xor    eax,eax
    9246:	41 55                	push   r13
    9248:	41 54                	push   r12
    924a:	55                   	push   rbp
    924b:	53                   	push   rbx
    924c:	48 89 f5             	mov    rbp,rsi
    924f:	48 89 fb             	mov    rbx,rdi
    9252:	be 01 00 00 00       	mov    esi,0x1
    9257:	48 83 ec 58          	sub    rsp,0x58
    925b:	f0 0f b1 b3 18 06 00 	lock cmpxchg DWORD PTR [rbx+0x618],esi
    9262:	00 
    9263:	74 1a                	je     927f <pthread_getattr_np+0x3f>
    9265:	48 8d bb 18 06 00 00 	lea    rdi,[rbx+0x618]
    926c:	48 81 ec 80 00 00 00 	sub    rsp,0x80
    9273:	e8 a8 6f 00 00       	call   10220 <__lll_lock_wait_private>
    9278:	48 81 c4 80 00 00 00 	add    rsp,0x80
    927f:	8b 83 38 06 00 00    	mov    eax,DWORD PTR [rbx+0x638]
    9285:	89 45 00             	mov    DWORD PTR [rbp+0x0],eax
    9288:	8b 83 3c 06 00 00    	mov    eax,DWORD PTR [rbx+0x63c]
    928e:	48 3b 9b 28 06 00 00 	cmp    rbx,QWORD PTR [rbx+0x628]
    9295:	89 45 04             	mov    DWORD PTR [rbp+0x4],eax
    9298:	8b 83 0c 03 00 00    	mov    eax,DWORD PTR [rbx+0x30c]
    929e:	89 45 08             	mov    DWORD PTR [rbp+0x8],eax
    92a1:	0f 84 d1 00 00 00    	je     9378 <pthread_getattr_np+0x138>
    92a7:	48 8b 8b 90 06 00 00 	mov    rcx,QWORD PTR [rbx+0x690]
    92ae:	48 8b 93 a8 06 00 00 	mov    rdx,QWORD PTR [rbx+0x6a8]
    92b5:	48 85 c9             	test   rcx,rcx
    92b8:	48 89 55 10          	mov    QWORD PTR [rbp+0x10],rdx
    92bc:	0f 84 c6 00 00 00    	je     9388 <pthread_getattr_np+0x148>
    92c2:	48 8b 93 98 06 00 00 	mov    rdx,QWORD PTR [rbx+0x698]
    92c9:	83 c8 08             	or     eax,0x8
    92cc:	89 45 08             	mov    DWORD PTR [rbp+0x8],eax
    92cf:	48 89 55 20          	mov    QWORD PTR [rbp+0x20],rdx
    92d3:	48 01 ca             	add    rdx,rcx
    92d6:	48 89 55 18          	mov    QWORD PTR [rbp+0x18],rdx
    92da:	45 31 ff             	xor    r15d,r15d
    92dd:	41 bc 10 00 00 00    	mov    r12d,0x10
    92e3:	eb 22                	jmp    9307 <pthread_getattr_np+0xc7>
    92e5:	0f 1f 00             	nop    DWORD PTR [rax]
    92e8:	48 89 c2             	mov    rdx,rax
    92eb:	4c 89 e6             	mov    rsi,r12
    92ee:	48 89 df             	mov    rdi,rbx
    92f1:	e8 7a 83 00 00       	call   11670 <pthread_getaffinity_np@@GLIBC_2.3.4>
    92f6:	83 f8 16             	cmp    eax,0x16
    92f9:	4d 89 ef             	mov    r15,r13
    92fc:	75 62                	jne    9360 <pthread_getattr_np+0x120>
    92fe:	49 81 fc ff ff 0f 00 	cmp    r12,0xfffff
    9305:	77 59                	ja     9360 <pthread_getattr_np+0x120>
    9307:	4d 01 e4             	add    r12,r12
    930a:	4c 89 ff             	mov    rdi,r15
    930d:	4c 89 e6             	mov    rsi,r12
    9310:	e8 8b c5 ff ff       	call   58a0 <realloc@plt>
    9315:	48 85 c0             	test   rax,rax
    9318:	49 89 c5             	mov    r13,rax
    931b:	75 cb                	jne    92e8 <pthread_getattr_np+0xa8>
    931d:	4c 89 ff             	mov    rdi,r15
    9320:	41 be 0c 00 00 00    	mov    r14d,0xc
    9326:	e8 95 c2 ff ff       	call   55c0 <free@plt>
    932b:	f0 ff 8b 18 06 00 00 	lock dec DWORD PTR [rbx+0x618]
    9332:	74 1a                	je     934e <pthread_getattr_np+0x10e>
    9334:	48 8d bb 18 06 00 00 	lea    rdi,[rbx+0x618]
    933b:	48 81 ec 80 00 00 00 	sub    rsp,0x80
    9342:	e8 89 6f 00 00       	call   102d0 <__lll_unlock_wake_private>
    9347:	48 81 c4 80 00 00 00 	add    rsp,0x80
    934e:	48 83 c4 58          	add    rsp,0x58
    9352:	44 89 f0             	mov    eax,r14d
    9355:	5b                   	pop    rbx
    9356:	5d                   	pop    rbp
    9357:	41 5c                	pop    r12
    9359:	41 5d                	pop    r13
    935b:	41 5e                	pop    r14
    935d:	41 5f                	pop    r15
    935f:	c3                   	ret    
    9360:	85 c0                	test   eax,eax
    9362:	41 89 c6             	mov    r14d,eax
    9365:	0f 85 07 02 00 00    	jne    9572 <pthread_getattr_np+0x332>
    936b:	4c 89 6d 28          	mov    QWORD PTR [rbp+0x28],r13
    936f:	4c 89 65 30          	mov    QWORD PTR [rbp+0x30],r12
    9373:	eb b6                	jmp    932b <pthread_getattr_np+0xeb>
    9375:	0f 1f 00             	nop    DWORD PTR [rax]
    9378:	83 c8 01             	or     eax,0x1
    937b:	89 45 08             	mov    DWORD PTR [rbp+0x8],eax
    937e:	e9 24 ff ff ff       	jmp    92a7 <pthread_getattr_np+0x67>
    9383:	0f 1f 44 00 00       	nop    DWORD PTR [rax+rax*1+0x0]
    9388:	8b 83 d4 02 00 00    	mov    eax,DWORD PTR [rbx+0x2d4]
    938e:	8b 93 d4 02 00 00    	mov    edx,DWORD PTR [rbx+0x2d4]
    9394:	c1 f8 1f             	sar    eax,0x1f
    9397:	31 c2                	xor    edx,eax
    9399:	29 c2                	sub    edx,eax
    939b:	3b 93 d0 02 00 00    	cmp    edx,DWORD PTR [rbx+0x2d0]
    93a1:	0f 85 ac 01 00 00    	jne    9553 <pthread_getattr_np+0x313>
    93a7:	48 8d 35 e3 9b 00 00 	lea    rsi,[rip+0x9be3]        # 12f91 <_thread_db_pthread_list+0x21>
    93ae:	48 8d 3d e0 9b 00 00 	lea    rdi,[rip+0x9be0]        # 12f95 <_thread_db_pthread_list+0x25>
    93b5:	e8 56 c5 ff ff       	call   5910 <fopen@plt>
    93ba:	48 85 c0             	test   rax,rax
    93bd:	49 89 c4             	mov    r12,rax
    93c0:	0f 84 2f 01 00 00    	je     94f5 <pthread_getattr_np+0x2b5>
    93c6:	48 8d 74 24 40       	lea    rsi,[rsp+0x40]
    93cb:	bf 03 00 00 00       	mov    edi,0x3
    93d0:	e8 eb c5 ff ff       	call   59c0 <getrlimit@plt>
    93d5:	85 c0                	test   eax,eax
    93d7:	0f 85 c5 00 00 00    	jne    94a2 <pthread_getattr_np+0x262>
    93dd:	48 8b 05 c4 eb 20 00 	mov    rax,QWORD PTR [rip+0x20ebc4]        # 217fa8 <_DYNAMIC+0x258>
    93e4:	48 8d 4c 24 30       	lea    rcx,[rsp+0x30]
    93e9:	31 d2                	xor    edx,edx
    93eb:	48 89 1c 24          	mov    QWORD PTR [rsp],rbx
    93ef:	48 89 6c 24 08       	mov    QWORD PTR [rsp+0x8],rbp
    93f4:	4c 8d 74 24 28       	lea    r14,[rsp+0x28]
    93f9:	4c 8d 6c 24 20       	lea    r13,[rsp+0x20]
    93fe:	4c 8d 7c 24 38       	lea    r15,[rsp+0x38]
    9403:	48 89 d5             	mov    rbp,rdx
    9406:	48 8b 40 18          	mov    rax,QWORD PTR [rax+0x18]
    940a:	48 89 cb             	mov    rbx,rcx
    940d:	48 89 44 24 10       	mov    QWORD PTR [rsp+0x10],rax
    9412:	48 8b 05 87 eb 20 00 	mov    rax,QWORD PTR [rip+0x20eb87]        # 217fa0 <_DYNAMIC+0x250>
    9419:	48 8b 00             	mov    rax,QWORD PTR [rax]
    941c:	48 89 44 24 18       	mov    QWORD PTR [rsp+0x18],rax
    9421:	41 8b 04 24          	mov    eax,DWORD PTR [r12]
    9425:	80 cc 80             	or     ah,0x80
    9428:	41 89 04 24          	mov    DWORD PTR [r12],eax
    942c:	48 c7 44 24 20 00 00 	mov    QWORD PTR [rsp+0x20],0x0
    9433:	00 00 
    9435:	48 c7 44 24 28 00 00 	mov    QWORD PTR [rsp+0x28],0x0
    943c:	00 00 
    943e:	eb 04                	jmp    9444 <pthread_getattr_np+0x204>
    9440:	41 8b 04 24          	mov    eax,DWORD PTR [r12]
    9444:	a8 10                	test   al,0x10
    9446:	0f 85 8e 00 00 00    	jne    94da <pthread_getattr_np+0x29a>
    944c:	4c 89 e1             	mov    rcx,r12
    944f:	ba 0a 00 00 00       	mov    edx,0xa
    9454:	4c 89 f6             	mov    rsi,r14
    9457:	4c 89 ef             	mov    rdi,r13
    945a:	e8 11 c3 ff ff       	call   5770 <__getdelim@plt>
    945f:	48 85 c0             	test   rax,rax
    9462:	7e 76                	jle    94da <pthread_getattr_np+0x29a>
    9464:	48 8b 7c 24 20       	mov    rdi,QWORD PTR [rsp+0x20]
    9469:	48 8d 35 35 9b 00 00 	lea    rsi,[rip+0x9b35]        # 12fa5 <_thread_db_pthread_list+0x35>
    9470:	31 c0                	xor    eax,eax
    9472:	4c 89 f9             	mov    rcx,r15
    9475:	48 89 da             	mov    rdx,rbx
    9478:	e8 13 c4 ff ff       	call   5890 <sscanf@plt>
    947d:	83 f8 02             	cmp    eax,0x2
    9480:	75 be                	jne    9440 <pthread_getattr_np+0x200>
    9482:	48 8b 05 17 eb 20 00 	mov    rax,QWORD PTR [rip+0x20eb17]        # 217fa0 <_DYNAMIC+0x250>
    9489:	48 8b 00             	mov    rax,QWORD PTR [rax]
    948c:	48 39 44 24 30       	cmp    QWORD PTR [rsp+0x30],rax
    9491:	77 3d                	ja     94d0 <pthread_getattr_np+0x290>
    9493:	48 8b 54 24 38       	mov    rdx,QWORD PTR [rsp+0x38]
    9498:	48 39 d0             	cmp    rax,rdx
    949b:	72 65                	jb     9502 <pthread_getattr_np+0x2c2>
    949d:	48 89 d5             	mov    rbp,rdx
    94a0:	eb 9e                	jmp    9440 <pthread_getattr_np+0x200>
    94a2:	48 8b 05 df ea 20 00 	mov    rax,QWORD PTR [rip+0x20eadf]        # 217f88 <_DYNAMIC+0x238>
    94a9:	64 44 8b 30          	mov    r14d,DWORD PTR fs:[rax]
    94ad:	4c 89 e7             	mov    rdi,r12
    94b0:	e8 bb c1 ff ff       	call   5670 <fclose@plt>
    94b5:	83 4d 08 08          	or     DWORD PTR [rbp+0x8],0x8
    94b9:	45 85 f6             	test   r14d,r14d
    94bc:	0f 85 69 fe ff ff    	jne    932b <pthread_getattr_np+0xeb>
    94c2:	e9 13 fe ff ff       	jmp    92da <pthread_getattr_np+0x9a>
    94c7:	66 0f 1f 84 00 00 00 	nop    WORD PTR [rax+rax*1+0x0]
    94ce:	00 00 
    94d0:	48 8b 6c 24 38       	mov    rbp,QWORD PTR [rsp+0x38]
    94d5:	e9 66 ff ff ff       	jmp    9440 <pthread_getattr_np+0x200>
    94da:	48 8b 1c 24          	mov    rbx,QWORD PTR [rsp]
    94de:	48 8b 6c 24 08       	mov    rbp,QWORD PTR [rsp+0x8]
    94e3:	41 be 02 00 00 00    	mov    r14d,0x2
    94e9:	48 8b 7c 24 20       	mov    rdi,QWORD PTR [rsp+0x20]
    94ee:	e8 cd c0 ff ff       	call   55c0 <free@plt>
    94f3:	eb b8                	jmp    94ad <pthread_getattr_np+0x26d>
    94f5:	48 8b 05 8c ea 20 00 	mov    rax,QWORD PTR [rip+0x20ea8c]        # 217f88 <_DYNAMIC+0x238>
    94fc:	64 44 8b 30          	mov    r14d,DWORD PTR fs:[rax]
    9500:	eb b3                	jmp    94b5 <pthread_getattr_np+0x275>
    9502:	48 8b 74 24 10       	mov    rsi,QWORD PTR [rsp+0x10]
    9507:	48 8b 44 24 18       	mov    rax,QWORD PTR [rsp+0x18]
    950c:	48 89 ef             	mov    rdi,rbp
    950f:	48 8b 6c 24 08       	mov    rbp,QWORD PTR [rsp+0x8]
    9514:	48 8b 1c 24          	mov    rbx,QWORD PTR [rsp]
    9518:	48 89 f1             	mov    rcx,rsi
    951b:	48 f7 d9             	neg    rcx
    951e:	48 21 c8             	and    rax,rcx
    9521:	48 01 f0             	add    rax,rsi
    9524:	48 89 c6             	mov    rsi,rax
    9527:	48 03 74 24 40       	add    rsi,QWORD PTR [rsp+0x40]
    952c:	48 89 45 18          	mov    QWORD PTR [rbp+0x18],rax
    9530:	48 29 f8             	sub    rax,rdi
    9533:	48 29 d6             	sub    rsi,rdx
    9536:	48 89 f2             	mov    rdx,rsi
    9539:	48 21 ca             	and    rdx,rcx
    953c:	48 39 c2             	cmp    rdx,rax
    953f:	77 09                	ja     954a <pthread_getattr_np+0x30a>
    9541:	48 89 55 20          	mov    QWORD PTR [rbp+0x20],rdx
    9545:	45 31 f6             	xor    r14d,r14d
    9548:	eb 9f                	jmp    94e9 <pthread_getattr_np+0x2a9>
    954a:	48 89 45 20          	mov    QWORD PTR [rbp+0x20],rax
    954e:	45 31 f6             	xor    r14d,r14d
    9551:	eb 96                	jmp    94e9 <pthread_getattr_np+0x2a9>
    9553:	48 8d 0d 86 9a 00 00 	lea    rcx,[rip+0x9a86]        # 12fe0 <__PRETTY_FUNCTION__.9945>
    955a:	48 8d 35 1b 9a 00 00 	lea    rsi,[rip+0x9a1b]        # 12f7c <_thread_db_pthread_list+0xc>
    9561:	48 8d 3d 48 9a 00 00 	lea    rdi,[rip+0x9a48]        # 12fb0 <_thread_db_pthread_list+0x40>
    9568:	ba 47 00 00 00       	mov    edx,0x47
    956d:	e8 5e c1 ff ff       	call   56d0 <__assert_fail@plt>
    9572:	4c 89 ef             	mov    rdi,r13
    9575:	e8 46 c0 ff ff       	call   55c0 <free@plt>
    957a:	41 83 fe 26          	cmp    r14d,0x26
    957e:	0f 85 a7 fd ff ff    	jne    932b <pthread_getattr_np+0xeb>
    9584:	48 c7 45 28 00 00 00 	mov    QWORD PTR [rbp+0x28],0x0
    958b:	00 
    958c:	48 c7 45 30 00 00 00 	mov    QWORD PTR [rbp+0x30],0x0
    9593:	00 
    9594:	45 31 f6             	xor    r14d,r14d
    9597:	e9 8f fd ff ff       	jmp    932b <pthread_getattr_np+0xeb>
    959c:	0f 1f 40 00          	nop    DWORD PTR [rax+0x0]

00000000000095a0 <__pthread_mutex_init>:
    95a0:	48 83 ec 18          	sub    rsp,0x18
    95a4:	48 85 f6             	test   rsi,rsi
    95a7:	74 27                	je     95d0 <__pthread_mutex_init+0x30>
    95a9:	8b 16                	mov    edx,DWORD PTR [rsi]
    95ab:	89 d0                	mov    eax,edx
    95ad:	25 00 00 00 30       	and    eax,0x30000000
    95b2:	74 23                	je     95d7 <__pthread_mutex_init+0x37>
    95b4:	3d 00 00 00 10       	cmp    eax,0x10000000
    95b9:	74 1c                	je     95d7 <__pthread_mutex_init+0x37>
    95bb:	81 e2 00 00 00 40    	and    edx,0x40000000
    95c1:	b8 5f 00 00 00       	mov    eax,0x5f
    95c6:	74 0f                	je     95d7 <__pthread_mutex_init+0x37>
    95c8:	48 83 c4 18          	add    rsp,0x18
    95cc:	c3                   	ret    
    95cd:	0f 1f 00             	nop    DWORD PTR [rax]
    95d0:	48 8d 35 1d 9a 00 00 	lea    rsi,[rip+0x9a1d]        # 12ff4 <default_mutexattr>
    95d7:	48 c7 47 10 00 00 00 	mov    QWORD PTR [rdi+0x10],0x0
    95de:	00 
    95df:	48 c7 07 00 00 00 00 	mov    QWORD PTR [rdi],0x0
    95e6:	48 c7 47 08 00 00 00 	mov    QWORD PTR [rdi+0x8],0x0
    95ed:	00 
    95ee:	48 c7 47 18 00 00 00 	mov    QWORD PTR [rdi+0x18],0x0
    95f5:	00 
    95f6:	48 c7 47 20 00 00 00 	mov    QWORD PTR [rdi+0x20],0x0
    95fd:	00 
    95fe:	8b 06                	mov    eax,DWORD PTR [rsi]
    9600:	25 ff 0f 00 0f       	and    eax,0xf000fff
    9605:	89 47 10             	mov    DWORD PTR [rdi+0x10],eax
    9608:	8b 16                	mov    edx,DWORD PTR [rsi]
    960a:	f7 c2 00 00 00 40    	test   edx,0x40000000
    9610:	74 08                	je     961a <__pthread_mutex_init+0x7a>
    9612:	83 c8 10             	or     eax,0x10
    9615:	89 47 10             	mov    DWORD PTR [rdi+0x10],eax
    9618:	8b 16                	mov    edx,DWORD PTR [rsi]
    961a:	89 d1                	mov    ecx,edx
    961c:	81 e1 00 00 00 30    	and    ecx,0x30000000
    9622:	81 f9 00 00 00 10    	cmp    ecx,0x10000000
    9628:	74 3e                	je     9668 <__pthread_mutex_init+0xc8>
    962a:	81 f9 00 00 00 20    	cmp    ecx,0x20000000
    9630:	75 1b                	jne    964d <__pthread_mutex_init+0xad>
    9632:	83 c8 40             	or     eax,0x40
    9635:	89 47 10             	mov    DWORD PTR [rdi+0x10],eax
    9638:	8b 06                	mov    eax,DWORD PTR [rsi]
    963a:	25 00 f0 ff 00       	and    eax,0xfff000
    963f:	c1 f8 0c             	sar    eax,0xc
    9642:	85 c0                	test   eax,eax
    9644:	74 32                	je     9678 <__pthread_mutex_init+0xd8>
    9646:	c1 e0 13             	shl    eax,0x13
    9649:	89 07                	mov    DWORD PTR [rdi],eax
    964b:	8b 16                	mov    edx,DWORD PTR [rsi]
    964d:	81 e2 00 00 00 c0    	and    edx,0xc0000000
    9653:	74 07                	je     965c <__pthread_mutex_init+0xbc>
    9655:	81 4f 10 80 00 00 00 	or     DWORD PTR [rdi+0x10],0x80
    965c:	90                   	nop
    965d:	31 c0                	xor    eax,eax
    965f:	48 83 c4 18          	add    rsp,0x18
    9663:	c3                   	ret    
    9664:	0f 1f 40 00          	nop    DWORD PTR [rax+0x0]
    9668:	83 c8 20             	or     eax,0x20
    966b:	89 47 10             	mov    DWORD PTR [rdi+0x10],eax
    966e:	8b 16                	mov    edx,DWORD PTR [rsi]
    9670:	eb db                	jmp    964d <__pthread_mutex_init+0xad>
    9672:	66 0f 1f 44 00 00    	nop    WORD PTR [rax+rax*1+0x0]
    9678:	8b 05 0e ec 20 00    	mov    eax,DWORD PTR [rip+0x20ec0e]        # 21828c <__sched_fifo_min_prio>
    967e:	83 f8 ff             	cmp    eax,0xffffffff
    9681:	74 14                	je     9697 <__pthread_mutex_init+0xf7>
    9683:	8b 15 03 ec 20 00    	mov    edx,DWORD PTR [rip+0x20ec03]        # 21828c <__sched_fifo_min_prio>
    9689:	31 c0                	xor    eax,eax
    968b:	85 d2                	test   edx,edx
    968d:	7e ba                	jle    9649 <__pthread_mutex_init+0xa9>
    968f:	8b 05 f7 eb 20 00    	mov    eax,DWORD PTR [rip+0x20ebf7]        # 21828c <__sched_fifo_min_prio>
    9695:	eb af                	jmp    9646 <__pthread_mutex_init+0xa6>
    9697:	48 89 74 24 08       	mov    QWORD PTR [rsp+0x8],rsi
    969c:	48 89 3c 24          	mov    QWORD PTR [rsp],rdi
    96a0:	e8 eb 85 00 00       	call   11c90 <__init_sched_fifo_prio>
    96a5:	48 8b 74 24 08       	mov    rsi,QWORD PTR [rsp+0x8]
    96aa:	48 8b 3c 24          	mov    rdi,QWORD PTR [rsp]
    96ae:	eb d3                	jmp    9683 <__pthread_mutex_init+0xe3>

00000000000096b0 <__pthread_mutex_destroy>:
    96b0:	90                   	nop
    96b1:	f6 47 10 10          	test   BYTE PTR [rdi+0x10],0x10
    96b5:	75 11                	jne    96c8 <__pthread_mutex_destroy+0x18>
    96b7:	8b 57 0c             	mov    edx,DWORD PTR [rdi+0xc]
    96ba:	b8 10 00 00 00       	mov    eax,0x10
    96bf:	85 d2                	test   edx,edx
    96c1:	74 05                	je     96c8 <__pthread_mutex_destroy+0x18>
    96c3:	f3 c3                	repz ret 
    96c5:	0f 1f 00             	nop    DWORD PTR [rax]
    96c8:	c7 47 10 ff ff ff ff 	mov    DWORD PTR [rdi+0x10],0xffffffff
    96cf:	31 c0                	xor    eax,eax
    96d1:	c3                   	ret    
    96d2:	66 2e 0f 1f 84 00 00 	nop    WORD PTR cs:[rax+rax*1+0x0]
    96d9:	00 00 00 
    96dc:	0f 1f 40 00          	nop    DWORD PTR [rax+0x0]

00000000000096e0 <__pthread_mutex_lock_full>:
    96e0:	41 57                	push   r15
    96e2:	41 56                	push   r14
    96e4:	41 55                	push   r13
    96e6:	41 54                	push   r12
    96e8:	55                   	push   rbp
    96e9:	53                   	push   rbx
    96ea:	48 81 ec 88 00 00 00 	sub    rsp,0x88
    96f1:	64 8b 2c 25 d0 02 00 	mov    ebp,DWORD PTR fs:0x2d0
    96f8:	00 
    96f9:	8b 47 10             	mov    eax,DWORD PTR [rdi+0x10]
    96fc:	89 c1                	mov    ecx,eax
    96fe:	83 e1 7f             	and    ecx,0x7f
    9701:	83 e9 10             	sub    ecx,0x10
    9704:	83 f9 33             	cmp    ecx,0x33
    9707:	76 17                	jbe    9720 <__pthread_mutex_lock_full+0x40>
    9709:	b8 16 00 00 00       	mov    eax,0x16
    970e:	48 81 c4 88 00 00 00 	add    rsp,0x88
    9715:	5b                   	pop    rbx
    9716:	5d                   	pop    rbp
    9717:	41 5c                	pop    r12
    9719:	41 5d                	pop    r13
    971b:	41 5e                	pop    r14
    971d:	41 5f                	pop    r15
    971f:	c3                   	ret    
    9720:	ba 01 00 00 00       	mov    edx,0x1
    9725:	48 89 fb             	mov    rbx,rdi
    9728:	48 d3 e2             	shl    rdx,cl
    972b:	48 b9 00 00 0f 00 0f 	movabs rcx,0xf000f0000
    9732:	00 00 00 
    9735:	48 85 ca             	test   rdx,rcx
    9738:	0f 84 ec 00 00 00    	je     982a <__pthread_mutex_lock_full+0x14a>
    973e:	41 89 c1             	mov    r9d,eax
    9741:	41 83 e1 03          	and    r9d,0x3
    9745:	83 e0 10             	and    eax,0x10
    9748:	41 89 c0             	mov    r8d,eax
    974b:	74 11                	je     975e <__pthread_mutex_lock_full+0x7e>
    974d:	48 8d 47 20          	lea    rax,[rdi+0x20]
    9751:	48 83 c8 01          	or     rax,0x1
    9755:	64 48 89 04 25 f0 02 	mov    QWORD PTR fs:0x2f0,rax
    975c:	00 00 
    975e:	8b 03                	mov    eax,DWORD PTR [rbx]
    9760:	25 ff ff ff 3f       	and    eax,0x3fffffff
    9765:	39 c5                	cmp    ebp,eax
    9767:	0f 84 33 04 00 00    	je     9ba0 <__pthread_mutex_lock_full+0x4c0>
    976d:	31 c0                	xor    eax,eax
    976f:	f0 0f b1 2b          	lock cmpxchg DWORD PTR [rbx],ebp
    9773:	85 c0                	test   eax,eax
    9775:	0f 84 b2 01 00 00    	je     992d <__pthread_mutex_lock_full+0x24d>
    977b:	45 85 c0             	test   r8d,r8d
    977e:	be 06 00 00 00       	mov    esi,0x6
    9783:	75 10                	jne    9795 <__pthread_mutex_lock_full+0xb5>
    9785:	8b 73 10             	mov    esi,DWORD PTR [rbx+0x10]
    9788:	81 e6 80 00 00 00    	and    esi,0x80
    978e:	40 80 f6 86          	xor    sil,0x86
    9792:	48 63 f6             	movsxd rsi,esi
    9795:	45 31 d2             	xor    r10d,r10d
    9798:	ba 01 00 00 00       	mov    edx,0x1
    979d:	48 89 df             	mov    rdi,rbx
    97a0:	b8 ca 00 00 00       	mov    eax,0xca
    97a5:	0f 05                	syscall 
    97a7:	3d 00 f0 ff ff       	cmp    eax,0xfffff000
    97ac:	0f 86 4f 01 00 00    	jbe    9901 <__pthread_mutex_lock_full+0x221>
    97b2:	89 c2                	mov    edx,eax
    97b4:	83 e2 df             	and    edx,0xffffffdf
    97b7:	83 fa dd             	cmp    edx,0xffffffdd
    97ba:	0f 85 41 01 00 00    	jne    9901 <__pthread_mutex_lock_full+0x221>
    97c0:	83 f8 dd             	cmp    eax,0xffffffdd
    97c3:	0f 84 53 04 00 00    	je     9c1c <__pthread_mutex_lock_full+0x53c>
    97c9:	83 f8 fd             	cmp    eax,0xfffffffd
    97cc:	75 09                	jne    97d7 <__pthread_mutex_lock_full+0xf7>
    97ce:	45 85 c0             	test   r8d,r8d
    97d1:	0f 85 ff 03 00 00    	jne    9bd6 <__pthread_mutex_lock_full+0x4f6>
    97d7:	48 8b 2d aa e7 20 00 	mov    rbp,QWORD PTR [rip+0x20e7aa]        # 217f88 <_DYNAMIC+0x238>
    97de:	49 89 e0             	mov    r8,rsp
    97e1:	41 b9 0e 00 00 00    	mov    r9d,0xe
    97e7:	bb 82 00 00 00       	mov    ebx,0x82
    97ec:	0f 1f 40 00          	nop    DWORD PTR [rax+0x0]
    97f0:	41 ba 08 00 00 00    	mov    r10d,0x8
    97f6:	4c 89 c2             	mov    rdx,r8
    97f9:	31 f6                	xor    esi,esi
    97fb:	31 ff                	xor    edi,edi
    97fd:	44 89 c8             	mov    eax,r9d
    9800:	0f 05                	syscall 
    9802:	48 3d 00 f0 ff ff    	cmp    rax,0xfffffffffffff000
    9808:	77 18                	ja     9822 <__pthread_mutex_lock_full+0x142>
    980a:	85 c0                	test   eax,eax
    980c:	75 e2                	jne    97f0 <__pthread_mutex_lock_full+0x110>
    980e:	be 08 00 00 00       	mov    esi,0x8
    9813:	4c 89 c7             	mov    rdi,r8
    9816:	89 d8                	mov    eax,ebx
    9818:	0f 05                	syscall 
    981a:	48 3d 00 f0 ff ff    	cmp    rax,0xfffffffffffff000
    9820:	76 ce                	jbe    97f0 <__pthread_mutex_lock_full+0x110>
    9822:	f7 d8                	neg    eax
    9824:	64 89 45 00          	mov    DWORD PTR fs:[rbp+0x0],eax
    9828:	eb c6                	jmp    97f0 <__pthread_mutex_lock_full+0x110>
    982a:	f6 c2 0f             	test   dl,0xf
    982d:	0f 85 65 01 00 00    	jne    9998 <__pthread_mutex_lock_full+0x2b8>
    9833:	48 b9 00 00 00 00 00 	movabs rcx,0xf000000000000
    983a:	00 0f 00 
    983d:	48 85 ca             	test   rdx,rcx
    9840:	0f 84 c3 fe ff ff    	je     9709 <__pthread_mutex_lock_full+0x29>
    9846:	3b 6f 08             	cmp    ebp,DWORD PTR [rdi+0x8]
    9849:	8b 0f                	mov    ecx,DWORD PTR [rdi]
    984b:	41 bc ff ff ff ff    	mov    r12d,0xffffffff
    9851:	0f 84 9e 03 00 00    	je     9bf5 <__pthread_mutex_lock_full+0x515>
    9857:	41 be ca 00 00 00    	mov    r14d,0xca
    985d:	c1 e9 13             	shr    ecx,0x13
    9860:	41 89 cd             	mov    r13d,ecx
    9863:	e8 e8 87 00 00       	call   12050 <__pthread_current_priority>
    9868:	41 39 c5             	cmp    r13d,eax
    986b:	0f 8c d8 03 00 00    	jl     9c49 <__pthread_mutex_lock_full+0x569>
    9871:	44 89 ee             	mov    esi,r13d
    9874:	44 89 e7             	mov    edi,r12d
    9877:	e8 44 84 00 00       	call   11cc0 <__pthread_tpp_change_priority>
    987c:	85 c0                	test   eax,eax
    987e:	0f 85 8a fe ff ff    	jne    970e <__pthread_mutex_lock_full+0x2e>
    9884:	45 89 e8             	mov    r8d,r13d
    9887:	41 c1 e0 13          	shl    r8d,0x13
    988b:	45 89 c4             	mov    r12d,r8d
    988e:	44 89 c0             	mov    eax,r8d
    9891:	41 83 cc 01          	or     r12d,0x1
    9895:	f0 44 0f b1 23       	lock cmpxchg DWORD PTR [rbx],r12d
    989a:	41 39 c0             	cmp    r8d,eax
    989d:	0f 84 cf 02 00 00    	je     9b72 <__pthread_mutex_lock_full+0x492>
    98a3:	45 89 c1             	mov    r9d,r8d
    98a6:	41 83 c9 02          	or     r9d,0x2
    98aa:	4d 63 f9             	movsxd r15,r9d
    98ad:	eb 33                	jmp    98e2 <__pthread_mutex_lock_full+0x202>
    98af:	90                   	nop
    98b0:	41 39 c0             	cmp    r8d,eax
    98b3:	74 1c                	je     98d1 <__pthread_mutex_lock_full+0x1f1>
    98b5:	8b 73 10             	mov    esi,DWORD PTR [rbx+0x10]
    98b8:	45 31 d2             	xor    r10d,r10d
    98bb:	4c 89 fa             	mov    rdx,r15
    98be:	48 89 df             	mov    rdi,rbx
    98c1:	44 89 f0             	mov    eax,r14d
    98c4:	f7 d6                	not    esi
    98c6:	81 e6 80 00 00 00    	and    esi,0x80
    98cc:	48 63 f6             	movsxd rsi,esi
    98cf:	0f 05                	syscall 
    98d1:	44 89 c0             	mov    eax,r8d
    98d4:	f0 44 0f b1 0b       	lock cmpxchg DWORD PTR [rbx],r9d
    98d9:	41 39 c0             	cmp    r8d,eax
    98dc:	0f 84 90 02 00 00    	je     9b72 <__pthread_mutex_lock_full+0x492>
    98e2:	44 89 e0             	mov    eax,r12d
    98e5:	f0 44 0f b1 0b       	lock cmpxchg DWORD PTR [rbx],r9d
    98ea:	89 c2                	mov    edx,eax
    98ec:	89 c1                	mov    ecx,eax
    98ee:	81 e2 00 00 f8 ff    	and    edx,0xfff80000
    98f4:	41 39 d0             	cmp    r8d,edx
    98f7:	74 b7                	je     98b0 <__pthread_mutex_lock_full+0x1d0>
    98f9:	45 89 ec             	mov    r12d,r13d
    98fc:	e9 5c ff ff ff       	jmp    985d <__pthread_mutex_lock_full+0x17d>
    9901:	45 85 c0             	test   r8d,r8d
    9904:	8b 03                	mov    eax,DWORD PTR [rbx]
    9906:	0f 85 ec 01 00 00    	jne    9af8 <__pthread_mutex_lock_full+0x418>
    990c:	a9 00 00 00 40       	test   eax,0x40000000
    9911:	0f 85 4e 03 00 00    	jne    9c65 <__pthread_mutex_lock_full+0x585>
    9917:	c7 43 04 01 00 00 00 	mov    DWORD PTR [rbx+0x4],0x1
    991e:	89 6b 08             	mov    DWORD PTR [rbx+0x8],ebp
    9921:	83 43 0c 01          	add    DWORD PTR [rbx+0xc],0x1
    9925:	90                   	nop
    9926:	31 c0                	xor    eax,eax
    9928:	e9 e1 fd ff ff       	jmp    970e <__pthread_mutex_lock_full+0x2e>
    992d:	45 85 c0             	test   r8d,r8d
    9930:	74 e5                	je     9917 <__pthread_mutex_lock_full+0x237>
    9932:	81 7b 08 fe ff ff 7f 	cmp    DWORD PTR [rbx+0x8],0x7ffffffe
    9939:	0f 84 4f 03 00 00    	je     9c8e <__pthread_mutex_lock_full+0x5ae>
    993f:	c7 43 04 01 00 00 00 	mov    DWORD PTR [rbx+0x4],0x1
    9946:	64 48 8b 14 25 e0 02 	mov    rdx,QWORD PTR fs:0x2e0
    994d:	00 00 
    994f:	48 8d 43 20          	lea    rax,[rbx+0x20]
    9953:	48 83 e2 fe          	and    rdx,0xfffffffffffffffe
    9957:	48 89 42 f8          	mov    QWORD PTR [rdx-0x8],rax
    995b:	64 48 8b 14 25 e0 02 	mov    rdx,QWORD PTR fs:0x2e0
    9962:	00 00 
    9964:	48 89 53 20          	mov    QWORD PTR [rbx+0x20],rdx
    9968:	48 83 c8 01          	or     rax,0x1
    996c:	64 48 8b 14 25 10 00 	mov    rdx,QWORD PTR fs:0x10
    9973:	00 00 
    9975:	48 81 c2 e0 02 00 00 	add    rdx,0x2e0
    997c:	48 89 53 18          	mov    QWORD PTR [rbx+0x18],rdx
    9980:	64 48 89 04 25 e0 02 	mov    QWORD PTR fs:0x2e0,rax
    9987:	00 00 
    9989:	64 48 c7 04 25 f0 02 	mov    QWORD PTR fs:0x2f0,0x0
    9990:	00 00 00 00 00 00 
    9996:	eb 86                	jmp    991e <__pthread_mutex_lock_full+0x23e>
    9998:	4c 8d 47 20          	lea    r8,[rdi+0x20]
    999c:	64 4c 89 04 25 f0 02 	mov    QWORD PTR fs:0x2f0,r8
    99a3:	00 00 
    99a5:	8b 17                	mov    edx,DWORD PTR [rdi]
    99a7:	45 31 d2             	xor    r10d,r10d
    99aa:	41 b9 80 00 00 00    	mov    r9d,0x80
    99b0:	89 d0                	mov    eax,edx
    99b2:	25 00 00 00 40       	and    eax,0x40000000
    99b7:	0f 85 9b 00 00 00    	jne    9a58 <__pthread_mutex_lock_full+0x378>
    99bd:	81 e2 ff ff ff 3f    	and    edx,0x3fffffff
    99c3:	39 d5                	cmp    ebp,edx
    99c5:	0f 84 ea 00 00 00    	je     9ab5 <__pthread_mutex_lock_full+0x3d5>
    99cb:	89 ef                	mov    edi,ebp
    99cd:	44 89 d0             	mov    eax,r10d
    99d0:	44 89 ce             	mov    esi,r9d
    99d3:	f0 0f b1 3b          	lock cmpxchg DWORD PTR [rbx],edi
    99d7:	74 16                	je     99ef <__pthread_mutex_lock_full+0x30f>
    99d9:	48 8d 3b             	lea    rdi,[rbx]
    99dc:	48 81 ec 80 00 00 00 	sub    rsp,0x80
    99e3:	e8 b8 69 00 00       	call   103a0 <__lll_robust_lock_wait>
