
/afs/.ir/users/n/m/nmosier/lib/libtasn1.so.6.6.0:     file format elf64-x86-64


Disassembly of section .init:

0000000000002ab8 <_init>:
    2ab8:	48 83 ec 08          	sub    rsp,0x8
    2abc:	48 8b 05 0d 05 21 00 	mov    rax,QWORD PTR [rip+0x21050d]        # 212fd0 <_DYNAMIC+0x200>
    2ac3:	48 85 c0             	test   rax,rax
    2ac6:	74 05                	je     2acd <_init+0x15>
    2ac8:	e8 73 03 00 00       	call   2e40 <asn1_length_der@plt+0x10>
    2acd:	48 83 c4 08          	add    rsp,0x8
    2ad1:	c3                   	ret    

Disassembly of section .plt:

0000000000002ae0 <asn1_get_length_ber@plt-0x10>:
    2ae0:	ff 35 22 05 21 00    	push   QWORD PTR [rip+0x210522]        # 213008 <_GLOBAL_OFFSET_TABLE_+0x8>
    2ae6:	ff 25 24 05 21 00    	jmp    QWORD PTR [rip+0x210524]        # 213010 <_GLOBAL_OFFSET_TABLE_+0x10>
    2aec:	0f 1f 40 00          	nop    DWORD PTR [rax+0x0]

0000000000002af0 <asn1_get_length_ber@plt>:
    2af0:	ff 25 22 05 21 00    	jmp    QWORD PTR [rip+0x210522]        # 213018 <_GLOBAL_OFFSET_TABLE_+0x18>
    2af6:	68 00 00 00 00       	push   0x0
    2afb:	e9 e0 ff ff ff       	jmp    2ae0 <_init+0x28>

0000000000002b00 <__snprintf_chk@plt>:
    2b00:	ff 25 1a 05 21 00    	jmp    QWORD PTR [rip+0x21051a]        # 213020 <_GLOBAL_OFFSET_TABLE_+0x20>
    2b06:	68 01 00 00 00       	push   0x1
    2b0b:	e9 d0 ff ff ff       	jmp    2ae0 <_init+0x28>

0000000000002b10 <free@plt>:
    2b10:	ff 25 12 05 21 00    	jmp    QWORD PTR [rip+0x210512]        # 213028 <_GLOBAL_OFFSET_TABLE_+0x28>
    2b16:	68 02 00 00 00       	push   0x2
    2b1b:	e9 c0 ff ff ff       	jmp    2ae0 <_init+0x28>

0000000000002b20 <asn1_octet_der@plt>:
    2b20:	ff 25 0a 05 21 00    	jmp    QWORD PTR [rip+0x21050a]        # 213030 <_GLOBAL_OFFSET_TABLE_+0x30>
    2b26:	68 03 00 00 00       	push   0x3
    2b2b:	e9 b0 ff ff ff       	jmp    2ae0 <_init+0x28>

0000000000002b30 <asn1_find_node@plt>:
    2b30:	ff 25 02 05 21 00    	jmp    QWORD PTR [rip+0x210502]        # 213038 <_GLOBAL_OFFSET_TABLE_+0x38>
    2b36:	68 04 00 00 00       	push   0x4
    2b3b:	e9 a0 ff ff ff       	jmp    2ae0 <_init+0x28>

0000000000002b40 <strverscmp@plt>:
    2b40:	ff 25 fa 04 21 00    	jmp    QWORD PTR [rip+0x2104fa]        # 213040 <_GLOBAL_OFFSET_TABLE_+0x40>
    2b46:	68 05 00 00 00       	push   0x5
    2b4b:	e9 90 ff ff ff       	jmp    2ae0 <_init+0x28>

0000000000002b50 <strcpy@plt>:
    2b50:	ff 25 f2 04 21 00    	jmp    QWORD PTR [rip+0x2104f2]        # 213048 <_GLOBAL_OFFSET_TABLE_+0x48>
    2b56:	68 06 00 00 00       	push   0x6
    2b5b:	e9 80 ff ff ff       	jmp    2ae0 <_init+0x28>

0000000000002b60 <asn1_der_coding@plt>:
    2b60:	ff 25 ea 04 21 00    	jmp    QWORD PTR [rip+0x2104ea]        # 213050 <_GLOBAL_OFFSET_TABLE_+0x50>
    2b66:	68 07 00 00 00       	push   0x7
    2b6b:	e9 70 ff ff ff       	jmp    2ae0 <_init+0x28>

0000000000002b70 <qsort@plt>:
    2b70:	ff 25 e2 04 21 00    	jmp    QWORD PTR [rip+0x2104e2]        # 213058 <_GLOBAL_OFFSET_TABLE_+0x58>
    2b76:	68 08 00 00 00       	push   0x8
    2b7b:	e9 60 ff ff ff       	jmp    2ae0 <_init+0x28>

0000000000002b80 <asn1_bit_der@plt>:
    2b80:	ff 25 da 04 21 00    	jmp    QWORD PTR [rip+0x2104da]        # 213060 <_GLOBAL_OFFSET_TABLE_+0x60>
    2b86:	68 09 00 00 00       	push   0x9
    2b8b:	e9 50 ff ff ff       	jmp    2ae0 <_init+0x28>

0000000000002b90 <asn1_get_tag_der@plt>:
    2b90:	ff 25 d2 04 21 00    	jmp    QWORD PTR [rip+0x2104d2]        # 213068 <_GLOBAL_OFFSET_TABLE_+0x68>
    2b96:	68 0a 00 00 00       	push   0xa
    2b9b:	e9 40 ff ff ff       	jmp    2ae0 <_init+0x28>

0000000000002ba0 <fclose@plt>:
    2ba0:	ff 25 ca 04 21 00    	jmp    QWORD PTR [rip+0x2104ca]        # 213070 <_GLOBAL_OFFSET_TABLE_+0x70>
    2ba6:	68 0b 00 00 00       	push   0xb
    2bab:	e9 30 ff ff ff       	jmp    2ae0 <_init+0x28>

0000000000002bb0 <stpcpy@plt>:
    2bb0:	ff 25 c2 04 21 00    	jmp    QWORD PTR [rip+0x2104c2]        # 213078 <_GLOBAL_OFFSET_TABLE_+0x78>
    2bb6:	68 0c 00 00 00       	push   0xc
    2bbb:	e9 20 ff ff ff       	jmp    2ae0 <_init+0x28>

0000000000002bc0 <strlen@plt>:
    2bc0:	ff 25 ba 04 21 00    	jmp    QWORD PTR [rip+0x2104ba]        # 213080 <_GLOBAL_OFFSET_TABLE_+0x80>
    2bc6:	68 0d 00 00 00       	push   0xd
    2bcb:	e9 10 ff ff ff       	jmp    2ae0 <_init+0x28>

0000000000002bd0 <__stack_chk_fail@plt>:
    2bd0:	ff 25 b2 04 21 00    	jmp    QWORD PTR [rip+0x2104b2]        # 213088 <_GLOBAL_OFFSET_TABLE_+0x88>
    2bd6:	68 0e 00 00 00       	push   0xe
    2bdb:	e9 00 ff ff ff       	jmp    2ae0 <_init+0x28>

0000000000002be0 <strchr@plt>:
    2be0:	ff 25 aa 04 21 00    	jmp    QWORD PTR [rip+0x2104aa]        # 213090 <_GLOBAL_OFFSET_TABLE_+0x90>
    2be6:	68 0f 00 00 00       	push   0xf
    2beb:	e9 f0 fe ff ff       	jmp    2ae0 <_init+0x28>

0000000000002bf0 <asn1_create_element@plt>:
    2bf0:	ff 25 a2 04 21 00    	jmp    QWORD PTR [rip+0x2104a2]        # 213098 <_GLOBAL_OFFSET_TABLE_+0x98>
    2bf6:	68 10 00 00 00       	push   0x10
    2bfb:	e9 e0 fe ff ff       	jmp    2ae0 <_init+0x28>

0000000000002c00 <snprintf@plt>:
    2c00:	ff 25 9a 04 21 00    	jmp    QWORD PTR [rip+0x21049a]        # 2130a0 <_GLOBAL_OFFSET_TABLE_+0xa0>
    2c06:	68 11 00 00 00       	push   0x11
    2c0b:	e9 d0 fe ff ff       	jmp    2ae0 <_init+0x28>

0000000000002c10 <fputs@plt>:
    2c10:	ff 25 92 04 21 00    	jmp    QWORD PTR [rip+0x210492]        # 2130a8 <_GLOBAL_OFFSET_TABLE_+0xa8>
    2c16:	68 12 00 00 00       	push   0x12
    2c1b:	e9 c0 fe ff ff       	jmp    2ae0 <_init+0x28>

0000000000002c20 <asn1_get_object_id_der@plt>:
    2c20:	ff 25 8a 04 21 00    	jmp    QWORD PTR [rip+0x21048a]        # 2130b0 <_GLOBAL_OFFSET_TABLE_+0xb0>
    2c26:	68 13 00 00 00       	push   0x13
    2c2b:	e9 b0 fe ff ff       	jmp    2ae0 <_init+0x28>

0000000000002c30 <asn1_delete_structure@plt>:
    2c30:	ff 25 82 04 21 00    	jmp    QWORD PTR [rip+0x210482]        # 2130b8 <_GLOBAL_OFFSET_TABLE_+0xb8>
    2c36:	68 14 00 00 00       	push   0x14
    2c3b:	e9 a0 fe ff ff       	jmp    2ae0 <_init+0x28>

0000000000002c40 <memset@plt>:
    2c40:	ff 25 7a 04 21 00    	jmp    QWORD PTR [rip+0x21047a]        # 2130c0 <_GLOBAL_OFFSET_TABLE_+0xc0>
    2c46:	68 15 00 00 00       	push   0x15
    2c4b:	e9 90 fe ff ff       	jmp    2ae0 <_init+0x28>

0000000000002c50 <strncat@plt>:
    2c50:	ff 25 72 04 21 00    	jmp    QWORD PTR [rip+0x210472]        # 2130c8 <_GLOBAL_OFFSET_TABLE_+0xc8>
    2c56:	68 16 00 00 00       	push   0x16
    2c5b:	e9 80 fe ff ff       	jmp    2ae0 <_init+0x28>

0000000000002c60 <fgetc@plt>:
    2c60:	ff 25 6a 04 21 00    	jmp    QWORD PTR [rip+0x21046a]        # 2130d0 <_GLOBAL_OFFSET_TABLE_+0xd0>
    2c66:	68 17 00 00 00       	push   0x17
    2c6b:	e9 70 fe ff ff       	jmp    2ae0 <_init+0x28>

0000000000002c70 <fputc@plt>:
    2c70:	ff 25 62 04 21 00    	jmp    QWORD PTR [rip+0x210462]        # 2130d8 <_GLOBAL_OFFSET_TABLE_+0xd8>
    2c76:	68 18 00 00 00       	push   0x18
    2c7b:	e9 60 fe ff ff       	jmp    2ae0 <_init+0x28>

0000000000002c80 <__strdup@plt>:
    2c80:	ff 25 5a 04 21 00    	jmp    QWORD PTR [rip+0x21045a]        # 2130e0 <_GLOBAL_OFFSET_TABLE_+0xe0>
    2c86:	68 19 00 00 00       	push   0x19
    2c8b:	e9 50 fe ff ff       	jmp    2ae0 <_init+0x28>

0000000000002c90 <memcmp@plt>:
    2c90:	ff 25 52 04 21 00    	jmp    QWORD PTR [rip+0x210452]        # 2130e8 <_GLOBAL_OFFSET_TABLE_+0xe8>
    2c96:	68 1a 00 00 00       	push   0x1a
    2c9b:	e9 40 fe ff ff       	jmp    2ae0 <_init+0x28>

0000000000002ca0 <asn1_strerror@plt>:
    2ca0:	ff 25 4a 04 21 00    	jmp    QWORD PTR [rip+0x21044a]        # 2130f0 <_GLOBAL_OFFSET_TABLE_+0xf0>
    2ca6:	68 1b 00 00 00       	push   0x1b
    2cab:	e9 30 fe ff ff       	jmp    2ae0 <_init+0x28>

0000000000002cb0 <calloc@plt>:
    2cb0:	ff 25 42 04 21 00    	jmp    QWORD PTR [rip+0x210442]        # 2130f8 <_GLOBAL_OFFSET_TABLE_+0xf8>
    2cb6:	68 1c 00 00 00       	push   0x1c
    2cbb:	e9 20 fe ff ff       	jmp    2ae0 <_init+0x28>

0000000000002cc0 <strcmp@plt>:
    2cc0:	ff 25 3a 04 21 00    	jmp    QWORD PTR [rip+0x21043a]        # 213100 <_GLOBAL_OFFSET_TABLE_+0x100>
    2cc6:	68 1d 00 00 00       	push   0x1d
    2ccb:	e9 10 fe ff ff       	jmp    2ae0 <_init+0x28>

0000000000002cd0 <__memcpy_chk@plt>:
    2cd0:	ff 25 32 04 21 00    	jmp    QWORD PTR [rip+0x210432]        # 213108 <_GLOBAL_OFFSET_TABLE_+0x108>
    2cd6:	68 1e 00 00 00       	push   0x1e
    2cdb:	e9 00 fe ff ff       	jmp    2ae0 <_init+0x28>

0000000000002ce0 <strtol@plt>:
    2ce0:	ff 25 2a 04 21 00    	jmp    QWORD PTR [rip+0x21042a]        # 213110 <_GLOBAL_OFFSET_TABLE_+0x110>
    2ce6:	68 1f 00 00 00       	push   0x1f
    2ceb:	e9 f0 fd ff ff       	jmp    2ae0 <_init+0x28>

0000000000002cf0 <memcpy@plt>:
    2cf0:	ff 25 22 04 21 00    	jmp    QWORD PTR [rip+0x210422]        # 213118 <_GLOBAL_OFFSET_TABLE_+0x118>
    2cf6:	68 20 00 00 00       	push   0x20
    2cfb:	e9 e0 fd ff ff       	jmp    2ae0 <_init+0x28>

0000000000002d00 <__stpcpy_chk@plt>:
    2d00:	ff 25 1a 04 21 00    	jmp    QWORD PTR [rip+0x21041a]        # 213120 <_GLOBAL_OFFSET_TABLE_+0x120>
    2d06:	68 21 00 00 00       	push   0x21
    2d0b:	e9 d0 fd ff ff       	jmp    2ae0 <_init+0x28>

0000000000002d10 <malloc@plt>:
    2d10:	ff 25 12 04 21 00    	jmp    QWORD PTR [rip+0x210412]        # 213128 <_GLOBAL_OFFSET_TABLE_+0x128>
    2d16:	68 22 00 00 00       	push   0x22
    2d1b:	e9 c0 fd ff ff       	jmp    2ae0 <_init+0x28>

0000000000002d20 <ungetc@plt>:
    2d20:	ff 25 0a 04 21 00    	jmp    QWORD PTR [rip+0x21040a]        # 213130 <_GLOBAL_OFFSET_TABLE_+0x130>
    2d26:	68 23 00 00 00       	push   0x23
    2d2b:	e9 b0 fd ff ff       	jmp    2ae0 <_init+0x28>

0000000000002d30 <asn1_der_decoding@plt>:
    2d30:	ff 25 02 04 21 00    	jmp    QWORD PTR [rip+0x210402]        # 213138 <_GLOBAL_OFFSET_TABLE_+0x138>
    2d36:	68 24 00 00 00       	push   0x24
    2d3b:	e9 a0 fd ff ff       	jmp    2ae0 <_init+0x28>

0000000000002d40 <realloc@plt>:
    2d40:	ff 25 fa 03 21 00    	jmp    QWORD PTR [rip+0x2103fa]        # 213140 <_GLOBAL_OFFSET_TABLE_+0x140>
    2d46:	68 25 00 00 00       	push   0x25
    2d4b:	e9 90 fd ff ff       	jmp    2ae0 <_init+0x28>

0000000000002d50 <__strcpy_chk@plt>:
    2d50:	ff 25 f2 03 21 00    	jmp    QWORD PTR [rip+0x2103f2]        # 213148 <_GLOBAL_OFFSET_TABLE_+0x148>
    2d56:	68 26 00 00 00       	push   0x26
    2d5b:	e9 80 fd ff ff       	jmp    2ae0 <_init+0x28>

0000000000002d60 <asn1_read_value@plt>:
    2d60:	ff 25 ea 03 21 00    	jmp    QWORD PTR [rip+0x2103ea]        # 213150 <_GLOBAL_OFFSET_TABLE_+0x150>
    2d66:	68 27 00 00 00       	push   0x27
    2d6b:	e9 70 fd ff ff       	jmp    2ae0 <_init+0x28>

0000000000002d70 <memmove@plt>:
    2d70:	ff 25 e2 03 21 00    	jmp    QWORD PTR [rip+0x2103e2]        # 213158 <_GLOBAL_OFFSET_TABLE_+0x158>
    2d76:	68 28 00 00 00       	push   0x28
    2d7b:	e9 60 fd ff ff       	jmp    2ae0 <_init+0x28>

0000000000002d80 <asn1_get_bit_der@plt>:
    2d80:	ff 25 da 03 21 00    	jmp    QWORD PTR [rip+0x2103da]        # 213160 <_GLOBAL_OFFSET_TABLE_+0x160>
    2d86:	68 29 00 00 00       	push   0x29
    2d8b:	e9 50 fd ff ff       	jmp    2ae0 <_init+0x28>

0000000000002d90 <fopen@plt>:
    2d90:	ff 25 d2 03 21 00    	jmp    QWORD PTR [rip+0x2103d2]        # 213168 <_GLOBAL_OFFSET_TABLE_+0x168>
    2d96:	68 2a 00 00 00       	push   0x2a
    2d9b:	e9 40 fd ff ff       	jmp    2ae0 <_init+0x28>

0000000000002da0 <asn1_get_length_der@plt>:
    2da0:	ff 25 ca 03 21 00    	jmp    QWORD PTR [rip+0x2103ca]        # 213170 <_GLOBAL_OFFSET_TABLE_+0x170>
    2da6:	68 2b 00 00 00       	push   0x2b
    2dab:	e9 30 fd ff ff       	jmp    2ae0 <_init+0x28>

0000000000002db0 <strtoul@plt>:
    2db0:	ff 25 c2 03 21 00    	jmp    QWORD PTR [rip+0x2103c2]        # 213178 <_GLOBAL_OFFSET_TABLE_+0x178>
    2db6:	68 2c 00 00 00       	push   0x2c
    2dbb:	e9 20 fd ff ff       	jmp    2ae0 <_init+0x28>

0000000000002dc0 <strcat@plt>:
    2dc0:	ff 25 ba 03 21 00    	jmp    QWORD PTR [rip+0x2103ba]        # 213180 <_GLOBAL_OFFSET_TABLE_+0x180>
    2dc6:	68 2d 00 00 00       	push   0x2d
    2dcb:	e9 10 fd ff ff       	jmp    2ae0 <_init+0x28>

0000000000002dd0 <asn1_read_value_type@plt>:
    2dd0:	ff 25 b2 03 21 00    	jmp    QWORD PTR [rip+0x2103b2]        # 213188 <_GLOBAL_OFFSET_TABLE_+0x188>
    2dd6:	68 2e 00 00 00       	push   0x2e
    2ddb:	e9 00 fd ff ff       	jmp    2ae0 <_init+0x28>

0000000000002de0 <exit@plt>:
    2de0:	ff 25 aa 03 21 00    	jmp    QWORD PTR [rip+0x2103aa]        # 213190 <_GLOBAL_OFFSET_TABLE_+0x190>
    2de6:	68 2f 00 00 00       	push   0x2f
    2deb:	e9 f0 fc ff ff       	jmp    2ae0 <_init+0x28>

0000000000002df0 <fwrite@plt>:
    2df0:	ff 25 a2 03 21 00    	jmp    QWORD PTR [rip+0x2103a2]        # 213198 <_GLOBAL_OFFSET_TABLE_+0x198>
    2df6:	68 30 00 00 00       	push   0x30
    2dfb:	e9 e0 fc ff ff       	jmp    2ae0 <_init+0x28>

0000000000002e00 <asn1_der_decoding2@plt>:
    2e00:	ff 25 9a 03 21 00    	jmp    QWORD PTR [rip+0x21039a]        # 2131a0 <_GLOBAL_OFFSET_TABLE_+0x1a0>
    2e06:	68 31 00 00 00       	push   0x31
    2e0b:	e9 d0 fc ff ff       	jmp    2ae0 <_init+0x28>

0000000000002e10 <__fprintf_chk@plt>:
    2e10:	ff 25 92 03 21 00    	jmp    QWORD PTR [rip+0x210392]        # 2131a8 <_GLOBAL_OFFSET_TABLE_+0x1a8>
    2e16:	68 32 00 00 00       	push   0x32
    2e1b:	e9 c0 fc ff ff       	jmp    2ae0 <_init+0x28>

0000000000002e20 <asn1_get_octet_der@plt>:
    2e20:	ff 25 8a 03 21 00    	jmp    QWORD PTR [rip+0x21038a]        # 2131b0 <_GLOBAL_OFFSET_TABLE_+0x1b0>
    2e26:	68 33 00 00 00       	push   0x33
    2e2b:	e9 b0 fc ff ff       	jmp    2ae0 <_init+0x28>

0000000000002e30 <asn1_length_der@plt>:
    2e30:	ff 25 82 03 21 00    	jmp    QWORD PTR [rip+0x210382]        # 2131b8 <_GLOBAL_OFFSET_TABLE_+0x1b8>
    2e36:	68 34 00 00 00       	push   0x34
    2e3b:	e9 a0 fc ff ff       	jmp    2ae0 <_init+0x28>

Disassembly of section .plt.got:

0000000000002e40 <.plt.got>:
    2e40:	ff 25 8a 01 21 00    	jmp    QWORD PTR [rip+0x21018a]        # 212fd0 <_DYNAMIC+0x200>
    2e46:	66 90                	xchg   ax,ax
    2e48:	ff 25 a2 01 21 00    	jmp    QWORD PTR [rip+0x2101a2]        # 212ff0 <_DYNAMIC+0x220>
    2e4e:	66 90                	xchg   ax,ax

Disassembly of section .text:

0000000000002e50 <deregister_tm_clones>:
    2e50:	48 8d 3d 79 03 21 00 	lea    rdi,[rip+0x210379]        # 2131d0 <__TMC_END__>
    2e57:	48 8d 05 79 03 21 00 	lea    rax,[rip+0x210379]        # 2131d7 <__TMC_END__+0x7>
    2e5e:	55                   	push   rbp
    2e5f:	48 29 f8             	sub    rax,rdi
    2e62:	48 89 e5             	mov    rbp,rsp
    2e65:	48 83 f8 0e          	cmp    rax,0xe
    2e69:	76 15                	jbe    2e80 <deregister_tm_clones+0x30>
    2e6b:	48 8b 05 4e 01 21 00 	mov    rax,QWORD PTR [rip+0x21014e]        # 212fc0 <_DYNAMIC+0x1f0>
    2e72:	48 85 c0             	test   rax,rax
    2e75:	74 09                	je     2e80 <deregister_tm_clones+0x30>
    2e77:	5d                   	pop    rbp
    2e78:	ff e0                	jmp    rax
    2e7a:	66 0f 1f 44 00 00    	nop    WORD PTR [rax+rax*1+0x0]
    2e80:	5d                   	pop    rbp
    2e81:	c3                   	ret    
    2e82:	0f 1f 40 00          	nop    DWORD PTR [rax+0x0]
    2e86:	66 2e 0f 1f 84 00 00 	nop    WORD PTR cs:[rax+rax*1+0x0]
    2e8d:	00 00 00 

0000000000002e90 <register_tm_clones>:
    2e90:	48 8d 3d 39 03 21 00 	lea    rdi,[rip+0x210339]        # 2131d0 <__TMC_END__>
    2e97:	48 8d 35 32 03 21 00 	lea    rsi,[rip+0x210332]        # 2131d0 <__TMC_END__>
    2e9e:	55                   	push   rbp
    2e9f:	48 29 fe             	sub    rsi,rdi
    2ea2:	48 89 e5             	mov    rbp,rsp
    2ea5:	48 c1 fe 03          	sar    rsi,0x3
    2ea9:	48 89 f0             	mov    rax,rsi
    2eac:	48 c1 e8 3f          	shr    rax,0x3f
    2eb0:	48 01 c6             	add    rsi,rax
    2eb3:	48 d1 fe             	sar    rsi,1
    2eb6:	74 18                	je     2ed0 <register_tm_clones+0x40>
    2eb8:	48 8b 05 29 01 21 00 	mov    rax,QWORD PTR [rip+0x210129]        # 212fe8 <_DYNAMIC+0x218>
    2ebf:	48 85 c0             	test   rax,rax
    2ec2:	74 0c                	je     2ed0 <register_tm_clones+0x40>
    2ec4:	5d                   	pop    rbp
    2ec5:	ff e0                	jmp    rax
    2ec7:	66 0f 1f 84 00 00 00 	nop    WORD PTR [rax+rax*1+0x0]
    2ece:	00 00 
    2ed0:	5d                   	pop    rbp
    2ed1:	c3                   	ret    
    2ed2:	0f 1f 40 00          	nop    DWORD PTR [rax+0x0]
    2ed6:	66 2e 0f 1f 84 00 00 	nop    WORD PTR cs:[rax+rax*1+0x0]
    2edd:	00 00 00 

0000000000002ee0 <__do_global_dtors_aux>:
    2ee0:	80 3d f9 02 21 00 00 	cmp    BYTE PTR [rip+0x2102f9],0x0        # 2131e0 <completed.7594>
    2ee7:	75 27                	jne    2f10 <__do_global_dtors_aux+0x30>
    2ee9:	48 83 3d ff 00 21 00 	cmp    QWORD PTR [rip+0x2100ff],0x0        # 212ff0 <_DYNAMIC+0x220>
    2ef0:	00 
    2ef1:	55                   	push   rbp
    2ef2:	48 89 e5             	mov    rbp,rsp
    2ef5:	74 0c                	je     2f03 <__do_global_dtors_aux+0x23>
    2ef7:	48 8b 3d c2 02 21 00 	mov    rdi,QWORD PTR [rip+0x2102c2]        # 2131c0 <__dso_handle>
    2efe:	e8 45 ff ff ff       	call   2e48 <asn1_length_der@plt+0x18>
    2f03:	e8 48 ff ff ff       	call   2e50 <deregister_tm_clones>
    2f08:	5d                   	pop    rbp
    2f09:	c6 05 d0 02 21 00 01 	mov    BYTE PTR [rip+0x2102d0],0x1        # 2131e0 <completed.7594>
    2f10:	f3 c3                	repz ret 
    2f12:	0f 1f 40 00          	nop    DWORD PTR [rax+0x0]
    2f16:	66 2e 0f 1f 84 00 00 	nop    WORD PTR cs:[rax+rax*1+0x0]
    2f1d:	00 00 00 

0000000000002f20 <frame_dummy>:
    2f20:	48 8d 3d d1 f5 20 00 	lea    rdi,[rip+0x20f5d1]        # 2124f8 <__JCR_END__>
    2f27:	48 83 3f 00          	cmp    QWORD PTR [rdi],0x0
    2f2b:	75 0b                	jne    2f38 <frame_dummy+0x18>
    2f2d:	e9 5e ff ff ff       	jmp    2e90 <register_tm_clones>
    2f32:	66 0f 1f 44 00 00    	nop    WORD PTR [rax+rax*1+0x0]
    2f38:	48 8b 05 a1 00 21 00 	mov    rax,QWORD PTR [rip+0x2100a1]        # 212fe0 <_DYNAMIC+0x210>
    2f3f:	48 85 c0             	test   rax,rax
    2f42:	74 e9                	je     2f2d <frame_dummy+0xd>
    2f44:	55                   	push   rbp
    2f45:	48 89 e5             	mov    rbp,rsp
    2f48:	ff d0                	call   rax
    2f4a:	5d                   	pop    rbp
    2f4b:	e9 40 ff ff ff       	jmp    2e90 <register_tm_clones>

0000000000002f50 <_asn1_create_errorDescription>:
    2f50:	48 83 ec 08          	sub    rsp,0x8
    2f54:	48 85 f6             	test   rsi,rsi
    2f57:	74 50                	je     2fa9 <_asn1_create_errorDescription+0x59>
    2f59:	83 ff 03             	cmp    edi,0x3
    2f5c:	48 89 f0             	mov    rax,rsi
    2f5f:	0f 84 b3 00 00 00    	je     3018 <_asn1_create_errorDescription+0xc8>
    2f65:	7e 49                	jle    2fb0 <_asn1_create_errorDescription+0x60>
    2f67:	83 ff 0b             	cmp    edi,0xb
    2f6a:	0f 84 80 00 00 00    	je     2ff0 <_asn1_create_errorDescription+0xa0>
    2f70:	83 ff 0f             	cmp    edi,0xf
    2f73:	75 73                	jne    2fe8 <_asn1_create_errorDescription+0x98>
    2f75:	8b 15 e5 03 21 00    	mov    edx,DWORD PTR [rip+0x2103e5]        # 213360 <line_number>
    2f7b:	4c 8b 0d ee 02 21 00 	mov    r9,QWORD PTR [rip+0x2102ee]        # 213270 <file_name>
    2f82:	4c 8d 05 37 ba 00 00 	lea    r8,[rip+0xba37]        # e9c0 <_fini+0x4c0>
    2f89:	6a 40                	push   0x40
    2f8b:	52                   	push   rdx
    2f8c:	ba 01 00 00 00       	mov    edx,0x1
    2f91:	48 89 c7             	mov    rdi,rax
    2f94:	48 c7 c1 ff ff ff ff 	mov    rcx,0xffffffffffffffff
    2f9b:	be 80 00 00 00       	mov    esi,0x80
    2fa0:	31 c0                	xor    eax,eax
    2fa2:	e8 59 fb ff ff       	call   2b00 <__snprintf_chk@plt>
    2fa7:	58                   	pop    rax
    2fa8:	5a                   	pop    rdx
    2fa9:	48 83 c4 08          	add    rsp,0x8
    2fad:	c3                   	ret    
    2fae:	66 90                	xchg   ax,ax
    2fb0:	83 ff 01             	cmp    edi,0x1
    2fb3:	75 33                	jne    2fe8 <_asn1_create_errorDescription+0x98>
    2fb5:	4c 8b 0d b4 02 21 00 	mov    r9,QWORD PTR [rip+0x2102b4]        # 213270 <file_name>
    2fbc:	4c 8d 05 5d b5 00 00 	lea    r8,[rip+0xb55d]        # e520 <_fini+0x20>
    2fc3:	48 89 c7             	mov    rdi,rax
    2fc6:	48 c7 c1 ff ff ff ff 	mov    rcx,0xffffffffffffffff
    2fcd:	ba 01 00 00 00       	mov    edx,0x1
    2fd2:	be 80 00 00 00       	mov    esi,0x80
    2fd7:	31 c0                	xor    eax,eax
    2fd9:	48 83 c4 08          	add    rsp,0x8
    2fdd:	e9 1e fb ff ff       	jmp    2b00 <__snprintf_chk@plt>
    2fe2:	66 0f 1f 44 00 00    	nop    WORD PTR [rax+rax*1+0x0]
    2fe8:	c6 00 00             	mov    BYTE PTR [rax],0x0
    2feb:	48 83 c4 08          	add    rsp,0x8
    2fef:	c3                   	ret    
    2ff0:	48 8d 0d e9 02 21 00 	lea    rcx,[rip+0x2102e9]        # 2132e0 <last_error>
    2ff7:	48 8d 15 79 b5 00 00 	lea    rdx,[rip+0xb579]        # e577 <_fini+0x77>
    2ffe:	48 89 c7             	mov    rdi,rax
    3001:	be 80 00 00 00       	mov    esi,0x80
    3006:	31 c0                	xor    eax,eax
    3008:	48 83 c4 08          	add    rsp,0x8
    300c:	e9 ef fb ff ff       	jmp    2c00 <snprintf@plt>
    3011:	0f 1f 80 00 00 00 00 	nop    DWORD PTR [rax+0x0]
    3018:	48 83 ec 08          	sub    rsp,0x8
    301c:	4c 8b 0d 4d 02 21 00 	mov    r9,QWORD PTR [rip+0x21024d]        # 213270 <file_name>
    3023:	ff 35 af ff 20 00    	push   QWORD PTR [rip+0x20ffaf]        # 212fd8 <_DYNAMIC+0x208>
    3029:	4c 8d 05 c0 b9 00 00 	lea    r8,[rip+0xb9c0]        # e9f0 <_fini+0x4f0>
    3030:	e9 57 ff ff ff       	jmp    2f8c <_asn1_create_errorDescription+0x3c>
    3035:	90                   	nop
    3036:	66 2e 0f 1f 84 00 00 	nop    WORD PTR cs:[rax+rax*1+0x0]
    303d:	00 00 00 

0000000000003040 <_asn1_yyerror.part.1>:
    3040:	48 8d 05 39 02 21 00 	lea    rax,[rip+0x210239]        # 213280 <last_token>
    3047:	48 83 ec 10          	sub    rsp,0x10
    304b:	4c 8b 0d 1e 02 21 00 	mov    r9,QWORD PTR [rip+0x21021e]        # 213270 <file_name>
    3052:	4c 8d 05 dd b4 00 00 	lea    r8,[rip+0xb4dd]        # e536 <_fini+0x36>
    3059:	b9 80 00 00 00       	mov    ecx,0x80
    305e:	ba 01 00 00 00       	mov    edx,0x1
    3063:	50                   	push   rax
    3064:	8b 05 f6 02 21 00    	mov    eax,DWORD PTR [rip+0x2102f6]        # 213360 <line_number>
    306a:	be 80 00 00 00       	mov    esi,0x80
    306f:	57                   	push   rdi
    3070:	48 8d 3d 69 02 21 00 	lea    rdi,[rip+0x210269]        # 2132e0 <last_error>
    3077:	50                   	push   rax
    3078:	31 c0                	xor    eax,eax
    307a:	e8 81 fa ff ff       	call   2b00 <__snprintf_chk@plt>
    307f:	c7 05 e7 02 21 00 0b 	mov    DWORD PTR [rip+0x2102e7],0xb        # 213370 <result_parse>
    3086:	00 00 00 
    3089:	48 83 c4 28          	add    rsp,0x28
    308d:	c3                   	ret    
    308e:	66 90                	xchg   ax,ax

0000000000003090 <yytnamerr>:
    3090:	80 3e 22             	cmp    BYTE PTR [rsi],0x22
    3093:	74 1b                	je     30b0 <yytnamerr+0x20>
    3095:	48 85 ff             	test   rdi,rdi
    3098:	74 76                	je     3110 <yytnamerr+0x80>
    309a:	53                   	push   rbx
    309b:	48 89 fb             	mov    rbx,rdi
    309e:	e8 0d fb ff ff       	call   2bb0 <stpcpy@plt>
    30a3:	48 29 d8             	sub    rax,rbx
    30a6:	5b                   	pop    rbx
    30a7:	f3 c3                	repz ret 
    30a9:	0f 1f 80 00 00 00 00 	nop    DWORD PTR [rax+0x0]
    30b0:	48 89 f1             	mov    rcx,rsi
    30b3:	31 c0                	xor    eax,eax
    30b5:	0f b6 51 01          	movzx  edx,BYTE PTR [rcx+0x1]
    30b9:	80 fa 27             	cmp    dl,0x27
    30bc:	74 d7                	je     3095 <yytnamerr+0x5>
    30be:	7e 30                	jle    30f0 <yytnamerr+0x60>
    30c0:	80 fa 2c             	cmp    dl,0x2c
    30c3:	74 d0                	je     3095 <yytnamerr+0x5>
    30c5:	80 fa 5c             	cmp    dl,0x5c
    30c8:	75 36                	jne    3100 <yytnamerr+0x70>
    30ca:	80 79 02 5c          	cmp    BYTE PTR [rcx+0x2],0x5c
    30ce:	48 8d 51 02          	lea    rdx,[rcx+0x2]
    30d2:	75 c1                	jne    3095 <yytnamerr+0x5>
    30d4:	48 89 d1             	mov    rcx,rdx
    30d7:	48 85 ff             	test   rdi,rdi
    30da:	74 06                	je     30e2 <yytnamerr+0x52>
    30dc:	0f b6 11             	movzx  edx,BYTE PTR [rcx]
    30df:	88 14 07             	mov    BYTE PTR [rdi+rax*1],dl
    30e2:	48 83 c0 01          	add    rax,0x1
    30e6:	eb cd                	jmp    30b5 <yytnamerr+0x25>
    30e8:	0f 1f 84 00 00 00 00 	nop    DWORD PTR [rax+rax*1+0x0]
    30ef:	00 
    30f0:	80 fa 22             	cmp    dl,0x22
    30f3:	75 0b                	jne    3100 <yytnamerr+0x70>
    30f5:	48 85 ff             	test   rdi,rdi
    30f8:	74 ad                	je     30a7 <yytnamerr+0x17>
    30fa:	c6 04 07 00          	mov    BYTE PTR [rdi+rax*1],0x0
    30fe:	c3                   	ret    
    30ff:	90                   	nop
    3100:	48 83 c1 01          	add    rcx,0x1
    3104:	eb d1                	jmp    30d7 <yytnamerr+0x47>
    3106:	66 2e 0f 1f 84 00 00 	nop    WORD PTR cs:[rax+rax*1+0x0]
    310d:	00 00 00 
    3110:	48 89 f7             	mov    rdi,rsi
    3113:	e9 a8 fa ff ff       	jmp    2bc0 <strlen@plt>
    3118:	0f 1f 84 00 00 00 00 	nop    DWORD PTR [rax+rax*1+0x0]
    311f:	00 

0000000000003120 <yysyntax_error>:
    3120:	41 57                	push   r15
    3122:	41 56                	push   r14
    3124:	41 55                	push   r13
    3126:	41 54                	push   r12
    3128:	55                   	push   rbp
    3129:	53                   	push   rbx
    312a:	89 cb                	mov    ebx,ecx
    312c:	48 89 d5             	mov    rbp,rdx
    312f:	48 83 ec 58          	sub    rsp,0x58
    3133:	48 89 7c 24 10       	mov    QWORD PTR [rsp+0x10],rdi
    3138:	48 8d 3d 41 f5 20 00 	lea    rdi,[rip+0x20f541]        # 212680 <yytname>
    313f:	48 89 74 24 18       	mov    QWORD PTR [rsp+0x18],rsi
    3144:	64 48 8b 04 25 28 00 	mov    rax,QWORD PTR fs:0x28
    314b:	00 00 
    314d:	48 89 44 24 48       	mov    QWORD PTR [rsp+0x48],rax
    3152:	31 c0                	xor    eax,eax
    3154:	48 63 c1             	movsxd rax,ecx
    3157:	4c 8b 3c c7          	mov    r15,QWORD PTR [rdi+rax*8]
    315b:	31 ff                	xor    edi,edi
    315d:	4c 89 fe             	mov    rsi,r15
    3160:	e8 2b ff ff ff       	call   3090 <yytnamerr>
    3165:	83 fb fe             	cmp    ebx,0xfffffffe
    3168:	48 89 44 24 08       	mov    QWORD PTR [rsp+0x8],rax
    316d:	0f 84 fd 00 00 00    	je     3270 <yysyntax_error+0x150>
    3173:	48 0f bf 55 00       	movsx  rdx,WORD PTR [rbp+0x0]
    3178:	49 89 c6             	mov    r14,rax
    317b:	48 8d 05 de c3 00 00 	lea    rax,[rip+0xc3de]        # f560 <yypact>
    3182:	4c 89 7c 24 20       	mov    QWORD PTR [rsp+0x20],r15
    3187:	0f bf 2c 50          	movsx  ebp,WORD PTR [rax+rdx*2]
    318b:	81 fd 74 ff ff ff    	cmp    ebp,0xffffff74
    3191:	0f 84 c9 01 00 00    	je     3360 <yysyntax_error+0x240>
    3197:	89 eb                	mov    ebx,ebp
    3199:	b8 00 00 00 00       	mov    eax,0x0
    319e:	41 b8 f9 00 00 00    	mov    r8d,0xf9
    31a4:	f7 db                	neg    ebx
    31a6:	85 ed                	test   ebp,ebp
    31a8:	0f 49 d8             	cmovns ebx,eax
    31ab:	41 29 e8             	sub    r8d,ebp
    31ae:	b8 3c 00 00 00       	mov    eax,0x3c
    31b3:	41 83 f8 3c          	cmp    r8d,0x3c
    31b7:	45 89 c4             	mov    r12d,r8d
    31ba:	44 0f 4f e0          	cmovg  r12d,eax
    31be:	44 39 e3             	cmp    ebx,r12d
    31c1:	0f 8d 99 01 00 00    	jge    3360 <yysyntax_error+0x240>
    31c7:	4c 8d 2d 92 bd 00 00 	lea    r13,[rip+0xbd92]        # ef60 <yycheck>
    31ce:	b9 01 00 00 00       	mov    ecx,0x1
    31d3:	0f 1f 44 00 00       	nop    DWORD PTR [rax+rax*1+0x0]
    31d8:	8d 54 1d 00          	lea    edx,[rbp+rbx*1+0x0]
    31dc:	48 63 d2             	movsxd rdx,edx
    31df:	41 0f bf 44 55 00    	movsx  eax,WORD PTR [r13+rdx*2+0x0]
    31e5:	39 d8                	cmp    eax,ebx
    31e7:	75 37                	jne    3220 <yysyntax_error+0x100>
    31e9:	83 fb 01             	cmp    ebx,0x1
    31ec:	74 32                	je     3220 <yysyntax_error+0x100>
    31ee:	83 f9 05             	cmp    ecx,0x5
    31f1:	0f 84 69 01 00 00    	je     3360 <yysyntax_error+0x240>
    31f7:	48 8d 3d 82 f4 20 00 	lea    rdi,[rip+0x20f482]        # 212680 <yytname>
    31fe:	48 63 c3             	movsxd rax,ebx
    3201:	44 8d 79 01          	lea    r15d,[rcx+0x1]
    3205:	48 8b 34 c7          	mov    rsi,QWORD PTR [rdi+rax*8]
    3209:	31 ff                	xor    edi,edi
    320b:	48 89 74 cc 20       	mov    QWORD PTR [rsp+rcx*8+0x20],rsi
    3210:	e8 7b fe ff ff       	call   3090 <yytnamerr>
    3215:	4c 01 f0             	add    rax,r14
    3218:	72 2e                	jb     3248 <yysyntax_error+0x128>
    321a:	49 63 cf             	movsxd rcx,r15d
    321d:	49 89 c6             	mov    r14,rax
    3220:	83 c3 01             	add    ebx,0x1
    3223:	41 39 dc             	cmp    r12d,ebx
    3226:	75 b0                	jne    31d8 <yysyntax_error+0xb8>
    3228:	83 f9 05             	cmp    ecx,0x5
    322b:	0f 87 71 01 00 00    	ja     33a2 <yysyntax_error+0x282>
    3231:	48 8d 05 e8 b8 00 00 	lea    rax,[rip+0xb8e8]        # eb20 <_fini+0x620>
    3238:	89 ca                	mov    edx,ecx
    323a:	48 63 14 90          	movsxd rdx,DWORD PTR [rax+rdx*4]
    323e:	48 01 d0             	add    rax,rdx
    3241:	ff e0                	jmp    rax
    3243:	0f 1f 44 00 00       	nop    DWORD PTR [rax+rax*1+0x0]
    3248:	b8 02 00 00 00       	mov    eax,0x2
    324d:	48 8b 7c 24 48       	mov    rdi,QWORD PTR [rsp+0x48]
    3252:	64 48 33 3c 25 28 00 	xor    rdi,QWORD PTR fs:0x28
    3259:	00 00 
    325b:	0f 85 3c 01 00 00    	jne    339d <yysyntax_error+0x27d>
    3261:	48 83 c4 58          	add    rsp,0x58
    3265:	5b                   	pop    rbx
    3266:	5d                   	pop    rbp
    3267:	41 5c                	pop    r12
    3269:	41 5d                	pop    r13
    326b:	41 5e                	pop    r14
    326d:	41 5f                	pop    r15
    326f:	c3                   	ret    
    3270:	4c 8b 74 24 08       	mov    r14,QWORD PTR [rsp+0x8]
    3275:	48 8d 1d d5 b2 00 00 	lea    rbx,[rip+0xb2d5]        # e551 <_fini+0x51>
    327c:	b8 0c 00 00 00       	mov    eax,0xc
    3281:	31 c9                	xor    ecx,ecx
    3283:	4c 01 f0             	add    rax,r14
    3286:	49 89 c2             	mov    r10,rax
    3289:	72 bd                	jb     3248 <yysyntax_error+0x128>
    328b:	48 8b 7c 24 10       	mov    rdi,QWORD PTR [rsp+0x10]
    3290:	4c 3b 17             	cmp    r10,QWORD PTR [rdi]
    3293:	77 63                	ja     32f8 <yysyntax_error+0x1d8>
    3295:	48 8b 44 24 18       	mov    rax,QWORD PTR [rsp+0x18]
    329a:	31 d2                	xor    edx,edx
    329c:	48 8b 28             	mov    rbp,QWORD PTR [rax]
    329f:	0f b6 03             	movzx  eax,BYTE PTR [rbx]
    32a2:	eb 0c                	jmp    32b0 <yysyntax_error+0x190>
    32a4:	0f 1f 40 00          	nop    DWORD PTR [rax+0x0]
    32a8:	48 83 c5 01          	add    rbp,0x1
    32ac:	48 83 c3 01          	add    rbx,0x1
    32b0:	84 c0                	test   al,al
    32b2:	88 45 00             	mov    BYTE PTR [rbp+0x0],al
    32b5:	0f 84 c5 00 00 00    	je     3380 <yysyntax_error+0x260>
    32bb:	3c 25                	cmp    al,0x25
    32bd:	0f b6 43 01          	movzx  eax,BYTE PTR [rbx+0x1]
    32c1:	75 e5                	jne    32a8 <yysyntax_error+0x188>
    32c3:	39 ca                	cmp    edx,ecx
    32c5:	7d e1                	jge    32a8 <yysyntax_error+0x188>
    32c7:	3c 73                	cmp    al,0x73
    32c9:	75 dd                	jne    32a8 <yysyntax_error+0x188>
    32cb:	48 8b 74 d4 20       	mov    rsi,QWORD PTR [rsp+rdx*8+0x20]
    32d0:	44 8d 62 01          	lea    r12d,[rdx+0x1]
    32d4:	48 89 ef             	mov    rdi,rbp
    32d7:	89 4c 24 08          	mov    DWORD PTR [rsp+0x8],ecx
    32db:	48 83 c3 02          	add    rbx,0x2
    32df:	e8 ac fd ff ff       	call   3090 <yytnamerr>
    32e4:	49 63 d4             	movsxd rdx,r12d
    32e7:	48 01 c5             	add    rbp,rax
    32ea:	8b 4c 24 08          	mov    ecx,DWORD PTR [rsp+0x8]
    32ee:	0f b6 03             	movzx  eax,BYTE PTR [rbx]
    32f1:	eb bd                	jmp    32b0 <yysyntax_error+0x190>
    32f3:	0f 1f 44 00 00       	nop    DWORD PTR [rax+rax*1+0x0]
    32f8:	4b 8d 04 12          	lea    rax,[r10+r10*1]
    32fc:	49 39 c2             	cmp    r10,rax
    32ff:	0f 87 82 00 00 00    	ja     3387 <yysyntax_error+0x267>
    3305:	48 89 07             	mov    QWORD PTR [rdi],rax
    3308:	b8 01 00 00 00       	mov    eax,0x1
    330d:	e9 3b ff ff ff       	jmp    324d <yysyntax_error+0x12d>
    3312:	b8 3b 00 00 00       	mov    eax,0x3b
    3317:	48 8d 1d 8a b7 00 00 	lea    rbx,[rip+0xb78a]        # eaa8 <_fini+0x5a8>
    331e:	e9 60 ff ff ff       	jmp    3283 <yysyntax_error+0x163>
    3323:	b8 2f 00 00 00       	mov    eax,0x2f
    3328:	48 8d 1d 11 b7 00 00 	lea    rbx,[rip+0xb711]        # ea40 <_fini+0x540>
    332f:	e9 4f ff ff ff       	jmp    3283 <yysyntax_error+0x163>
    3334:	b8 35 00 00 00       	mov    eax,0x35
    3339:	48 8d 1d 30 b7 00 00 	lea    rbx,[rip+0xb730]        # ea70 <_fini+0x570>
    3340:	e9 3e ff ff ff       	jmp    3283 <yysyntax_error+0x163>
    3345:	b8 29 00 00 00       	mov    eax,0x29
    334a:	48 8d 1d bf b6 00 00 	lea    rbx,[rip+0xb6bf]        # ea10 <_fini+0x510>
    3351:	e9 2d ff ff ff       	jmp    3283 <yysyntax_error+0x163>
    3356:	4c 89 74 24 08       	mov    QWORD PTR [rsp+0x8],r14
    335b:	0f 1f 44 00 00       	nop    DWORD PTR [rax+rax*1+0x0]
    3360:	4c 8b 74 24 08       	mov    r14,QWORD PTR [rsp+0x8]
    3365:	b8 1b 00 00 00       	mov    eax,0x1b
    336a:	b9 01 00 00 00       	mov    ecx,0x1
    336f:	48 8d 1d e8 b1 00 00 	lea    rbx,[rip+0xb1e8]        # e55e <_fini+0x5e>
    3376:	e9 08 ff ff ff       	jmp    3283 <yysyntax_error+0x163>
    337b:	0f 1f 44 00 00       	nop    DWORD PTR [rax+rax*1+0x0]
    3380:	31 c0                	xor    eax,eax
    3382:	e9 c6 fe ff ff       	jmp    324d <yysyntax_error+0x12d>
    3387:	48 8b 44 24 10       	mov    rax,QWORD PTR [rsp+0x10]
    338c:	48 c7 00 ff ff ff ff 	mov    QWORD PTR [rax],0xffffffffffffffff
    3393:	b8 01 00 00 00       	mov    eax,0x1
    3398:	e9 b0 fe ff ff       	jmp    324d <yysyntax_error+0x12d>
    339d:	e8 2e f8 ff ff       	call   2bd0 <__stack_chk_fail@plt>
    33a2:	b8 0c 00 00 00       	mov    eax,0xc
    33a7:	48 8d 1d a3 b1 00 00 	lea    rbx,[rip+0xb1a3]        # e551 <_fini+0x51>
    33ae:	e9 d0 fe ff ff       	jmp    3283 <yysyntax_error+0x163>
    33b3:	0f 1f 00             	nop    DWORD PTR [rax]
    33b6:	66 2e 0f 1f 84 00 00 	nop    WORD PTR cs:[rax+rax*1+0x0]
    33bd:	00 00 00 

00000000000033c0 <_asn1_yyparse>:
    33c0:	41 57                	push   r15
    33c2:	41 56                	push   r14
    33c4:	41 55                	push   r13
    33c6:	41 54                	push   r12
    33c8:	45 31 e4             	xor    r12d,r12d
    33cb:	55                   	push   rbp
    33cc:	53                   	push   rbx
    33cd:	48 81 ec 78 3b 00 00 	sub    rsp,0x3b78
    33d4:	c7 05 22 fe 20 00 00 	mov    DWORD PTR [rip+0x20fe22],0x0        # 213200 <_asn1_yynerrs>
    33db:	00 00 00 
    33de:	c7 05 80 fe 20 00 fe 	mov    DWORD PTR [rip+0x20fe80],0xfffffffe        # 213268 <_asn1_yychar>
    33e5:	ff ff ff 
    33e8:	64 48 8b 04 25 28 00 	mov    rax,QWORD PTR fs:0x28
    33ef:	00 00 
    33f1:	48 89 84 24 68 3b 00 	mov    QWORD PTR [rsp+0x3b68],rax
    33f8:	00 
    33f9:	31 c0                	xor    eax,eax
    33fb:	48 8d 84 24 e0 3a 00 	lea    rax,[rsp+0x3ae0]
    3402:	00 
    3403:	4c 8d ac 24 50 02 00 	lea    r13,[rsp+0x250]
    340a:	00 
    340b:	48 c7 44 24 68 80 00 	mov    QWORD PTR [rsp+0x68],0x80
    3412:	00 00 
    3414:	48 c7 44 24 08 c8 00 	mov    QWORD PTR [rsp+0x8],0xc8
    341b:	00 00 
    341d:	c7 44 24 2c 00 00 00 	mov    DWORD PTR [rsp+0x2c],0x0
    3424:	00 
    3425:	48 89 44 24 30       	mov    QWORD PTR [rsp+0x30],rax
    342a:	48 89 44 24 60       	mov    QWORD PTR [rsp+0x60],rax
    342f:	48 8d 84 24 c0 00 00 	lea    rax,[rsp+0xc0]
    3436:	00 
    3437:	4c 89 6c 24 18       	mov    QWORD PTR [rsp+0x18],r13
    343c:	48 89 c3             	mov    rbx,rax
    343f:	48 89 44 24 20       	mov    QWORD PTR [rsp+0x20],rax
    3444:	49 89 c7             	mov    r15,rax
    3447:	48 8d 44 24 70       	lea    rax,[rsp+0x70]
    344c:	48 89 44 24 38       	mov    QWORD PTR [rsp+0x38],rax
    3451:	48 8d 44 24 60       	lea    rax,[rsp+0x60]
    3456:	48 89 44 24 40       	mov    QWORD PTR [rsp+0x40],rax
    345b:	48 8d 44 24 68       	lea    rax,[rsp+0x68]
    3460:	48 89 44 24 48       	mov    QWORD PTR [rsp+0x48],rax
    3465:	48 8d 84 24 90 3a 00 	lea    rax,[rsp+0x3a90]
    346c:	00 
    346d:	48 89 44 24 50       	mov    QWORD PTR [rsp+0x50],rax
    3472:	48 8b 74 24 08       	mov    rsi,QWORD PTR [rsp+0x8]
    3477:	66 45 89 27          	mov    WORD PTR [r15],r12w
    347b:	48 89 f0             	mov    rax,rsi
    347e:	48 01 c0             	add    rax,rax
    3481:	48 8d 54 03 fe       	lea    rdx,[rbx+rax*1-0x2]
    3486:	49 39 d7             	cmp    r15,rdx
    3489:	0f 82 d7 00 00 00    	jb     3566 <_asn1_yyparse+0x1a6>
    348f:	49 29 df             	sub    r15,rbx
    3492:	49 d1 ff             	sar    r15,1
    3495:	48 81 fe 0f 27 00 00 	cmp    rsi,0x270f
    349c:	49 8d 6f 01          	lea    rbp,[r15+0x1]
    34a0:	0f 87 e8 05 00 00    	ja     3a8e <_asn1_yyparse+0x6ce>
    34a6:	48 3d 10 27 00 00    	cmp    rax,0x2710
    34ac:	41 bd 10 27 00 00    	mov    r13d,0x2710
    34b2:	4c 0f 46 e8          	cmovbe r13,rax
    34b6:	4b 8d 44 ed 00       	lea    rax,[r13+r13*8+0x0]
    34bb:	4c 89 6c 24 08       	mov    QWORD PTR [rsp+0x8],r13
    34c0:	49 8d 44 85 00       	lea    rax,[r13+rax*4+0x0]
    34c5:	48 8d 7c 00 47       	lea    rdi,[rax+rax*1+0x47]
    34ca:	e8 41 f8 ff ff       	call   2d10 <malloc@plt>
    34cf:	48 85 c0             	test   rax,rax
    34d2:	49 89 c6             	mov    r14,rax
    34d5:	0f 84 b3 05 00 00    	je     3a8e <_asn1_yyparse+0x6ce>
    34db:	4c 8d 7c 2d 00       	lea    r15,[rbp+rbp*1+0x0]
    34e0:	48 89 de             	mov    rsi,rbx
    34e3:	48 89 c7             	mov    rdi,rax
    34e6:	48 8d 6c ed 00       	lea    rbp,[rbp+rbp*8+0x0]
    34eb:	4c 89 fa             	mov    rdx,r15
    34ee:	e8 fd f7 ff ff       	call   2cf0 <memcpy@plt>
    34f3:	4b 8d 44 2d 00       	lea    rax,[r13+r13*1+0x0]
    34f8:	48 ba 8f e3 38 8e e3 	movabs rdx,0xe38e38e38e38e38f
    34ff:	38 8e e3 
    3502:	4c 8d 2c ed 00 00 00 	lea    r13,[rbp*8+0x0]
    3509:	00 
    350a:	48 8b 74 24 18       	mov    rsi,QWORD PTR [rsp+0x18]
    350f:	48 89 44 24 10       	mov    QWORD PTR [rsp+0x10],rax
    3514:	48 83 c0 47          	add    rax,0x47
    3518:	48 f7 e2             	mul    rdx
    351b:	48 c1 ea 06          	shr    rdx,0x6
    351f:	48 8d 04 d2          	lea    rax,[rdx+rdx*8]
    3523:	4c 89 ea             	mov    rdx,r13
    3526:	49 8d 2c c6          	lea    rbp,[r14+rax*8]
    352a:	48 89 ef             	mov    rdi,rbp
    352d:	e8 be f7 ff ff       	call   2cf0 <memcpy@plt>
    3532:	48 3b 5c 24 20       	cmp    rbx,QWORD PTR [rsp+0x20]
    3537:	74 08                	je     3541 <_asn1_yyparse+0x181>
    3539:	48 89 df             	mov    rdi,rbx
    353c:	e8 cf f5 ff ff       	call   2b10 <free@plt>
    3541:	48 8b 44 24 10       	mov    rax,QWORD PTR [rsp+0x10]
    3546:	4f 8d 7c 3e fe       	lea    r15,[r14+r15*1-0x2]
    354b:	4e 8d 6c 2d b8       	lea    r13,[rbp+r13*1-0x48]
    3550:	49 8d 44 06 fe       	lea    rax,[r14+rax*1-0x2]
    3555:	49 39 c7             	cmp    r15,rax
    3558:	0f 83 a0 1b 00 00    	jae    50fe <_asn1_yyparse+0x1d3e>
    355e:	48 89 6c 24 18       	mov    QWORD PTR [rsp+0x18],rbp
    3563:	4c 89 f3             	mov    rbx,r14
    3566:	41 83 fc 05          	cmp    r12d,0x5
    356a:	0f 84 28 1b 00 00    	je     5098 <_asn1_yyparse+0x1cd8>
    3570:	48 8d 2d e9 bf 00 00 	lea    rbp,[rip+0xbfe9]        # f560 <yypact>
    3577:	4d 63 f4             	movsxd r14,r12d
    357a:	42 0f bf 44 75 00    	movsx  eax,WORD PTR [rbp+r14*2+0x0]
    3580:	3d 74 ff ff ff       	cmp    eax,0xffffff74
    3585:	89 44 24 10          	mov    DWORD PTR [rsp+0x10],eax
    3589:	74 53                	je     35de <_asn1_yyparse+0x21e>
    358b:	8b 05 d7 fc 20 00    	mov    eax,DWORD PTR [rip+0x20fcd7]        # 213268 <_asn1_yychar>
    3591:	83 f8 fe             	cmp    eax,0xfffffffe
    3594:	0f 84 12 01 00 00    	je     36ac <_asn1_yyparse+0x2ec>
    359a:	85 c0                	test   eax,eax
    359c:	0f 8e 16 05 00 00    	jle    3ab8 <_asn1_yyparse+0x6f8>
    35a2:	3d 2f 01 00 00       	cmp    eax,0x12f
    35a7:	ba 02 00 00 00       	mov    edx,0x2
    35ac:	7f 0d                	jg     35bb <_asn1_yyparse+0x1fb>
    35ae:	48 8d 15 8b c1 00 00 	lea    rdx,[rip+0xc18b]        # f740 <yytranslate>
    35b5:	48 98                	cdqe   
    35b7:	0f b6 14 02          	movzx  edx,BYTE PTR [rdx+rax*1]
    35bb:	8b 44 24 10          	mov    eax,DWORD PTR [rsp+0x10]
    35bf:	01 d0                	add    eax,edx
    35c1:	3d f8 00 00 00       	cmp    eax,0xf8
    35c6:	77 16                	ja     35de <_asn1_yyparse+0x21e>
    35c8:	48 63 c8             	movsxd rcx,eax
    35cb:	48 8d 05 8e b9 00 00 	lea    rax,[rip+0xb98e]        # ef60 <yycheck>
    35d2:	0f bf 04 48          	movsx  eax,WORD PTR [rax+rcx*2]
    35d6:	39 c2                	cmp    edx,eax
    35d8:	0f 84 22 05 00 00    	je     3b00 <_asn1_yyparse+0x740>
    35de:	48 8d 05 7b be 00 00 	lea    rax,[rip+0xbe7b]        # f460 <yydefact>
    35e5:	42 0f b6 14 30       	movzx  edx,BYTE PTR [rax+r14*1]
    35ea:	85 d2                	test   edx,edx
    35ec:	0f 84 be 02 00 00    	je     38b0 <_asn1_yyparse+0x4f0>
    35f2:	48 8d 05 27 b8 00 00 	lea    rax,[rip+0xb827]        # ee20 <yyr2>
    35f9:	4c 63 f2             	movsxd r14,edx
    35fc:	42 0f b6 0c 30       	movzx  ecx,BYTE PTR [rax+r14*1]
    3601:	b8 01 00 00 00       	mov    eax,0x1
    3606:	29 c8                	sub    eax,ecx
    3608:	49 89 cc             	mov    r12,rcx
    360b:	81 fa 89 00 00 00    	cmp    edx,0x89
    3611:	48 98                	cdqe   
    3613:	48 8d 04 c0          	lea    rax,[rax+rax*8]
    3617:	49 8d 44 c5 00       	lea    rax,[r13+rax*8+0x0]
    361c:	48 8b 08             	mov    rcx,QWORD PTR [rax]
    361f:	48 89 4c 24 70       	mov    QWORD PTR [rsp+0x70],rcx
    3624:	48 8b 48 08          	mov    rcx,QWORD PTR [rax+0x8]
    3628:	48 89 4c 24 78       	mov    QWORD PTR [rsp+0x78],rcx
    362d:	48 8b 48 10          	mov    rcx,QWORD PTR [rax+0x10]
    3631:	48 89 8c 24 80 00 00 	mov    QWORD PTR [rsp+0x80],rcx
    3638:	00 
    3639:	48 8b 48 18          	mov    rcx,QWORD PTR [rax+0x18]
    363d:	48 89 8c 24 88 00 00 	mov    QWORD PTR [rsp+0x88],rcx
    3644:	00 
    3645:	48 8b 48 20          	mov    rcx,QWORD PTR [rax+0x20]
    3649:	48 89 8c 24 90 00 00 	mov    QWORD PTR [rsp+0x90],rcx
    3650:	00 
    3651:	48 8b 48 28          	mov    rcx,QWORD PTR [rax+0x28]
    3655:	48 89 8c 24 98 00 00 	mov    QWORD PTR [rsp+0x98],rcx
    365c:	00 
    365d:	48 8b 48 30          	mov    rcx,QWORD PTR [rax+0x30]
    3661:	48 89 8c 24 a0 00 00 	mov    QWORD PTR [rsp+0xa0],rcx
    3668:	00 
    3669:	48 8b 48 38          	mov    rcx,QWORD PTR [rax+0x38]
    366d:	48 8b 40 40          	mov    rax,QWORD PTR [rax+0x40]
    3671:	48 89 8c 24 a8 00 00 	mov    QWORD PTR [rsp+0xa8],rcx
    3678:	00 
    3679:	48 89 84 24 b0 00 00 	mov    QWORD PTR [rsp+0xb0],rax
    3680:	00 
    3681:	0f 87 49 01 00 00    	ja     37d0 <_asn1_yyparse+0x410>
    3687:	48 8d 05 aa b4 00 00 	lea    rax,[rip+0xb4aa]        # eb38 <_fini+0x638>
    368e:	89 d2                	mov    edx,edx
    3690:	48 63 14 90          	movsxd rdx,DWORD PTR [rax+rdx*4]
    3694:	48 01 d0             	add    rax,rdx
    3697:	ff e0                	jmp    rax
    3699:	0f 1f 80 00 00 00 00 	nop    DWORD PTR [rax+0x0]
    36a0:	83 f8 0a             	cmp    eax,0xa
    36a3:	75 07                	jne    36ac <_asn1_yyparse+0x2ec>
    36a5:	83 05 b4 fc 20 00 01 	add    DWORD PTR [rip+0x20fcb4],0x1        # 213360 <line_number>
    36ac:	48 8b 3d c5 fc 20 00 	mov    rdi,QWORD PTR [rip+0x20fcc5]        # 213378 <file_asn1>
    36b3:	e8 a8 f5 ff ff       	call   2c60 <fgetc@plt>
    36b8:	83 f8 20             	cmp    eax,0x20
    36bb:	74 ef                	je     36ac <_asn1_yyparse+0x2ec>
    36bd:	8d 50 f7             	lea    edx,[rax-0x9]
    36c0:	83 fa 01             	cmp    edx,0x1
    36c3:	76 db                	jbe    36a0 <_asn1_yyparse+0x2e0>
    36c5:	83 f8 ff             	cmp    eax,0xffffffff
    36c8:	0f 84 02 04 00 00    	je     3ad0 <_asn1_yyparse+0x710>
    36ce:	83 f8 2e             	cmp    eax,0x2e
    36d1:	ba 01 00 00 00       	mov    edx,0x1
    36d6:	0f 86 8c 00 00 00    	jbe    3768 <_asn1_yyparse+0x3a8>
    36dc:	89 c1                	mov    ecx,eax
    36de:	83 e1 df             	and    ecx,0xffffffdf
    36e1:	83 f9 5b             	cmp    ecx,0x5b
    36e4:	40 0f 94 c6          	sete   sil
    36e8:	40 38 d6             	cmp    sil,dl
    36eb:	0f 83 f9 19 00 00    	jae    50ea <_asn1_yyparse+0x1d2a>
    36f1:	83 f9 5d             	cmp    ecx,0x5d
    36f4:	0f 84 f0 19 00 00    	je     50ea <_asn1_yyparse+0x1d2a>
    36fa:	83 f8 7c             	cmp    eax,0x7c
    36fd:	0f 84 08 1a 00 00    	je     510b <_asn1_yyparse+0x1d4b>
    3703:	83 f8 2d             	cmp    eax,0x2d
    3706:	0f 85 06 1a 00 00    	jne    5112 <_asn1_yyparse+0x1d52>
    370c:	48 8b 3d 65 fc 20 00 	mov    rdi,QWORD PTR [rip+0x20fc65]        # 213378 <file_asn1>
    3713:	e8 48 f5 ff ff       	call   2c60 <fgetc@plt>
    3718:	83 f8 2d             	cmp    eax,0x2d
    371b:	0f 85 43 1b 00 00    	jne    5264 <_asn1_yyparse+0x1ea4>
    3721:	45 31 e4             	xor    r12d,r12d
    3724:	eb 0d                	jmp    3733 <_asn1_yyparse+0x373>
    3726:	66 2e 0f 1f 84 00 00 	nop    WORD PTR cs:[rax+rax*1+0x0]
    372d:	00 00 00 
    3730:	41 89 c4             	mov    r12d,eax
    3733:	48 8b 3d 3e fc 20 00 	mov    rdi,QWORD PTR [rip+0x20fc3e]        # 213378 <file_asn1>
    373a:	e8 21 f5 ff ff       	call   2c60 <fgetc@plt>
    373f:	83 f8 ff             	cmp    eax,0xffffffff
    3742:	0f 84 88 03 00 00    	je     3ad0 <_asn1_yyparse+0x710>
    3748:	83 f8 0a             	cmp    eax,0xa
    374b:	0f 84 54 ff ff ff    	je     36a5 <_asn1_yyparse+0x2e5>
    3751:	41 83 fc 2d          	cmp    r12d,0x2d
    3755:	75 d9                	jne    3730 <_asn1_yyparse+0x370>
    3757:	83 f8 2d             	cmp    eax,0x2d
    375a:	75 d4                	jne    3730 <_asn1_yyparse+0x370>
    375c:	e9 4b ff ff ff       	jmp    36ac <_asn1_yyparse+0x2ec>
    3761:	0f 1f 80 00 00 00 00 	nop    DWORD PTR [rax+0x0]
    3768:	48 ba 00 00 00 00 00 	movabs rdx,0x5b0000000000
    376f:	5b 00 00 
    3772:	89 c1                	mov    ecx,eax
    3774:	48 d3 ea             	shr    rdx,cl
    3777:	83 e2 01             	and    edx,0x1
    377a:	48 83 f2 01          	xor    rdx,0x1
    377e:	83 e2 01             	and    edx,0x1
    3781:	e9 56 ff ff ff       	jmp    36dc <_asn1_yyparse+0x31c>
    3786:	49 8b 75 00          	mov    rsi,QWORD PTR [r13+0x0]
    378a:	48 85 f6             	test   rsi,rsi
    378d:	0f 84 81 1b 00 00    	je     5314 <_asn1_yyparse+0x1f54>
    3793:	81 4e 48 00 20 00 00 	or     DWORD PTR [rsi+0x48],0x2000
    379a:	48 89 74 24 70       	mov    QWORD PTR [rsp+0x70],rsi
    379f:	48 8b 76 60          	mov    rsi,QWORD PTR [rsi+0x60]
    37a3:	49 8b 7d b8          	mov    rdi,QWORD PTR [r13-0x48]
    37a7:	e8 14 80 00 00       	call   b7c0 <_asn1_set_right>
    37ac:	48 8b 54 24 70       	mov    rdx,QWORD PTR [rsp+0x70]
    37b1:	48 85 d2             	test   rdx,rdx
    37b4:	74 1a                	je     37d0 <_asn1_yyparse+0x410>
    37b6:	49 8b 45 b8          	mov    rax,QWORD PTR [r13-0x48]
    37ba:	48 85 c0             	test   rax,rax
    37bd:	48 89 42 60          	mov    QWORD PTR [rdx+0x60],rax
    37c1:	74 0d                	je     37d0 <_asn1_yyparse+0x410>
    37c3:	48 89 50 70          	mov    QWORD PTR [rax+0x70],rdx
    37c7:	66 0f 1f 84 00 00 00 	nop    WORD PTR [rax+rax*1+0x0]
    37ce:	00 00 
    37d0:	4b 8d 04 e4          	lea    rax,[r12+r12*8]
    37d4:	48 8b 54 24 70       	mov    rdx,QWORD PTR [rsp+0x70]
    37d9:	4d 01 e4             	add    r12,r12
    37dc:	4d 29 e7             	sub    r15,r12
    37df:	48 c1 e0 03          	shl    rax,0x3
    37e3:	49 29 c5             	sub    r13,rax
    37e6:	4c 89 e8             	mov    rax,r13
    37e9:	4d 8d 6d 48          	lea    r13,[r13+0x48]
    37ed:	48 89 50 48          	mov    QWORD PTR [rax+0x48],rdx
    37f1:	48 8b 54 24 78       	mov    rdx,QWORD PTR [rsp+0x78]
    37f6:	48 89 50 50          	mov    QWORD PTR [rax+0x50],rdx
    37fa:	48 8b 94 24 80 00 00 	mov    rdx,QWORD PTR [rsp+0x80]
    3801:	00 
    3802:	48 89 50 58          	mov    QWORD PTR [rax+0x58],rdx
    3806:	48 8b 94 24 88 00 00 	mov    rdx,QWORD PTR [rsp+0x88]
    380d:	00 
    380e:	48 89 50 60          	mov    QWORD PTR [rax+0x60],rdx
    3812:	48 8b 94 24 90 00 00 	mov    rdx,QWORD PTR [rsp+0x90]
    3819:	00 
    381a:	48 89 50 68          	mov    QWORD PTR [rax+0x68],rdx
    381e:	48 8b 94 24 98 00 00 	mov    rdx,QWORD PTR [rsp+0x98]
    3825:	00 
    3826:	48 89 50 70          	mov    QWORD PTR [rax+0x70],rdx
    382a:	48 8b 94 24 a0 00 00 	mov    rdx,QWORD PTR [rsp+0xa0]
    3831:	00 
    3832:	48 89 50 78          	mov    QWORD PTR [rax+0x78],rdx
    3836:	48 8b 94 24 a8 00 00 	mov    rdx,QWORD PTR [rsp+0xa8]
    383d:	00 
    383e:	48 89 90 80 00 00 00 	mov    QWORD PTR [rax+0x80],rdx
    3845:	48 8b 94 24 b0 00 00 	mov    rdx,QWORD PTR [rsp+0xb0]
    384c:	00 
    384d:	48 89 90 88 00 00 00 	mov    QWORD PTR [rax+0x88],rdx
    3854:	48 8d 05 65 b6 00 00 	lea    rax,[rip+0xb665]        # eec0 <yyr1>
    385b:	48 8d 15 7e bb 00 00 	lea    rdx,[rip+0xbb7e]        # f3e0 <yypgoto>
    3862:	41 0f b7 0f          	movzx  ecx,WORD PTR [r15]
    3866:	42 0f b6 04 30       	movzx  eax,BYTE PTR [rax+r14*1]
    386b:	83 e8 3c             	sub    eax,0x3c
    386e:	48 98                	cdqe   
    3870:	0f bf 34 42          	movsx  esi,WORD PTR [rdx+rax*2]
    3874:	0f bf d1             	movsx  edx,cx
    3877:	01 f2                	add    edx,esi
    3879:	81 fa f8 00 00 00    	cmp    edx,0xf8
    387f:	77 14                	ja     3895 <_asn1_yyparse+0x4d5>
    3881:	48 8d 35 d8 b6 00 00 	lea    rsi,[rip+0xb6d8]        # ef60 <yycheck>
    3888:	48 63 d2             	movsxd rdx,edx
    388b:	66 3b 0c 56          	cmp    cx,WORD PTR [rsi+rdx*2]
    388f:	0f 84 09 03 00 00    	je     3b9e <_asn1_yyparse+0x7de>
    3895:	48 8d 15 c4 ba 00 00 	lea    rdx,[rip+0xbac4]        # f360 <yydefgoto>
    389c:	44 0f bf 24 42       	movsx  r12d,WORD PTR [rdx+rax*2]
    38a1:	49 83 c7 02          	add    r15,0x2
    38a5:	e9 c8 fb ff ff       	jmp    3472 <_asn1_yyparse+0xb2>
    38aa:	66 0f 1f 44 00 00    	nop    WORD PTR [rax+rax*1+0x0]
    38b0:	8b 05 b2 f9 20 00    	mov    eax,DWORD PTR [rip+0x20f9b2]        # 213268 <_asn1_yychar>
    38b6:	41 bc fe ff ff ff    	mov    r12d,0xfffffffe
    38bc:	44 39 e0             	cmp    eax,r12d
    38bf:	74 11                	je     38d2 <_asn1_yyparse+0x512>
    38c1:	3d 2f 01 00 00       	cmp    eax,0x12f
    38c6:	41 bc 02 00 00 00    	mov    r12d,0x2
    38cc:	0f 86 4e 01 00 00    	jbe    3a20 <_asn1_yyparse+0x660>
    38d2:	8b 54 24 2c          	mov    edx,DWORD PTR [rsp+0x2c]
    38d6:	85 d2                	test   edx,edx
    38d8:	0f 84 5d 01 00 00    	je     3a3b <_asn1_yyparse+0x67b>
    38de:	83 7c 24 2c 03       	cmp    DWORD PTR [rsp+0x2c],0x3
    38e3:	75 38                	jne    391d <_asn1_yyparse+0x55d>
    38e5:	83 f8 00             	cmp    eax,0x0
    38e8:	0f 8e e2 02 00 00    	jle    3bd0 <_asn1_yyparse+0x810>
    38ee:	42 0f bf 44 75 00    	movsx  eax,WORD PTR [rbp+r14*2+0x0]
    38f4:	c7 05 6a f9 20 00 fe 	mov    DWORD PTR [rip+0x20f96a],0xfffffffe        # 213268 <_asn1_yychar>
    38fb:	ff ff ff 
    38fe:	3d 74 ff ff ff       	cmp    eax,0xffffff74
    3903:	75 25                	jne    392a <_asn1_yyparse+0x56a>
    3905:	0f 1f 00             	nop    DWORD PTR [rax]
    3908:	4c 39 fb             	cmp    rbx,r15
    390b:	0f 84 bf 00 00 00    	je     39d0 <_asn1_yyparse+0x610>
    3911:	49 83 ef 02          	sub    r15,0x2
    3915:	4d 0f bf 37          	movsx  r14,WORD PTR [r15]
    3919:	49 83 ed 48          	sub    r13,0x48
    391d:	42 0f bf 44 75 00    	movsx  eax,WORD PTR [rbp+r14*2+0x0]
    3923:	3d 74 ff ff ff       	cmp    eax,0xffffff74
    3928:	74 de                	je     3908 <_asn1_yyparse+0x548>
    392a:	83 c0 01             	add    eax,0x1
    392d:	3d f8 00 00 00       	cmp    eax,0xf8
    3932:	77 d4                	ja     3908 <_asn1_yyparse+0x548>
    3934:	48 8d 15 25 b6 00 00 	lea    rdx,[rip+0xb625]        # ef60 <yycheck>
    393b:	48 98                	cdqe   
    393d:	66 83 3c 42 01       	cmp    WORD PTR [rdx+rax*2],0x1
    3942:	75 c4                	jne    3908 <_asn1_yyparse+0x548>
    3944:	48 8d 15 15 b8 00 00 	lea    rdx,[rip+0xb815]        # f160 <yytable>
    394b:	44 0f bf 24 42       	movsx  r12d,WORD PTR [rdx+rax*2]
    3950:	45 85 e4             	test   r12d,r12d
    3953:	7e b3                	jle    3908 <_asn1_yyparse+0x548>
    3955:	48 8b 05 c4 f8 20 00 	mov    rax,QWORD PTR [rip+0x20f8c4]        # 213220 <_asn1_yylval>
    395c:	49 83 c5 48          	add    r13,0x48
    3960:	c7 44 24 2c 03 00 00 	mov    DWORD PTR [rsp+0x2c],0x3
    3967:	00 
    3968:	49 89 45 00          	mov    QWORD PTR [r13+0x0],rax
    396c:	48 8b 05 b5 f8 20 00 	mov    rax,QWORD PTR [rip+0x20f8b5]        # 213228 <_asn1_yylval+0x8>
    3973:	49 89 45 08          	mov    QWORD PTR [r13+0x8],rax
    3977:	48 8b 05 b2 f8 20 00 	mov    rax,QWORD PTR [rip+0x20f8b2]        # 213230 <_asn1_yylval+0x10>
    397e:	49 89 45 10          	mov    QWORD PTR [r13+0x10],rax
    3982:	48 8b 05 af f8 20 00 	mov    rax,QWORD PTR [rip+0x20f8af]        # 213238 <_asn1_yylval+0x18>
    3989:	49 89 45 18          	mov    QWORD PTR [r13+0x18],rax
    398d:	48 8b 05 ac f8 20 00 	mov    rax,QWORD PTR [rip+0x20f8ac]        # 213240 <_asn1_yylval+0x20>
    3994:	49 89 45 20          	mov    QWORD PTR [r13+0x20],rax
    3998:	48 8b 05 a9 f8 20 00 	mov    rax,QWORD PTR [rip+0x20f8a9]        # 213248 <_asn1_yylval+0x28>
    399f:	49 89 45 28          	mov    QWORD PTR [r13+0x28],rax
    39a3:	48 8b 05 a6 f8 20 00 	mov    rax,QWORD PTR [rip+0x20f8a6]        # 213250 <_asn1_yylval+0x30>
    39aa:	49 89 45 30          	mov    QWORD PTR [r13+0x30],rax
    39ae:	48 8b 05 a3 f8 20 00 	mov    rax,QWORD PTR [rip+0x20f8a3]        # 213258 <_asn1_yylval+0x38>
    39b5:	49 89 45 38          	mov    QWORD PTR [r13+0x38],rax
    39b9:	48 8b 05 a0 f8 20 00 	mov    rax,QWORD PTR [rip+0x20f8a0]        # 213260 <_asn1_yylval+0x40>
    39c0:	49 89 45 40          	mov    QWORD PTR [r13+0x40],rax
    39c4:	e9 d8 fe ff ff       	jmp    38a1 <_asn1_yyparse+0x4e1>
    39c9:	0f 1f 80 00 00 00 00 	nop    DWORD PTR [rax+0x0]
    39d0:	bb 01 00 00 00       	mov    ebx,0x1
    39d5:	4c 3b 7c 24 20       	cmp    r15,QWORD PTR [rsp+0x20]
    39da:	74 08                	je     39e4 <_asn1_yyparse+0x624>
    39dc:	4c 89 ff             	mov    rdi,r15
    39df:	e8 2c f1 ff ff       	call   2b10 <free@plt>
    39e4:	48 8b 7c 24 60       	mov    rdi,QWORD PTR [rsp+0x60]
    39e9:	48 3b 7c 24 30       	cmp    rdi,QWORD PTR [rsp+0x30]
    39ee:	74 05                	je     39f5 <_asn1_yyparse+0x635>
    39f0:	e8 1b f1 ff ff       	call   2b10 <free@plt>
    39f5:	48 8b b4 24 68 3b 00 	mov    rsi,QWORD PTR [rsp+0x3b68]
    39fc:	00 
    39fd:	64 48 33 34 25 28 00 	xor    rsi,QWORD PTR fs:0x28
    3a04:	00 00 
    3a06:	89 d8                	mov    eax,ebx
    3a08:	0f 85 14 19 00 00    	jne    5322 <_asn1_yyparse+0x1f62>
    3a0e:	48 81 c4 78 3b 00 00 	add    rsp,0x3b78
    3a15:	5b                   	pop    rbx
    3a16:	5d                   	pop    rbp
    3a17:	41 5c                	pop    r12
    3a19:	41 5d                	pop    r13
    3a1b:	41 5e                	pop    r14
    3a1d:	41 5f                	pop    r15
    3a1f:	c3                   	ret    
    3a20:	48 8d 0d 19 bd 00 00 	lea    rcx,[rip+0xbd19]        # f740 <yytranslate>
    3a27:	48 63 d0             	movsxd rdx,eax
    3a2a:	44 0f b6 24 11       	movzx  r12d,BYTE PTR [rcx+rdx*1]
    3a2f:	8b 54 24 2c          	mov    edx,DWORD PTR [rsp+0x2c]
    3a33:	85 d2                	test   edx,edx
    3a35:	0f 85 a3 fe ff ff    	jne    38de <_asn1_yyparse+0x51e>
    3a3b:	48 8b 74 24 40       	mov    rsi,QWORD PTR [rsp+0x40]
    3a40:	48 8b 7c 24 48       	mov    rdi,QWORD PTR [rsp+0x48]
    3a45:	44 89 e1             	mov    ecx,r12d
    3a48:	4c 89 fa             	mov    rdx,r15
    3a4b:	83 05 ae f7 20 00 01 	add    DWORD PTR [rip+0x20f7ae],0x1        # 213200 <_asn1_yynerrs>
    3a52:	e8 c9 f6 ff ff       	call   3120 <yysyntax_error>
    3a57:	85 c0                	test   eax,eax
    3a59:	0f 84 50 01 00 00    	je     3baf <_asn1_yyparse+0x7ef>
    3a5f:	83 f8 01             	cmp    eax,0x1
    3a62:	48 8d 3d e8 aa 00 00 	lea    rdi,[rip+0xaae8]        # e551 <_fini+0x51>
    3a69:	0f 84 33 16 00 00    	je     50a2 <_asn1_yyparse+0x1ce2>
    3a6f:	83 3d fa f8 20 00 0f 	cmp    DWORD PTR [rip+0x20f8fa],0xf        # 213370 <result_parse>
    3a76:	74 0d                	je     3a85 <_asn1_yyparse+0x6c5>
    3a78:	89 44 24 10          	mov    DWORD PTR [rsp+0x10],eax
    3a7c:	e8 bf f5 ff ff       	call   3040 <_asn1_yyerror.part.1>
    3a81:	8b 44 24 10          	mov    eax,DWORD PTR [rsp+0x10]
    3a85:	83 f8 02             	cmp    eax,0x2
    3a88:	0f 85 8f fe ff ff    	jne    391d <_asn1_yyparse+0x55d>
    3a8e:	83 3d db f8 20 00 0f 	cmp    DWORD PTR [rip+0x20f8db],0xf        # 213370 <result_parse>
    3a95:	0f 84 4d 01 00 00    	je     3be8 <_asn1_yyparse+0x828>
    3a9b:	48 8d 3d f7 aa 00 00 	lea    rdi,[rip+0xaaf7]        # e599 <_fini+0x99>
    3aa2:	49 89 df             	mov    r15,rbx
    3aa5:	bb 02 00 00 00       	mov    ebx,0x2
    3aaa:	e8 91 f5 ff ff       	call   3040 <_asn1_yyerror.part.1>
    3aaf:	e9 21 ff ff ff       	jmp    39d5 <_asn1_yyparse+0x615>
    3ab4:	0f 1f 40 00          	nop    DWORD PTR [rax+0x0]
    3ab8:	c7 05 a6 f7 20 00 00 	mov    DWORD PTR [rip+0x20f7a6],0x0        # 213268 <_asn1_yychar>
    3abf:	00 00 00 
    3ac2:	31 d2                	xor    edx,edx
    3ac4:	e9 f2 fa ff ff       	jmp    35bb <_asn1_yyparse+0x1fb>
    3ac9:	0f 1f 80 00 00 00 00 	nop    DWORD PTR [rax+0x0]
    3ad0:	48 b8 45 6e 64 20 4f 	movabs rax,0x4620664f20646e45
    3ad7:	66 20 46 
    3ada:	c7 05 a4 f7 20 00 69 	mov    DWORD PTR [rip+0x20f7a4],0x656c69        # 213288 <last_token+0x8>
    3ae1:	6c 65 00 
    3ae4:	48 89 05 95 f7 20 00 	mov    QWORD PTR [rip+0x20f795],rax        # 213280 <last_token>
    3aeb:	31 c0                	xor    eax,eax
    3aed:	89 05 75 f7 20 00    	mov    DWORD PTR [rip+0x20f775],eax        # 213268 <_asn1_yychar>
    3af3:	e9 a2 fa ff ff       	jmp    359a <_asn1_yyparse+0x1da>
    3af8:	0f 1f 84 00 00 00 00 	nop    DWORD PTR [rax+rax*1+0x0]
    3aff:	00 
    3b00:	48 8d 05 59 b6 00 00 	lea    rax,[rip+0xb659]        # f160 <yytable>
    3b07:	44 0f bf 24 48       	movsx  r12d,WORD PTR [rax+rcx*2]
    3b0c:	44 89 e2             	mov    edx,r12d
    3b0f:	f7 da                	neg    edx
    3b11:	45 85 e4             	test   r12d,r12d
    3b14:	0f 8e d8 fa ff ff    	jle    35f2 <_asn1_yyparse+0x232>
    3b1a:	8b 44 24 2c          	mov    eax,DWORD PTR [rsp+0x2c]
    3b1e:	c7 05 40 f7 20 00 fe 	mov    DWORD PTR [rip+0x20f740],0xfffffffe        # 213268 <_asn1_yychar>
    3b25:	ff ff ff 
    3b28:	83 f8 01             	cmp    eax,0x1
    3b2b:	83 d0 ff             	adc    eax,0xffffffff
    3b2e:	49 83 c5 48          	add    r13,0x48
    3b32:	89 44 24 2c          	mov    DWORD PTR [rsp+0x2c],eax
    3b36:	48 8b 05 e3 f6 20 00 	mov    rax,QWORD PTR [rip+0x20f6e3]        # 213220 <_asn1_yylval>
    3b3d:	49 89 45 00          	mov    QWORD PTR [r13+0x0],rax
    3b41:	48 8b 05 e0 f6 20 00 	mov    rax,QWORD PTR [rip+0x20f6e0]        # 213228 <_asn1_yylval+0x8>
    3b48:	49 89 45 08          	mov    QWORD PTR [r13+0x8],rax
    3b4c:	48 8b 05 dd f6 20 00 	mov    rax,QWORD PTR [rip+0x20f6dd]        # 213230 <_asn1_yylval+0x10>
    3b53:	49 89 45 10          	mov    QWORD PTR [r13+0x10],rax
    3b57:	48 8b 05 da f6 20 00 	mov    rax,QWORD PTR [rip+0x20f6da]        # 213238 <_asn1_yylval+0x18>
    3b5e:	49 89 45 18          	mov    QWORD PTR [r13+0x18],rax
    3b62:	48 8b 05 d7 f6 20 00 	mov    rax,QWORD PTR [rip+0x20f6d7]        # 213240 <_asn1_yylval+0x20>
    3b69:	49 89 45 20          	mov    QWORD PTR [r13+0x20],rax
    3b6d:	48 8b 05 d4 f6 20 00 	mov    rax,QWORD PTR [rip+0x20f6d4]        # 213248 <_asn1_yylval+0x28>
    3b74:	49 89 45 28          	mov    QWORD PTR [r13+0x28],rax
    3b78:	48 8b 05 d1 f6 20 00 	mov    rax,QWORD PTR [rip+0x20f6d1]        # 213250 <_asn1_yylval+0x30>
    3b7f:	49 89 45 30          	mov    QWORD PTR [r13+0x30],rax
    3b83:	48 8b 05 ce f6 20 00 	mov    rax,QWORD PTR [rip+0x20f6ce]        # 213258 <_asn1_yylval+0x38>
    3b8a:	49 89 45 38          	mov    QWORD PTR [r13+0x38],rax
    3b8e:	48 8b 05 cb f6 20 00 	mov    rax,QWORD PTR [rip+0x20f6cb]        # 213260 <_asn1_yylval+0x40>
    3b95:	49 89 45 40          	mov    QWORD PTR [r13+0x40],rax
    3b99:	e9 03 fd ff ff       	jmp    38a1 <_asn1_yyparse+0x4e1>
    3b9e:	48 8d 05 bb b5 00 00 	lea    rax,[rip+0xb5bb]        # f160 <yytable>
    3ba5:	44 0f bf 24 50       	movsx  r12d,WORD PTR [rax+rdx*2]
    3baa:	e9 f2 fc ff ff       	jmp    38a1 <_asn1_yyparse+0x4e1>
    3baf:	83 3d ba f7 20 00 0f 	cmp    DWORD PTR [rip+0x20f7ba],0xf        # 213370 <result_parse>
    3bb6:	48 8b 7c 24 60       	mov    rdi,QWORD PTR [rsp+0x60]
    3bbb:	0f 84 5c fd ff ff    	je     391d <_asn1_yyparse+0x55d>
    3bc1:	e9 b2 fe ff ff       	jmp    3a78 <_asn1_yyparse+0x6b8>
    3bc6:	66 2e 0f 1f 84 00 00 	nop    WORD PTR cs:[rax+rax*1+0x0]
    3bcd:	00 00 00 
    3bd0:	0f 85 47 fd ff ff    	jne    391d <_asn1_yyparse+0x55d>
    3bd6:	49 89 df             	mov    r15,rbx
    3bd9:	bb 01 00 00 00       	mov    ebx,0x1
    3bde:	e9 f2 fd ff ff       	jmp    39d5 <_asn1_yyparse+0x615>
    3be3:	0f 1f 44 00 00       	nop    DWORD PTR [rax+rax*1+0x0]
    3be8:	49 89 df             	mov    r15,rbx
    3beb:	bb 02 00 00 00       	mov    ebx,0x2
    3bf0:	e9 e0 fd ff ff       	jmp    39d5 <_asn1_yyparse+0x615>
    3bf5:	49 8b 85 28 ff ff ff 	mov    rax,QWORD PTR [r13-0xd8]
    3bfc:	48 89 44 24 70       	mov    QWORD PTR [rsp+0x70],rax
    3c01:	e9 ca fb ff ff       	jmp    37d0 <_asn1_yyparse+0x410>
    3c06:	48 8d 3d 73 f7 20 00 	lea    rdi,[rip+0x20f773]        # 213380 <e_list>
    3c0d:	be 03 00 04 00       	mov    esi,0x40003
    3c12:	e8 39 75 00 00       	call   b150 <_asn1_add_static_node>
    3c17:	48 85 c0             	test   rax,rax
    3c1a:	48 89 44 24 70       	mov    QWORD PTR [rsp+0x70],rax
    3c1f:	0f 84 ab fb ff ff    	je     37d0 <_asn1_yyparse+0x410>
    3c25:	49 8b 55 b8          	mov    rdx,QWORD PTR [r13-0x48]
    3c29:	48 85 d2             	test   rdx,rdx
    3c2c:	48 89 50 60          	mov    QWORD PTR [rax+0x60],rdx
    3c30:	0f 84 9a fb ff ff    	je     37d0 <_asn1_yyparse+0x410>
    3c36:	48 89 42 70          	mov    QWORD PTR [rdx+0x70],rax
    3c3a:	e9 91 fb ff ff       	jmp    37d0 <_asn1_yyparse+0x410>
    3c3f:	48 8d 3d 3a f7 20 00 	lea    rdi,[rip+0x20f73a]        # 213380 <e_list>
    3c46:	be 03 00 00 00       	mov    esi,0x3
    3c4b:	e8 00 75 00 00       	call   b150 <_asn1_add_static_node>
    3c50:	48 89 44 24 70       	mov    QWORD PTR [rsp+0x70],rax
    3c55:	e9 76 fb ff ff       	jmp    37d0 <_asn1_yyparse+0x410>
    3c5a:	48 8d 3d 1f f7 20 00 	lea    rdi,[rip+0x20f71f]        # 213380 <e_list>
    3c61:	be 09 00 02 00       	mov    esi,0x20009
    3c66:	e8 e5 74 00 00       	call   b150 <_asn1_add_static_node>
    3c6b:	48 89 44 24 70       	mov    QWORD PTR [rsp+0x70],rax
    3c70:	e9 5b fb ff ff       	jmp    37d0 <_asn1_yyparse+0x410>
    3c75:	48 8d 3d 04 f7 20 00 	lea    rdi,[rip+0x20f704]        # 213380 <e_list>
    3c7c:	be 09 00 01 00       	mov    esi,0x10009
    3c81:	e8 ca 74 00 00       	call   b150 <_asn1_add_static_node>
    3c86:	48 89 44 24 70       	mov    QWORD PTR [rsp+0x70],rax
    3c8b:	e9 40 fb ff ff       	jmp    37d0 <_asn1_yyparse+0x410>
    3c90:	48 8d 3d e9 f6 20 00 	lea    rdi,[rip+0x20f6e9]        # 213380 <e_list>
    3c97:	be 09 00 00 00       	mov    esi,0x9
    3c9c:	e8 af 74 00 00       	call   b150 <_asn1_add_static_node>
    3ca1:	4c 89 ea             	mov    rdx,r13
    3ca4:	48 89 44 24 70       	mov    QWORD PTR [rsp+0x70],rax
    3ca9:	8b 32                	mov    esi,DWORD PTR [rdx]
    3cab:	48 83 c2 04          	add    rdx,0x4
    3caf:	8d 8e ff fe fe fe    	lea    ecx,[rsi-0x1010101]
    3cb5:	f7 d6                	not    esi
    3cb7:	21 f1                	and    ecx,esi
    3cb9:	81 e1 80 80 80 80    	and    ecx,0x80808080
    3cbf:	74 e8                	je     3ca9 <_asn1_yyparse+0x8e9>
    3cc1:	89 ce                	mov    esi,ecx
    3cc3:	48 89 c7             	mov    rdi,rax
    3cc6:	c1 ee 10             	shr    esi,0x10
    3cc9:	f7 c1 80 80 00 00    	test   ecx,0x8080
    3ccf:	0f 44 ce             	cmove  ecx,esi
    3cd2:	48 8d 72 02          	lea    rsi,[rdx+0x2]
    3cd6:	48 0f 44 d6          	cmove  rdx,rsi
    3cda:	89 ce                	mov    esi,ecx
    3cdc:	40 00 ce             	add    sil,cl
    3cdf:	4c 89 ee             	mov    rsi,r13
    3ce2:	48 83 da 03          	sbb    rdx,0x3
    3ce6:	4c 29 ea             	sub    rdx,r13
    3ce9:	83 c2 01             	add    edx,0x1
    3cec:	e8 6f 77 00 00       	call   b460 <_asn1_set_value>
    3cf1:	e9 da fa ff ff       	jmp    37d0 <_asn1_yyparse+0x410>
    3cf6:	49 8b 45 b8          	mov    rax,QWORD PTR [r13-0x48]
    3cfa:	48 85 c0             	test   rax,rax
    3cfd:	74 07                	je     3d06 <_asn1_yyparse+0x946>
    3cff:	81 48 48 00 10 00 00 	or     DWORD PTR [rax+0x48],0x1000
    3d06:	48 89 44 24 70       	mov    QWORD PTR [rsp+0x70],rax
    3d0b:	e9 c0 fa ff ff       	jmp    37d0 <_asn1_yyparse+0x410>
    3d10:	49 8b 45 b8          	mov    rax,QWORD PTR [r13-0x48]
    3d14:	48 85 c0             	test   rax,rax
    3d17:	74 07                	je     3d20 <_asn1_yyparse+0x960>
    3d19:	81 48 48 00 08 00 00 	or     DWORD PTR [rax+0x48],0x800
    3d20:	48 89 44 24 70       	mov    QWORD PTR [rsp+0x70],rax
    3d25:	e9 a6 fa ff ff       	jmp    37d0 <_asn1_yyparse+0x410>
    3d2a:	49 8b 45 00          	mov    rax,QWORD PTR [r13+0x0]
    3d2e:	48 89 44 24 70       	mov    QWORD PTR [rsp+0x70],rax
    3d33:	e9 98 fa ff ff       	jmp    37d0 <_asn1_yyparse+0x410>
    3d38:	41 8b b5 70 ff ff ff 	mov    esi,DWORD PTR [r13-0x90]
    3d3f:	48 8d 3d 3a f6 20 00 	lea    rdi,[rip+0x20f63a]        # 213380 <e_list>
    3d46:	83 ce 08             	or     esi,0x8
    3d49:	e8 02 74 00 00       	call   b150 <_asn1_add_static_node>
    3d4e:	49 8d 75 b8          	lea    rsi,[r13-0x48]
    3d52:	48 89 44 24 70       	mov    QWORD PTR [rsp+0x70],rax
    3d57:	48 89 f2             	mov    rdx,rsi
    3d5a:	8b 3a                	mov    edi,DWORD PTR [rdx]
    3d5c:	48 83 c2 04          	add    rdx,0x4
    3d60:	8d 8f ff fe fe fe    	lea    ecx,[rdi-0x1010101]
    3d66:	f7 d7                	not    edi
    3d68:	21 f9                	and    ecx,edi
    3d6a:	81 e1 80 80 80 80    	and    ecx,0x80808080
    3d70:	74 e8                	je     3d5a <_asn1_yyparse+0x99a>
    3d72:	89 cf                	mov    edi,ecx
    3d74:	c1 ef 10             	shr    edi,0x10
    3d77:	f7 c1 80 80 00 00    	test   ecx,0x8080
    3d7d:	0f 44 cf             	cmove  ecx,edi
    3d80:	48 8d 7a 02          	lea    rdi,[rdx+0x2]
    3d84:	48 0f 44 d7          	cmove  rdx,rdi
    3d88:	89 cf                	mov    edi,ecx
    3d8a:	40 00 cf             	add    dil,cl
    3d8d:	48 89 c7             	mov    rdi,rax
    3d90:	48 83 da 03          	sbb    rdx,0x3
    3d94:	48 29 f2             	sub    rdx,rsi
    3d97:	83 c2 01             	add    edx,0x1
    3d9a:	e8 c1 76 00 00       	call   b460 <_asn1_set_value>
    3d9f:	e9 2c fa ff ff       	jmp    37d0 <_asn1_yyparse+0x410>
    3da4:	48 8d 3d d5 f5 20 00 	lea    rdi,[rip+0x20f5d5]        # 213380 <e_list>
    3dab:	be 08 00 00 00       	mov    esi,0x8
    3db0:	e8 9b 73 00 00       	call   b150 <_asn1_add_static_node>
    3db5:	49 8d 75 b8          	lea    rsi,[r13-0x48]
    3db9:	48 89 44 24 70       	mov    QWORD PTR [rsp+0x70],rax
    3dbe:	48 89 f2             	mov    rdx,rsi
    3dc1:	8b 3a                	mov    edi,DWORD PTR [rdx]
    3dc3:	48 83 c2 04          	add    rdx,0x4
    3dc7:	8d 8f ff fe fe fe    	lea    ecx,[rdi-0x1010101]
    3dcd:	f7 d7                	not    edi
    3dcf:	21 f9                	and    ecx,edi
    3dd1:	81 e1 80 80 80 80    	and    ecx,0x80808080
    3dd7:	74 e8                	je     3dc1 <_asn1_yyparse+0xa01>
    3dd9:	89 cf                	mov    edi,ecx
    3ddb:	c1 ef 10             	shr    edi,0x10
    3dde:	f7 c1 80 80 00 00    	test   ecx,0x8080
    3de4:	0f 44 cf             	cmove  ecx,edi
    3de7:	48 8d 7a 02          	lea    rdi,[rdx+0x2]
    3deb:	48 0f 44 d7          	cmove  rdx,rdi
    3def:	89 cf                	mov    edi,ecx
    3df1:	40 00 cf             	add    dil,cl
    3df4:	48 89 c7             	mov    rdi,rax
    3df7:	48 83 da 03          	sbb    rdx,0x3
    3dfb:	48 29 f2             	sub    rdx,rsi
    3dfe:	83 c2 01             	add    edx,0x1
    3e01:	e8 5a 76 00 00       	call   b460 <_asn1_set_value>
    3e06:	e9 c5 f9 ff ff       	jmp    37d0 <_asn1_yyparse+0x410>
    3e0b:	c7 44 24 70 00 04 00 	mov    DWORD PTR [rsp+0x70],0x400
    3e12:	00 
    3e13:	e9 b8 f9 ff ff       	jmp    37d0 <_asn1_yyparse+0x410>
    3e18:	c7 44 24 70 00 02 00 	mov    DWORD PTR [rsp+0x70],0x200
    3e1f:	00 
    3e20:	e9 ab f9 ff ff       	jmp    37d0 <_asn1_yyparse+0x410>
    3e25:	48 8b 05 cc f1 20 00 	mov    rax,QWORD PTR [rip+0x20f1cc]        # 212ff8 <_DYNAMIC+0x228>
    3e2c:	44 8b 05 2d f5 20 00 	mov    r8d,DWORD PTR [rip+0x20f52d]        # 213360 <line_number>
    3e33:	4d 8d 8d c0 fd ff ff 	lea    r9,[r13-0x240]
    3e3a:	48 8b 0d 2f f4 20 00 	mov    rcx,QWORD PTR [rip+0x20f42f]        # 213270 <file_name>
    3e41:	48 8d 15 a0 ac 00 00 	lea    rdx,[rip+0xaca0]        # eae8 <_fini+0x5e8>
    3e48:	be 01 00 00 00       	mov    esi,0x1
    3e4d:	48 8b 38             	mov    rdi,QWORD PTR [rax]
    3e50:	31 c0                	xor    eax,eax
    3e52:	e8 b9 ef ff ff       	call   2e10 <__fprintf_chk@plt>
    3e57:	e9 74 f9 ff ff       	jmp    37d0 <_asn1_yyparse+0x410>
    3e5c:	48 8b 6c 24 38       	mov    rbp,QWORD PTR [rsp+0x38]
    3e61:	48 8d 0d 18 f4 20 00 	lea    rcx,[rip+0x20f418]        # 213280 <last_token>
    3e68:	48 8d 15 08 a7 00 00 	lea    rdx,[rip+0xa708]        # e577 <_fini+0x77>
    3e6f:	be 41 00 00 00       	mov    esi,0x41
    3e74:	31 c0                	xor    eax,eax
    3e76:	48 89 ef             	mov    rdi,rbp
    3e79:	e8 82 ed ff ff       	call   2c00 <snprintf@plt>
    3e7e:	48 89 e9             	mov    rcx,rbp
    3e81:	8b 31                	mov    esi,DWORD PTR [rcx]
    3e83:	48 83 c1 04          	add    rcx,0x4
    3e87:	8d 96 ff fe fe fe    	lea    edx,[rsi-0x1010101]
    3e8d:	f7 d6                	not    esi
    3e8f:	21 f2                	and    edx,esi
    3e91:	81 e2 80 80 80 80    	and    edx,0x80808080
    3e97:	74 e8                	je     3e81 <_asn1_yyparse+0xac1>
    3e99:	89 d6                	mov    esi,edx
    3e9b:	c1 ee 10             	shr    esi,0x10
    3e9e:	f7 c2 80 80 00 00    	test   edx,0x8080
    3ea4:	0f 44 d6             	cmove  edx,esi
    3ea7:	48 8d 71 02          	lea    rsi,[rcx+0x2]
    3eab:	48 0f 44 ce          	cmove  rcx,rsi
    3eaf:	89 d6                	mov    esi,edx
    3eb1:	40 00 d6             	add    sil,dl
    3eb4:	48 83 d9 03          	sbb    rcx,0x3
    3eb8:	48 2b 4c 24 38       	sub    rcx,QWORD PTR [rsp+0x38]
    3ebd:	39 c8                	cmp    eax,ecx
    3ebf:	0f 84 0b f9 ff ff    	je     37d0 <_asn1_yyparse+0x410>
    3ec5:	48 8b 05 2c f1 20 00 	mov    rax,QWORD PTR [rip+0x20f12c]        # 212ff8 <_DYNAMIC+0x228>
    3ecc:	44 8b 05 8d f4 20 00 	mov    r8d,DWORD PTR [rip+0x20f48d]        # 213360 <line_number>
    3ed3:	48 8d 15 a8 a6 00 00 	lea    rdx,[rip+0xa6a8]        # e582 <_fini+0x82>
    3eda:	48 8b 0d 8f f3 20 00 	mov    rcx,QWORD PTR [rip+0x20f38f]        # 213270 <file_name>
    3ee1:	be 01 00 00 00       	mov    esi,0x1
    3ee6:	48 8b 38             	mov    rdi,QWORD PTR [rax]
    3ee9:	31 c0                	xor    eax,eax
    3eeb:	e8 20 ef ff ff       	call   2e10 <__fprintf_chk@plt>
    3ef0:	bf 01 00 00 00       	mov    edi,0x1
    3ef5:	e8 e6 ee ff ff       	call   2de0 <exit@plt>
    3efa:	66 0f 1f 44 00 00    	nop    WORD PTR [rax+rax*1+0x0]
    3f00:	48 8b 6c 24 38       	mov    rbp,QWORD PTR [rsp+0x38]
    3f05:	48 8d 0d 74 f3 20 00 	lea    rcx,[rip+0x20f374]        # 213280 <last_token>
    3f0c:	48 8d 15 64 a6 00 00 	lea    rdx,[rip+0xa664]        # e577 <_fini+0x77>
    3f13:	be 41 00 00 00       	mov    esi,0x41
    3f18:	31 c0                	xor    eax,eax
    3f1a:	48 89 ef             	mov    rdi,rbp
    3f1d:	e8 de ec ff ff       	call   2c00 <snprintf@plt>
    3f22:	48 89 e9             	mov    rcx,rbp
    3f25:	8b 31                	mov    esi,DWORD PTR [rcx]
    3f27:	48 83 c1 04          	add    rcx,0x4
    3f2b:	8d 96 ff fe fe fe    	lea    edx,[rsi-0x1010101]
    3f31:	f7 d6                	not    esi
    3f33:	21 f2                	and    edx,esi
    3f35:	81 e2 80 80 80 80    	and    edx,0x80808080
    3f3b:	74 e8                	je     3f25 <_asn1_yyparse+0xb65>
    3f3d:	e9 57 ff ff ff       	jmp    3e99 <_asn1_yyparse+0xad9>
    3f42:	48 8b 6c 24 38       	mov    rbp,QWORD PTR [rsp+0x38]
    3f47:	48 8d 0d 32 f3 20 00 	lea    rcx,[rip+0x20f332]        # 213280 <last_token>
    3f4e:	48 8d 15 22 a6 00 00 	lea    rdx,[rip+0xa622]        # e577 <_fini+0x77>
    3f55:	be 41 00 00 00       	mov    esi,0x41
    3f5a:	31 c0                	xor    eax,eax
    3f5c:	48 89 ef             	mov    rdi,rbp
    3f5f:	e8 9c ec ff ff       	call   2c00 <snprintf@plt>
    3f64:	48 89 e9             	mov    rcx,rbp
    3f67:	8b 31                	mov    esi,DWORD PTR [rcx]
    3f69:	48 83 c1 04          	add    rcx,0x4
    3f6d:	8d 96 ff fe fe fe    	lea    edx,[rsi-0x1010101]
    3f73:	f7 d6                	not    esi
    3f75:	21 f2                	and    edx,esi
    3f77:	81 e2 80 80 80 80    	and    edx,0x80808080
    3f7d:	74 e8                	je     3f67 <_asn1_yyparse+0xba7>
    3f7f:	e9 15 ff ff ff       	jmp    3e99 <_asn1_yyparse+0xad9>
    3f84:	48 8b 6c 24 38       	mov    rbp,QWORD PTR [rsp+0x38]
    3f89:	48 8d 0d f0 f2 20 00 	lea    rcx,[rip+0x20f2f0]        # 213280 <last_token>
    3f90:	48 8d 15 e0 a5 00 00 	lea    rdx,[rip+0xa5e0]        # e577 <_fini+0x77>
    3f97:	be 41 00 00 00       	mov    esi,0x41
    3f9c:	31 c0                	xor    eax,eax
    3f9e:	48 89 ef             	mov    rdi,rbp
    3fa1:	e8 5a ec ff ff       	call   2c00 <snprintf@plt>
    3fa6:	48 89 e9             	mov    rcx,rbp
    3fa9:	8b 31                	mov    esi,DWORD PTR [rcx]
    3fab:	48 83 c1 04          	add    rcx,0x4
    3faf:	8d 96 ff fe fe fe    	lea    edx,[rsi-0x1010101]
    3fb5:	f7 d6                	not    esi
    3fb7:	21 f2                	and    edx,esi
    3fb9:	81 e2 80 80 80 80    	and    edx,0x80808080
    3fbf:	74 e8                	je     3fa9 <_asn1_yyparse+0xbe9>
    3fc1:	e9 d3 fe ff ff       	jmp    3e99 <_asn1_yyparse+0xad9>
    3fc6:	48 8b 6c 24 38       	mov    rbp,QWORD PTR [rsp+0x38]
    3fcb:	48 8d 0d ae f2 20 00 	lea    rcx,[rip+0x20f2ae]        # 213280 <last_token>
    3fd2:	48 8d 15 9e a5 00 00 	lea    rdx,[rip+0xa59e]        # e577 <_fini+0x77>
    3fd9:	be 41 00 00 00       	mov    esi,0x41
    3fde:	31 c0                	xor    eax,eax
    3fe0:	48 89 ef             	mov    rdi,rbp
    3fe3:	e8 18 ec ff ff       	call   2c00 <snprintf@plt>
    3fe8:	48 89 e9             	mov    rcx,rbp
    3feb:	8b 31                	mov    esi,DWORD PTR [rcx]
    3fed:	48 83 c1 04          	add    rcx,0x4
    3ff1:	8d 96 ff fe fe fe    	lea    edx,[rsi-0x1010101]
    3ff7:	f7 d6                	not    esi
    3ff9:	21 f2                	and    edx,esi
    3ffb:	81 e2 80 80 80 80    	and    edx,0x80808080
    4001:	74 e8                	je     3feb <_asn1_yyparse+0xc2b>
    4003:	e9 91 fe ff ff       	jmp    3e99 <_asn1_yyparse+0xad9>
    4008:	48 8b 6c 24 38       	mov    rbp,QWORD PTR [rsp+0x38]
    400d:	48 8d 0d 6c f2 20 00 	lea    rcx,[rip+0x20f26c]        # 213280 <last_token>
    4014:	48 8d 15 5c a5 00 00 	lea    rdx,[rip+0xa55c]        # e577 <_fini+0x77>
    401b:	be 41 00 00 00       	mov    esi,0x41
    4020:	31 c0                	xor    eax,eax
    4022:	48 89 ef             	mov    rdi,rbp
    4025:	e8 d6 eb ff ff       	call   2c00 <snprintf@plt>
    402a:	48 89 e9             	mov    rcx,rbp
    402d:	8b 31                	mov    esi,DWORD PTR [rcx]
    402f:	48 83 c1 04          	add    rcx,0x4
    4033:	8d 96 ff fe fe fe    	lea    edx,[rsi-0x1010101]
    4039:	f7 d6                	not    esi
    403b:	21 f2                	and    edx,esi
    403d:	81 e2 80 80 80 80    	and    edx,0x80808080
    4043:	74 e8                	je     402d <_asn1_yyparse+0xc6d>
    4045:	e9 4f fe ff ff       	jmp    3e99 <_asn1_yyparse+0xad9>
    404a:	48 8b 6c 24 38       	mov    rbp,QWORD PTR [rsp+0x38]
    404f:	48 8d 0d 2a f2 20 00 	lea    rcx,[rip+0x20f22a]        # 213280 <last_token>
    4056:	48 8d 15 1a a5 00 00 	lea    rdx,[rip+0xa51a]        # e577 <_fini+0x77>
    405d:	be 41 00 00 00       	mov    esi,0x41
    4062:	31 c0                	xor    eax,eax
    4064:	48 89 ef             	mov    rdi,rbp
    4067:	e8 94 eb ff ff       	call   2c00 <snprintf@plt>
    406c:	48 89 e9             	mov    rcx,rbp
    406f:	8b 31                	mov    esi,DWORD PTR [rcx]
    4071:	48 83 c1 04          	add    rcx,0x4
    4075:	8d 96 ff fe fe fe    	lea    edx,[rsi-0x1010101]
    407b:	f7 d6                	not    esi
    407d:	21 f2                	and    edx,esi
    407f:	81 e2 80 80 80 80    	and    edx,0x80808080
    4085:	74 e8                	je     406f <_asn1_yyparse+0xcaf>
    4087:	e9 0d fe ff ff       	jmp    3e99 <_asn1_yyparse+0xad9>
    408c:	48 8b 6c 24 38       	mov    rbp,QWORD PTR [rsp+0x38]
    4091:	48 8d 0d e8 f1 20 00 	lea    rcx,[rip+0x20f1e8]        # 213280 <last_token>
    4098:	48 8d 15 d8 a4 00 00 	lea    rdx,[rip+0xa4d8]        # e577 <_fini+0x77>
    409f:	be 41 00 00 00       	mov    esi,0x41
    40a4:	31 c0                	xor    eax,eax
    40a6:	48 89 ef             	mov    rdi,rbp
    40a9:	e8 52 eb ff ff       	call   2c00 <snprintf@plt>
    40ae:	48 89 e9             	mov    rcx,rbp
    40b1:	8b 31                	mov    esi,DWORD PTR [rcx]
    40b3:	48 83 c1 04          	add    rcx,0x4
    40b7:	8d 96 ff fe fe fe    	lea    edx,[rsi-0x1010101]
    40bd:	f7 d6                	not    esi
    40bf:	21 f2                	and    edx,esi
    40c1:	81 e2 80 80 80 80    	and    edx,0x80808080
    40c7:	74 e8                	je     40b1 <_asn1_yyparse+0xcf1>
    40c9:	e9 cb fd ff ff       	jmp    3e99 <_asn1_yyparse+0xad9>
    40ce:	48 8d 3d ab f2 20 00 	lea    rdi,[rip+0x20f2ab]        # 213380 <e_list>
    40d5:	be 0d 00 40 00       	mov    esi,0x40000d
    40da:	e8 71 70 00 00       	call   b150 <_asn1_add_static_node>
    40df:	48 8d 3d 9a f2 20 00 	lea    rdi,[rip+0x20f29a]        # 213380 <e_list>
    40e6:	be 01 00 00 00       	mov    esi,0x1
    40eb:	48 89 44 24 70       	mov    QWORD PTR [rsp+0x70],rax
    40f0:	e8 5b 70 00 00       	call   b150 <_asn1_add_static_node>
    40f5:	48 8b 54 24 70       	mov    rdx,QWORD PTR [rsp+0x70]
    40fa:	48 85 d2             	test   rdx,rdx
    40fd:	0f 84 fc 11 00 00    	je     52ff <_asn1_yyparse+0x1f3f>
    4103:	48 85 c0             	test   rax,rax
    4106:	48 89 42 60          	mov    QWORD PTR [rdx+0x60],rax
    410a:	74 04                	je     4110 <_asn1_yyparse+0xd50>
    410c:	48 89 50 70          	mov    QWORD PTR [rax+0x70],rdx
    4110:	4c 89 ee             	mov    rsi,r13
    4113:	48 89 c7             	mov    rdi,rax
    4116:	e8 f5 75 00 00       	call   b710 <_asn1_set_name>
    411b:	e9 b0 f6 ff ff       	jmp    37d0 <_asn1_yyparse+0x410>
    4120:	48 8d 3d 59 f2 20 00 	lea    rdi,[rip+0x20f259]        # 213380 <e_list>
    4127:	be 0d 00 00 00       	mov    esi,0xd
    412c:	e8 1f 70 00 00       	call   b150 <_asn1_add_static_node>
    4131:	48 89 44 24 70       	mov    QWORD PTR [rsp+0x70],rax
    4136:	e9 95 f6 ff ff       	jmp    37d0 <_asn1_yyparse+0x410>
    413b:	48 8d 3d 3e f2 20 00 	lea    rdi,[rip+0x20f23e]        # 213380 <e_list>
    4142:	be 12 00 00 00       	mov    esi,0x12
    4147:	e8 04 70 00 00       	call   b150 <_asn1_add_static_node>
    414c:	48 85 c0             	test   rax,rax
    414f:	48 89 44 24 70       	mov    QWORD PTR [rsp+0x70],rax
    4154:	0f 84 76 f6 ff ff    	je     37d0 <_asn1_yyparse+0x410>
    415a:	49 8b 55 b8          	mov    rdx,QWORD PTR [r13-0x48]
    415e:	48 85 d2             	test   rdx,rdx
    4161:	48 89 50 60          	mov    QWORD PTR [rax+0x60],rdx
    4165:	0f 84 65 f6 ff ff    	je     37d0 <_asn1_yyparse+0x410>
    416b:	48 89 42 70          	mov    QWORD PTR [rdx+0x70],rax
    416f:	e9 5c f6 ff ff       	jmp    37d0 <_asn1_yyparse+0x410>
    4174:	48 8d 3d 05 f2 20 00 	lea    rdi,[rip+0x20f205]        # 213380 <e_list>
    417b:	be 0f 00 20 00       	mov    esi,0x20000f
    4180:	e8 cb 6f 00 00       	call   b150 <_asn1_add_static_node>
    4185:	48 85 c0             	test   rax,rax
    4188:	48 89 44 24 70       	mov    QWORD PTR [rsp+0x70],rax
    418d:	0f 84 3d f6 ff ff    	je     37d0 <_asn1_yyparse+0x410>
    4193:	49 8b 55 00          	mov    rdx,QWORD PTR [r13+0x0]
    4197:	48 85 d2             	test   rdx,rdx
    419a:	48 89 50 60          	mov    QWORD PTR [rax+0x60],rdx
    419e:	0f 84 2c f6 ff ff    	je     37d0 <_asn1_yyparse+0x410>
    41a4:	48 89 42 70          	mov    QWORD PTR [rdx+0x70],rax
    41a8:	e9 23 f6 ff ff       	jmp    37d0 <_asn1_yyparse+0x410>
    41ad:	48 8d 3d cc f1 20 00 	lea    rdi,[rip+0x20f1cc]        # 213380 <e_list>
    41b4:	be 0f 00 00 00       	mov    esi,0xf
    41b9:	e8 92 6f 00 00       	call   b150 <_asn1_add_static_node>
    41be:	48 85 c0             	test   rax,rax
    41c1:	48 89 44 24 70       	mov    QWORD PTR [rsp+0x70],rax
    41c6:	0f 84 04 f6 ff ff    	je     37d0 <_asn1_yyparse+0x410>
    41cc:	49 8b 55 00          	mov    rdx,QWORD PTR [r13+0x0]
    41d0:	48 85 d2             	test   rdx,rdx
    41d3:	48 89 50 60          	mov    QWORD PTR [rax+0x60],rdx
    41d7:	0f 84 f3 f5 ff ff    	je     37d0 <_asn1_yyparse+0x410>
    41dd:	48 89 42 70          	mov    QWORD PTR [rdx+0x70],rax
    41e1:	e9 ea f5 ff ff       	jmp    37d0 <_asn1_yyparse+0x410>
    41e6:	48 8d 3d 93 f1 20 00 	lea    rdi,[rip+0x20f193]        # 213380 <e_list>
    41ed:	be 0e 00 00 00       	mov    esi,0xe
    41f2:	e8 59 6f 00 00       	call   b150 <_asn1_add_static_node>
    41f7:	48 85 c0             	test   rax,rax
    41fa:	48 89 44 24 70       	mov    QWORD PTR [rsp+0x70],rax
    41ff:	0f 84 cb f5 ff ff    	je     37d0 <_asn1_yyparse+0x410>
    4205:	49 8b 55 b8          	mov    rdx,QWORD PTR [r13-0x48]
    4209:	48 85 d2             	test   rdx,rdx
    420c:	48 89 50 60          	mov    QWORD PTR [rax+0x60],rdx
    4210:	0f 84 ba f5 ff ff    	je     37d0 <_asn1_yyparse+0x410>
    4216:	48 89 42 70          	mov    QWORD PTR [rdx+0x70],rax
    421a:	e9 b1 f5 ff ff       	jmp    37d0 <_asn1_yyparse+0x410>
    421f:	48 8d 3d 5a f1 20 00 	lea    rdi,[rip+0x20f15a]        # 213380 <e_list>
    4226:	be 0b 00 20 00       	mov    esi,0x20000b
    422b:	e8 20 6f 00 00       	call   b150 <_asn1_add_static_node>
    4230:	48 85 c0             	test   rax,rax
    4233:	48 89 44 24 70       	mov    QWORD PTR [rsp+0x70],rax
    4238:	0f 84 92 f5 ff ff    	je     37d0 <_asn1_yyparse+0x410>
    423e:	49 8b 55 00          	mov    rdx,QWORD PTR [r13+0x0]
    4242:	48 85 d2             	test   rdx,rdx
    4245:	48 89 50 60          	mov    QWORD PTR [rax+0x60],rdx
    4249:	0f 84 81 f5 ff ff    	je     37d0 <_asn1_yyparse+0x410>
    424f:	48 89 42 70          	mov    QWORD PTR [rdx+0x70],rax
    4253:	e9 78 f5 ff ff       	jmp    37d0 <_asn1_yyparse+0x410>
    4258:	48 8d 3d 21 f1 20 00 	lea    rdi,[rip+0x20f121]        # 213380 <e_list>
    425f:	be 0b 00 00 00       	mov    esi,0xb
    4264:	e8 e7 6e 00 00       	call   b150 <_asn1_add_static_node>
    4269:	48 85 c0             	test   rax,rax
    426c:	48 89 44 24 70       	mov    QWORD PTR [rsp+0x70],rax
    4271:	0f 84 59 f5 ff ff    	je     37d0 <_asn1_yyparse+0x410>
    4277:	49 8b 55 00          	mov    rdx,QWORD PTR [r13+0x0]
    427b:	48 85 d2             	test   rdx,rdx
    427e:	48 89 50 60          	mov    QWORD PTR [rax+0x60],rdx
    4282:	0f 84 48 f5 ff ff    	je     37d0 <_asn1_yyparse+0x410>
    4288:	48 89 42 70          	mov    QWORD PTR [rdx+0x70],rax
    428c:	e9 3f f5 ff ff       	jmp    37d0 <_asn1_yyparse+0x410>
    4291:	48 8d 3d e8 f0 20 00 	lea    rdi,[rip+0x20f0e8]        # 213380 <e_list>
    4298:	be 05 00 00 00       	mov    esi,0x5
    429d:	e8 ae 6e 00 00       	call   b150 <_asn1_add_static_node>
    42a2:	48 85 c0             	test   rax,rax
    42a5:	48 89 44 24 70       	mov    QWORD PTR [rsp+0x70],rax
    42aa:	0f 84 20 f5 ff ff    	je     37d0 <_asn1_yyparse+0x410>
    42b0:	49 8b 55 b8          	mov    rdx,QWORD PTR [r13-0x48]
    42b4:	48 85 d2             	test   rdx,rdx
    42b7:	48 89 50 60          	mov    QWORD PTR [rax+0x60],rdx
    42bb:	0f 84 0f f5 ff ff    	je     37d0 <_asn1_yyparse+0x410>
    42c1:	48 89 42 70          	mov    QWORD PTR [rdx+0x70],rax
    42c5:	e9 06 f5 ff ff       	jmp    37d0 <_asn1_yyparse+0x410>
    42ca:	49 8b bd 70 ff ff ff 	mov    rdi,QWORD PTR [r13-0x90]
    42d1:	49 8b 6d 00          	mov    rbp,QWORD PTR [r13+0x0]
    42d5:	48 89 7c 24 70       	mov    QWORD PTR [rsp+0x70],rdi
    42da:	e8 01 75 00 00       	call   b7e0 <_asn1_get_last_right>
    42df:	48 89 ee             	mov    rsi,rbp
    42e2:	48 89 c7             	mov    rdi,rax
    42e5:	e8 d6 74 00 00       	call   b7c0 <_asn1_set_right>
    42ea:	e9 e1 f4 ff ff       	jmp    37d0 <_asn1_yyparse+0x410>
    42ef:	49 8b 45 00          	mov    rax,QWORD PTR [r13+0x0]
    42f3:	48 89 44 24 70       	mov    QWORD PTR [rsp+0x70],rax
    42f8:	e9 d3 f4 ff ff       	jmp    37d0 <_asn1_yyparse+0x410>
    42fd:	49 8b 7d 00          	mov    rdi,QWORD PTR [r13+0x0]
    4301:	49 8d 75 b8          	lea    rsi,[r13-0x48]
    4305:	e8 06 74 00 00       	call   b710 <_asn1_set_name>
    430a:	48 89 44 24 70       	mov    QWORD PTR [rsp+0x70],rax
    430f:	e9 bc f4 ff ff       	jmp    37d0 <_asn1_yyparse+0x410>
    4314:	49 8b 45 b8          	mov    rax,QWORD PTR [r13-0x48]
    4318:	48 85 c0             	test   rax,rax
    431b:	74 07                	je     4324 <_asn1_yyparse+0xf64>
    431d:	81 48 48 00 40 00 00 	or     DWORD PTR [rax+0x48],0x4000
    4324:	48 89 44 24 70       	mov    QWORD PTR [rsp+0x70],rax
    4329:	e9 a2 f4 ff ff       	jmp    37d0 <_asn1_yyparse+0x410>
    432e:	49 8b 75 b8          	mov    rsi,QWORD PTR [r13-0x48]
    4332:	48 85 f6             	test   rsi,rsi
    4335:	0f 84 cb 0f 00 00    	je     5306 <_asn1_yyparse+0x1f46>
    433b:	81 4e 48 00 80 00 00 	or     DWORD PTR [rsi+0x48],0x8000
    4342:	48 89 74 24 70       	mov    QWORD PTR [rsp+0x70],rsi
    4347:	48 8b 76 60          	mov    rsi,QWORD PTR [rsi+0x60]
    434b:	49 8b 7d 00          	mov    rdi,QWORD PTR [r13+0x0]
    434f:	e8 6c 74 00 00       	call   b7c0 <_asn1_set_right>
    4354:	48 8b 54 24 70       	mov    rdx,QWORD PTR [rsp+0x70]
    4359:	48 85 d2             	test   rdx,rdx
    435c:	0f 84 6e f4 ff ff    	je     37d0 <_asn1_yyparse+0x410>
    4362:	49 8b 45 00          	mov    rax,QWORD PTR [r13+0x0]
    4366:	48 85 c0             	test   rax,rax
    4369:	48 89 42 60          	mov    QWORD PTR [rdx+0x60],rax
    436d:	0f 84 5d f4 ff ff    	je     37d0 <_asn1_yyparse+0x410>
    4373:	48 89 50 70          	mov    QWORD PTR [rax+0x70],rdx
    4377:	e9 54 f4 ff ff       	jmp    37d0 <_asn1_yyparse+0x410>
    437c:	49 8b 45 00          	mov    rax,QWORD PTR [r13+0x0]
    4380:	48 89 44 24 70       	mov    QWORD PTR [rsp+0x70],rax
    4385:	e9 46 f4 ff ff       	jmp    37d0 <_asn1_yyparse+0x410>
    438a:	49 8b 45 00          	mov    rax,QWORD PTR [r13+0x0]
    438e:	48 89 44 24 70       	mov    QWORD PTR [rsp+0x70],rax
    4393:	e9 38 f4 ff ff       	jmp    37d0 <_asn1_yyparse+0x410>
    4398:	49 8b 45 00          	mov    rax,QWORD PTR [r13+0x0]
    439c:	48 89 44 24 70       	mov    QWORD PTR [rsp+0x70],rax
    43a1:	e9 2a f4 ff ff       	jmp    37d0 <_asn1_yyparse+0x410>
    43a6:	49 8b 45 00          	mov    rax,QWORD PTR [r13+0x0]
    43aa:	48 89 44 24 70       	mov    QWORD PTR [rsp+0x70],rax
    43af:	e9 1c f4 ff ff       	jmp    37d0 <_asn1_yyparse+0x410>
    43b4:	49 8b 45 00          	mov    rax,QWORD PTR [r13+0x0]
    43b8:	48 89 44 24 70       	mov    QWORD PTR [rsp+0x70],rax
    43bd:	e9 0e f4 ff ff       	jmp    37d0 <_asn1_yyparse+0x410>
    43c2:	49 8b 45 00          	mov    rax,QWORD PTR [r13+0x0]
    43c6:	48 89 44 24 70       	mov    QWORD PTR [rsp+0x70],rax
    43cb:	e9 00 f4 ff ff       	jmp    37d0 <_asn1_yyparse+0x410>
    43d0:	48 8d 3d a9 ef 20 00 	lea    rdi,[rip+0x20efa9]        # 213380 <e_list>
    43d7:	be 14 00 00 00       	mov    esi,0x14
    43dc:	e8 6f 6d 00 00       	call   b150 <_asn1_add_static_node>
    43e1:	48 89 44 24 70       	mov    QWORD PTR [rsp+0x70],rax
    43e6:	e9 e5 f3 ff ff       	jmp    37d0 <_asn1_yyparse+0x410>
    43eb:	49 8b 45 00          	mov    rax,QWORD PTR [r13+0x0]
    43ef:	48 89 44 24 70       	mov    QWORD PTR [rsp+0x70],rax
    43f4:	e9 d7 f3 ff ff       	jmp    37d0 <_asn1_yyparse+0x410>
    43f9:	48 8d 3d 80 ef 20 00 	lea    rdi,[rip+0x20ef80]        # 213380 <e_list>
    4400:	be 02 00 00 00       	mov    esi,0x2
    4405:	e8 46 6d 00 00       	call   b150 <_asn1_add_static_node>
    440a:	4c 89 ea             	mov    rdx,r13
    440d:	48 89 44 24 70       	mov    QWORD PTR [rsp+0x70],rax
    4412:	8b 32                	mov    esi,DWORD PTR [rdx]
    4414:	48 83 c2 04          	add    rdx,0x4
    4418:	8d 8e ff fe fe fe    	lea    ecx,[rsi-0x1010101]
    441e:	f7 d6                	not    esi
    4420:	21 f1                	and    ecx,esi
    4422:	81 e1 80 80 80 80    	and    ecx,0x80808080
    4428:	74 e8                	je     4412 <_asn1_yyparse+0x1052>
    442a:	89 ce                	mov    esi,ecx
    442c:	48 89 c7             	mov    rdi,rax
    442f:	c1 ee 10             	shr    esi,0x10
    4432:	f7 c1 80 80 00 00    	test   ecx,0x8080
    4438:	0f 44 ce             	cmove  ecx,esi
    443b:	48 8d 72 02          	lea    rsi,[rdx+0x2]
    443f:	48 0f 44 d6          	cmove  rdx,rsi
    4443:	89 ce                	mov    esi,ecx
    4445:	40 00 ce             	add    sil,cl
    4448:	4c 89 ee             	mov    rsi,r13
    444b:	48 83 da 03          	sbb    rdx,0x3
    444f:	4c 29 ea             	sub    rdx,r13
    4452:	83 c2 01             	add    edx,0x1
    4455:	e8 06 70 00 00       	call   b460 <_asn1_set_value>
    445a:	e9 71 f3 ff ff       	jmp    37d0 <_asn1_yyparse+0x410>
    445f:	48 8d 3d 1a ef 20 00 	lea    rdi,[rip+0x20ef1a]        # 213380 <e_list>
    4466:	be 0c 00 00 00       	mov    esi,0xc
    446b:	e8 e0 6c 00 00       	call   b150 <_asn1_add_static_node>
    4470:	48 89 44 24 70       	mov    QWORD PTR [rsp+0x70],rax
    4475:	e9 56 f3 ff ff       	jmp    37d0 <_asn1_yyparse+0x410>
    447a:	48 8d 3d ff ee 20 00 	lea    rdi,[rip+0x20eeff]        # 213380 <e_list>
    4481:	be 15 00 04 00       	mov    esi,0x40015
    4486:	e8 c5 6c 00 00       	call   b150 <_asn1_add_static_node>
    448b:	48 85 c0             	test   rax,rax
    448e:	48 89 44 24 70       	mov    QWORD PTR [rsp+0x70],rax
    4493:	0f 84 37 f3 ff ff    	je     37d0 <_asn1_yyparse+0x410>
    4499:	49 8b 55 b8          	mov    rdx,QWORD PTR [r13-0x48]
    449d:	48 85 d2             	test   rdx,rdx
    44a0:	48 89 50 60          	mov    QWORD PTR [rax+0x60],rdx
    44a4:	0f 84 26 f3 ff ff    	je     37d0 <_asn1_yyparse+0x410>
    44aa:	48 89 42 70          	mov    QWORD PTR [rdx+0x70],rax
    44ae:	e9 1d f3 ff ff       	jmp    37d0 <_asn1_yyparse+0x410>
    44b3:	48 8d 3d c6 ee 20 00 	lea    rdi,[rip+0x20eec6]        # 213380 <e_list>
    44ba:	be 06 00 04 00       	mov    esi,0x40006
    44bf:	e8 8c 6c 00 00       	call   b150 <_asn1_add_static_node>
    44c4:	48 85 c0             	test   rax,rax
    44c7:	48 89 44 24 70       	mov    QWORD PTR [rsp+0x70],rax
    44cc:	0f 84 fe f2 ff ff    	je     37d0 <_asn1_yyparse+0x410>
    44d2:	49 8b 55 b8          	mov    rdx,QWORD PTR [r13-0x48]
    44d6:	48 85 d2             	test   rdx,rdx
    44d9:	48 89 50 60          	mov    QWORD PTR [rax+0x60],rdx
    44dd:	0f 84 ed f2 ff ff    	je     37d0 <_asn1_yyparse+0x410>
    44e3:	48 89 42 70          	mov    QWORD PTR [rdx+0x70],rax
    44e7:	e9 e4 f2 ff ff       	jmp    37d0 <_asn1_yyparse+0x410>
    44ec:	48 8d 3d 8d ee 20 00 	lea    rdi,[rip+0x20ee8d]        # 213380 <e_list>
    44f3:	be 01 00 00 00       	mov    esi,0x1
    44f8:	e8 53 6c 00 00       	call   b150 <_asn1_add_static_node>
    44fd:	49 8d b5 28 ff ff ff 	lea    rsi,[r13-0xd8]
    4504:	48 89 c7             	mov    rdi,rax
    4507:	48 89 44 24 70       	mov    QWORD PTR [rsp+0x70],rax
    450c:	e8 ff 71 00 00       	call   b710 <_asn1_set_name>
    4511:	49 8d 75 b8          	lea    rsi,[r13-0x48]
    4515:	48 89 f0             	mov    rax,rsi
    4518:	8b 08                	mov    ecx,DWORD PTR [rax]
    451a:	48 83 c0 04          	add    rax,0x4
    451e:	8d 91 ff fe fe fe    	lea    edx,[rcx-0x1010101]
    4524:	f7 d1                	not    ecx
    4526:	21 ca                	and    edx,ecx
    4528:	81 e2 80 80 80 80    	and    edx,0x80808080
    452e:	74 e8                	je     4518 <_asn1_yyparse+0x1158>
    4530:	89 d1                	mov    ecx,edx
    4532:	c1 e9 10             	shr    ecx,0x10
    4535:	f7 c2 80 80 00 00    	test   edx,0x8080
    453b:	0f 44 d1             	cmove  edx,ecx
    453e:	48 8d 48 02          	lea    rcx,[rax+0x2]
    4542:	89 d7                	mov    edi,edx
    4544:	48 0f 44 c1          	cmove  rax,rcx
    4548:	40 00 d7             	add    dil,dl
    454b:	48 8b 7c 24 70       	mov    rdi,QWORD PTR [rsp+0x70]
    4550:	48 83 d8 03          	sbb    rax,0x3
    4554:	48 29 f0             	sub    rax,rsi
    4557:	8d 50 01             	lea    edx,[rax+0x1]
    455a:	e8 01 6f 00 00       	call   b460 <_asn1_set_value>
    455f:	e9 6c f2 ff ff       	jmp    37d0 <_asn1_yyparse+0x410>
    4564:	48 8d 3d 15 ee 20 00 	lea    rdi,[rip+0x20ee15]        # 213380 <e_list>
    456b:	be 01 00 00 00       	mov    esi,0x1
    4570:	e8 db 6b 00 00       	call   b150 <_asn1_add_static_node>
    4575:	4c 89 ea             	mov    rdx,r13
    4578:	48 89 44 24 70       	mov    QWORD PTR [rsp+0x70],rax
    457d:	8b 32                	mov    esi,DWORD PTR [rdx]
    457f:	48 83 c2 04          	add    rdx,0x4
    4583:	8d 8e ff fe fe fe    	lea    ecx,[rsi-0x1010101]
    4589:	f7 d6                	not    esi
    458b:	21 f1                	and    ecx,esi
    458d:	81 e1 80 80 80 80    	and    ecx,0x80808080
    4593:	74 e8                	je     457d <_asn1_yyparse+0x11bd>
    4595:	89 ce                	mov    esi,ecx
    4597:	48 89 c7             	mov    rdi,rax
    459a:	c1 ee 10             	shr    esi,0x10
    459d:	f7 c1 80 80 00 00    	test   ecx,0x8080
    45a3:	0f 44 ce             	cmove  ecx,esi
    45a6:	48 8d 72 02          	lea    rsi,[rdx+0x2]
    45aa:	48 0f 44 d6          	cmove  rdx,rsi
    45ae:	89 ce                	mov    esi,ecx
    45b0:	40 00 ce             	add    sil,cl
    45b3:	4c 89 ee             	mov    rsi,r13
    45b6:	48 83 da 03          	sbb    rdx,0x3
    45ba:	4c 29 ea             	sub    rdx,r13
    45bd:	83 c2 01             	add    edx,0x1
    45c0:	e8 9b 6e 00 00       	call   b460 <_asn1_set_value>
    45c5:	e9 06 f2 ff ff       	jmp    37d0 <_asn1_yyparse+0x410>
    45ca:	49 8b bd 70 ff ff ff 	mov    rdi,QWORD PTR [r13-0x90]
    45d1:	49 8b 6d 00          	mov    rbp,QWORD PTR [r13+0x0]
    45d5:	48 89 7c 24 70       	mov    QWORD PTR [rsp+0x70],rdi
    45da:	e8 01 72 00 00       	call   b7e0 <_asn1_get_last_right>
    45df:	48 89 ee             	mov    rsi,rbp
    45e2:	48 89 c7             	mov    rdi,rax
    45e5:	e8 d6 71 00 00       	call   b7c0 <_asn1_set_right>
    45ea:	e9 e1 f1 ff ff       	jmp    37d0 <_asn1_yyparse+0x410>
    45ef:	49 8b 45 00          	mov    rax,QWORD PTR [r13+0x0]
    45f3:	48 89 44 24 70       	mov    QWORD PTR [rsp+0x70],rax
    45f8:	e9 d3 f1 ff ff       	jmp    37d0 <_asn1_yyparse+0x410>
    45fd:	48 8d 3d 7c ed 20 00 	lea    rdi,[rip+0x20ed7c]        # 213380 <e_list>
    4604:	be 01 00 00 00       	mov    esi,0x1
    4609:	e8 42 6b 00 00       	call   b150 <_asn1_add_static_node>
    460e:	49 8d b5 28 ff ff ff 	lea    rsi,[r13-0xd8]
    4615:	48 89 c7             	mov    rdi,rax
    4618:	48 89 44 24 70       	mov    QWORD PTR [rsp+0x70],rax
    461d:	e8 ee 70 00 00       	call   b710 <_asn1_set_name>
    4622:	49 8d 75 b8          	lea    rsi,[r13-0x48]
    4626:	48 89 f0             	mov    rax,rsi
    4629:	8b 08                	mov    ecx,DWORD PTR [rax]
    462b:	48 83 c0 04          	add    rax,0x4
    462f:	8d 91 ff fe fe fe    	lea    edx,[rcx-0x1010101]
    4635:	f7 d1                	not    ecx
    4637:	21 ca                	and    edx,ecx
    4639:	81 e2 80 80 80 80    	and    edx,0x80808080
    463f:	74 e8                	je     4629 <_asn1_yyparse+0x1269>
    4641:	89 d1                	mov    ecx,edx
    4643:	c1 e9 10             	shr    ecx,0x10
    4646:	f7 c2 80 80 00 00    	test   edx,0x8080
    464c:	0f 44 d1             	cmove  edx,ecx
    464f:	48 8d 48 02          	lea    rcx,[rax+0x2]
    4653:	89 d7                	mov    edi,edx
    4655:	48 0f 44 c1          	cmove  rax,rcx
    4659:	40 00 d7             	add    dil,dl
    465c:	48 8b 7c 24 70       	mov    rdi,QWORD PTR [rsp+0x70]
    4661:	48 83 d8 03          	sbb    rax,0x3
    4665:	48 29 f0             	sub    rax,rsi
    4668:	8d 50 01             	lea    edx,[rax+0x1]
    466b:	e8 f0 6d 00 00       	call   b460 <_asn1_set_value>
    4670:	e9 5b f1 ff ff       	jmp    37d0 <_asn1_yyparse+0x410>
    4675:	48 8d 3d 04 ed 20 00 	lea    rdi,[rip+0x20ed04]        # 213380 <e_list>
    467c:	be 01 00 00 00       	mov    esi,0x1
    4681:	e8 ca 6a 00 00       	call   b150 <_asn1_add_static_node>
    4686:	49 8d 75 b8          	lea    rsi,[r13-0x48]
    468a:	48 89 44 24 70       	mov    QWORD PTR [rsp+0x70],rax
    468f:	48 89 f2             	mov    rdx,rsi
    4692:	8b 3a                	mov    edi,DWORD PTR [rdx]
    4694:	48 83 c2 04          	add    rdx,0x4
    4698:	8d 8f ff fe fe fe    	lea    ecx,[rdi-0x1010101]
    469e:	f7 d7                	not    edi
    46a0:	21 f9                	and    ecx,edi
    46a2:	81 e1 80 80 80 80    	and    ecx,0x80808080
    46a8:	74 e8                	je     4692 <_asn1_yyparse+0x12d2>
    46aa:	89 cf                	mov    edi,ecx
    46ac:	c1 ef 10             	shr    edi,0x10
    46af:	f7 c1 80 80 00 00    	test   ecx,0x8080
    46b5:	0f 44 cf             	cmove  ecx,edi
    46b8:	48 8d 7a 02          	lea    rdi,[rdx+0x2]
    46bc:	48 0f 44 d7          	cmove  rdx,rdi
    46c0:	89 cf                	mov    edi,ecx
    46c2:	40 00 cf             	add    dil,cl
    46c5:	48 89 c7             	mov    rdi,rax
    46c8:	48 83 da 03          	sbb    rdx,0x3
    46cc:	48 29 f2             	sub    rdx,rsi
    46cf:	83 c2 01             	add    edx,0x1
    46d2:	e8 89 6d 00 00       	call   b460 <_asn1_set_value>
    46d7:	e9 f4 f0 ff ff       	jmp    37d0 <_asn1_yyparse+0x410>
    46dc:	48 8b 7c 24 38       	mov    rdi,QWORD PTR [rsp+0x38]
    46e1:	48 8d 15 8f 9e 00 00 	lea    rdx,[rip+0x9e8f]        # e577 <_fini+0x77>
    46e8:	4c 89 e9             	mov    rcx,r13
    46eb:	be 41 00 00 00       	mov    esi,0x41
    46f0:	31 c0                	xor    eax,eax
    46f2:	e8 09 e5 ff ff       	call   2c00 <snprintf@plt>
    46f7:	e9 d4 f0 ff ff       	jmp    37d0 <_asn1_yyparse+0x410>
    46fc:	48 8b 7c 24 38       	mov    rdi,QWORD PTR [rsp+0x38]
    4701:	48 8d 15 6f 9e 00 00 	lea    rdx,[rip+0x9e6f]        # e577 <_fini+0x77>
    4708:	4c 89 e9             	mov    rcx,r13
    470b:	be 41 00 00 00       	mov    esi,0x41
    4710:	31 c0                	xor    eax,eax
    4712:	e8 e9 e4 ff ff       	call   2c00 <snprintf@plt>
    4717:	e9 b4 f0 ff ff       	jmp    37d0 <_asn1_yyparse+0x410>
    471c:	48 8b 7c 24 38       	mov    rdi,QWORD PTR [rsp+0x38]
    4721:	48 8d 15 4f 9e 00 00 	lea    rdx,[rip+0x9e4f]        # e577 <_fini+0x77>
    4728:	4c 89 e9             	mov    rcx,r13
    472b:	be 41 00 00 00       	mov    esi,0x41
    4730:	31 c0                	xor    eax,eax
    4732:	e8 c9 e4 ff ff       	call   2c00 <snprintf@plt>
    4737:	e9 94 f0 ff ff       	jmp    37d0 <_asn1_yyparse+0x410>
    473c:	48 8b 6c 24 38       	mov    rbp,QWORD PTR [rsp+0x38]
    4741:	4c 8d 05 36 9e 00 00 	lea    r8,[rip+0x9e36]        # e57e <_fini+0x7e>
    4748:	b9 41 00 00 00       	mov    ecx,0x41
    474d:	4d 89 e9             	mov    r9,r13
    4750:	ba 01 00 00 00       	mov    edx,0x1
    4755:	be 41 00 00 00       	mov    esi,0x41
    475a:	31 c0                	xor    eax,eax
    475c:	48 89 ef             	mov    rdi,rbp
    475f:	e8 9c e3 ff ff       	call   2b00 <__snprintf_chk@plt>
    4764:	48 89 e9             	mov    rcx,rbp
    4767:	8b 31                	mov    esi,DWORD PTR [rcx]
    4769:	48 83 c1 04          	add    rcx,0x4
    476d:	8d 96 ff fe fe fe    	lea    edx,[rsi-0x1010101]
    4773:	f7 d6                	not    esi
    4775:	21 f2                	and    edx,esi
    4777:	81 e2 80 80 80 80    	and    edx,0x80808080
    477d:	74 e8                	je     4767 <_asn1_yyparse+0x13a7>
    477f:	e9 15 f7 ff ff       	jmp    3e99 <_asn1_yyparse+0xad9>
    4784:	48 8b 7c 24 38       	mov    rdi,QWORD PTR [rsp+0x38]
    4789:	48 8d 15 e7 9d 00 00 	lea    rdx,[rip+0x9de7]        # e577 <_fini+0x77>
    4790:	4c 89 e9             	mov    rcx,r13
    4793:	be 41 00 00 00       	mov    esi,0x41
    4798:	31 c0                	xor    eax,eax
    479a:	e8 61 e4 ff ff       	call   2c00 <snprintf@plt>
    479f:	e9 2c f0 ff ff       	jmp    37d0 <_asn1_yyparse+0x410>
    47a4:	48 8b 7c 24 38       	mov    rdi,QWORD PTR [rsp+0x38]
    47a9:	48 8d 15 c7 9d 00 00 	lea    rdx,[rip+0x9dc7]        # e577 <_fini+0x77>
    47b0:	4c 89 e9             	mov    rcx,r13
    47b3:	be 41 00 00 00       	mov    esi,0x41
    47b8:	31 c0                	xor    eax,eax
    47ba:	e8 41 e4 ff ff       	call   2c00 <snprintf@plt>
    47bf:	e9 0c f0 ff ff       	jmp    37d0 <_asn1_yyparse+0x410>
    47c4:	49 8b 45 00          	mov    rax,QWORD PTR [r13+0x0]
    47c8:	48 89 44 24 70       	mov    QWORD PTR [rsp+0x70],rax
    47cd:	e9 fe ef ff ff       	jmp    37d0 <_asn1_yyparse+0x410>
    47d2:	49 8b 45 00          	mov    rax,QWORD PTR [r13+0x0]
    47d6:	48 89 44 24 70       	mov    QWORD PTR [rsp+0x70],rax
    47db:	e9 f0 ef ff ff       	jmp    37d0 <_asn1_yyparse+0x410>
    47e0:	49 8b 45 00          	mov    rax,QWORD PTR [r13+0x0]
    47e4:	48 89 44 24 70       	mov    QWORD PTR [rsp+0x70],rax
    47e9:	e9 e2 ef ff ff       	jmp    37d0 <_asn1_yyparse+0x410>
    47ee:	49 8b 45 00          	mov    rax,QWORD PTR [r13+0x0]
    47f2:	48 89 44 24 70       	mov    QWORD PTR [rsp+0x70],rax
    47f7:	e9 d4 ef ff ff       	jmp    37d0 <_asn1_yyparse+0x410>
    47fc:	49 8b 45 00          	mov    rax,QWORD PTR [r13+0x0]
    4800:	48 89 44 24 70       	mov    QWORD PTR [rsp+0x70],rax
    4805:	e9 c6 ef ff ff       	jmp    37d0 <_asn1_yyparse+0x410>
    480a:	49 8b 45 00          	mov    rax,QWORD PTR [r13+0x0]
    480e:	48 89 44 24 70       	mov    QWORD PTR [rsp+0x70],rax
    4813:	e9 b8 ef ff ff       	jmp    37d0 <_asn1_yyparse+0x410>
    4818:	49 8b 45 00          	mov    rax,QWORD PTR [r13+0x0]
    481c:	48 89 44 24 70       	mov    QWORD PTR [rsp+0x70],rax
    4821:	e9 aa ef ff ff       	jmp    37d0 <_asn1_yyparse+0x410>
    4826:	48 8d 3d 53 eb 20 00 	lea    rdi,[rip+0x20eb53]        # 213380 <e_list>
    482d:	be 02 00 20 00       	mov    esi,0x200002
    4832:	e8 19 69 00 00       	call   b150 <_asn1_add_static_node>
    4837:	49 8d 75 b8          	lea    rsi,[r13-0x48]
    483b:	48 89 44 24 70       	mov    QWORD PTR [rsp+0x70],rax
    4840:	48 89 f2             	mov    rdx,rsi
    4843:	8b 3a                	mov    edi,DWORD PTR [rdx]
    4845:	48 83 c2 04          	add    rdx,0x4
    4849:	8d 8f ff fe fe fe    	lea    ecx,[rdi-0x1010101]
    484f:	f7 d7                	not    edi
    4851:	21 f9                	and    ecx,edi
    4853:	81 e1 80 80 80 80    	and    ecx,0x80808080
    4859:	74 e8                	je     4843 <_asn1_yyparse+0x1483>
    485b:	89 cf                	mov    edi,ecx
    485d:	c1 ef 10             	shr    edi,0x10
    4860:	f7 c1 80 80 00 00    	test   ecx,0x8080
    4866:	0f 44 cf             	cmove  ecx,edi
    4869:	48 8d 7a 02          	lea    rdi,[rdx+0x2]
    486d:	48 0f 44 d7          	cmove  rdx,rdi
    4871:	89 cf                	mov    edi,ecx
    4873:	40 00 cf             	add    dil,cl
    4876:	48 89 c7             	mov    rdi,rax
    4879:	48 83 da 03          	sbb    rdx,0x3
    487d:	48 29 f2             	sub    rdx,rsi
    4880:	83 c2 01             	add    edx,0x1
    4883:	e8 d8 6b 00 00       	call   b460 <_asn1_set_value>
    4888:	e9 43 ef ff ff       	jmp    37d0 <_asn1_yyparse+0x410>
    488d:	49 8b 45 00          	mov    rax,QWORD PTR [r13+0x0]
    4891:	48 89 44 24 70       	mov    QWORD PTR [rsp+0x70],rax
    4896:	e9 35 ef ff ff       	jmp    37d0 <_asn1_yyparse+0x410>
    489b:	49 8b 45 00          	mov    rax,QWORD PTR [r13+0x0]
    489f:	48 89 44 24 70       	mov    QWORD PTR [rsp+0x70],rax
    48a4:	e9 27 ef ff ff       	jmp    37d0 <_asn1_yyparse+0x410>
    48a9:	49 8b 45 00          	mov    rax,QWORD PTR [r13+0x0]
    48ad:	48 89 44 24 70       	mov    QWORD PTR [rsp+0x70],rax
    48b2:	e9 19 ef ff ff       	jmp    37d0 <_asn1_yyparse+0x410>
    48b7:	49 8b 45 00          	mov    rax,QWORD PTR [r13+0x0]
    48bb:	48 89 44 24 70       	mov    QWORD PTR [rsp+0x70],rax
    48c0:	e9 0b ef ff ff       	jmp    37d0 <_asn1_yyparse+0x410>
    48c5:	49 8b 45 00          	mov    rax,QWORD PTR [r13+0x0]
    48c9:	48 89 44 24 70       	mov    QWORD PTR [rsp+0x70],rax
    48ce:	e9 fd ee ff ff       	jmp    37d0 <_asn1_yyparse+0x410>
    48d3:	49 8b 45 00          	mov    rax,QWORD PTR [r13+0x0]
    48d7:	48 89 44 24 70       	mov    QWORD PTR [rsp+0x70],rax
    48dc:	e9 ef ee ff ff       	jmp    37d0 <_asn1_yyparse+0x410>
    48e1:	49 8b 45 00          	mov    rax,QWORD PTR [r13+0x0]
    48e5:	48 89 44 24 70       	mov    QWORD PTR [rsp+0x70],rax
    48ea:	e9 e1 ee ff ff       	jmp    37d0 <_asn1_yyparse+0x410>
    48ef:	48 8b 7c 24 38       	mov    rdi,QWORD PTR [rsp+0x38]
    48f4:	48 8d 15 7c 9c 00 00 	lea    rdx,[rip+0x9c7c]        # e577 <_fini+0x77>
    48fb:	4c 89 e9             	mov    rcx,r13
    48fe:	be 41 00 00 00       	mov    esi,0x41
    4903:	31 c0                	xor    eax,eax
    4905:	e8 f6 e2 ff ff       	call   2c00 <snprintf@plt>
    490a:	e9 c1 ee ff ff       	jmp    37d0 <_asn1_yyparse+0x410>
    490f:	48 8d 3d 6a ea 20 00 	lea    rdi,[rip+0x20ea6a]        # 213380 <e_list>
    4916:	be 20 00 20 00       	mov    esi,0x200020
    491b:	e8 30 68 00 00       	call   b150 <_asn1_add_static_node>
    4920:	48 89 44 24 70       	mov    QWORD PTR [rsp+0x70],rax
    4925:	e9 a6 ee ff ff       	jmp    37d0 <_asn1_yyparse+0x410>
    492a:	48 8d 3d 4f ea 20 00 	lea    rdi,[rip+0x20ea4f]        # 213380 <e_list>
    4931:	be 20 00 00 00       	mov    esi,0x20
    4936:	e8 15 68 00 00       	call   b150 <_asn1_add_static_node>
    493b:	48 89 44 24 70       	mov    QWORD PTR [rsp+0x70],rax
    4940:	e9 8b ee ff ff       	jmp    37d0 <_asn1_yyparse+0x410>
    4945:	48 8d 3d 34 ea 20 00 	lea    rdi,[rip+0x20ea34]        # 213380 <e_list>
    494c:	be 1f 00 20 00       	mov    esi,0x20001f
    4951:	e8 fa 67 00 00       	call   b150 <_asn1_add_static_node>
    4956:	48 89 44 24 70       	mov    QWORD PTR [rsp+0x70],rax
    495b:	e9 70 ee ff ff       	jmp    37d0 <_asn1_yyparse+0x410>
    4960:	48 8d 3d 19 ea 20 00 	lea    rdi,[rip+0x20ea19]        # 213380 <e_list>
    4967:	be 1f 00 00 00       	mov    esi,0x1f
    496c:	e8 df 67 00 00       	call   b150 <_asn1_add_static_node>
    4971:	48 89 44 24 70       	mov    QWORD PTR [rsp+0x70],rax
    4976:	e9 55 ee ff ff       	jmp    37d0 <_asn1_yyparse+0x410>
    497b:	48 8d 3d fe e9 20 00 	lea    rdi,[rip+0x20e9fe]        # 213380 <e_list>
    4982:	be 1e 00 20 00       	mov    esi,0x20001e
    4987:	e8 c4 67 00 00       	call   b150 <_asn1_add_static_node>
    498c:	48 89 44 24 70       	mov    QWORD PTR [rsp+0x70],rax
    4991:	e9 3a ee ff ff       	jmp    37d0 <_asn1_yyparse+0x410>
    4996:	48 8d 3d e3 e9 20 00 	lea    rdi,[rip+0x20e9e3]        # 213380 <e_list>
    499d:	be 1e 00 00 00       	mov    esi,0x1e
    49a2:	e8 a9 67 00 00       	call   b150 <_asn1_add_static_node>
    49a7:	48 89 44 24 70       	mov    QWORD PTR [rsp+0x70],rax
    49ac:	e9 1f ee ff ff       	jmp    37d0 <_asn1_yyparse+0x410>
    49b1:	48 8d 3d c8 e9 20 00 	lea    rdi,[rip+0x20e9c8]        # 213380 <e_list>
    49b8:	be 1d 00 20 00       	mov    esi,0x20001d
    49bd:	e8 8e 67 00 00       	call   b150 <_asn1_add_static_node>
    49c2:	48 89 44 24 70       	mov    QWORD PTR [rsp+0x70],rax
    49c7:	e9 04 ee ff ff       	jmp    37d0 <_asn1_yyparse+0x410>
    49cc:	48 8d 3d ad e9 20 00 	lea    rdi,[rip+0x20e9ad]        # 213380 <e_list>
    49d3:	be 1d 00 00 00       	mov    esi,0x1d
    49d8:	e8 73 67 00 00       	call   b150 <_asn1_add_static_node>
    49dd:	48 89 44 24 70       	mov    QWORD PTR [rsp+0x70],rax
    49e2:	e9 e9 ed ff ff       	jmp    37d0 <_asn1_yyparse+0x410>
    49e7:	48 8d 3d 92 e9 20 00 	lea    rdi,[rip+0x20e992]        # 213380 <e_list>
    49ee:	be 1c 00 20 00       	mov    esi,0x20001c
    49f3:	e8 58 67 00 00       	call   b150 <_asn1_add_static_node>
    49f8:	48 89 44 24 70       	mov    QWORD PTR [rsp+0x70],rax
    49fd:	e9 ce ed ff ff       	jmp    37d0 <_asn1_yyparse+0x410>
    4a02:	48 8d 3d 77 e9 20 00 	lea    rdi,[rip+0x20e977]        # 213380 <e_list>
    4a09:	be 1c 01 00 00       	mov    esi,0x11c
    4a0e:	e8 3d 67 00 00       	call   b150 <_asn1_add_static_node>
    4a13:	48 89 44 24 70       	mov    QWORD PTR [rsp+0x70],rax
    4a18:	e9 b3 ed ff ff       	jmp    37d0 <_asn1_yyparse+0x410>
    4a1d:	48 8d 3d 5c e9 20 00 	lea    rdi,[rip+0x20e95c]        # 213380 <e_list>
    4a24:	be 1b 00 20 00       	mov    esi,0x20001b
    4a29:	e8 22 67 00 00       	call   b150 <_asn1_add_static_node>
    4a2e:	48 89 44 24 70       	mov    QWORD PTR [rsp+0x70],rax
    4a33:	e9 98 ed ff ff       	jmp    37d0 <_asn1_yyparse+0x410>
    4a38:	48 8d 3d 41 e9 20 00 	lea    rdi,[rip+0x20e941]        # 213380 <e_list>
    4a3f:	be 1b 00 00 00       	mov    esi,0x1b
    4a44:	e8 07 67 00 00       	call   b150 <_asn1_add_static_node>
    4a49:	48 89 44 24 70       	mov    QWORD PTR [rsp+0x70],rax
    4a4e:	e9 7d ed ff ff       	jmp    37d0 <_asn1_yyparse+0x410>
    4a53:	49 8b 45 b8          	mov    rax,QWORD PTR [r13-0x48]
    4a57:	48 89 44 24 70       	mov    QWORD PTR [rsp+0x70],rax
    4a5c:	e9 6f ed ff ff       	jmp    37d0 <_asn1_yyparse+0x410>
    4a61:	49 8b 45 00          	mov    rax,QWORD PTR [r13+0x0]
    4a65:	48 89 44 24 70       	mov    QWORD PTR [rsp+0x70],rax
    4a6a:	e9 61 ed ff ff       	jmp    37d0 <_asn1_yyparse+0x410>
    4a6f:	c7 44 24 70 00 10 00 	mov    DWORD PTR [rsp+0x70],0x1000
    4a76:	00 
    4a77:	e9 54 ed ff ff       	jmp    37d0 <_asn1_yyparse+0x410>
    4a7c:	48 8d 3d fd e8 20 00 	lea    rdi,[rip+0x20e8fd]        # 213380 <e_list>
    4a83:	be 25 00 00 00       	mov    esi,0x25
    4a88:	e8 c3 66 00 00       	call   b150 <_asn1_add_static_node>
    4a8d:	48 89 44 24 70       	mov    QWORD PTR [rsp+0x70],rax
    4a92:	e9 39 ed ff ff       	jmp    37d0 <_asn1_yyparse+0x410>
    4a97:	48 8d 3d e2 e8 20 00 	lea    rdi,[rip+0x20e8e2]        # 213380 <e_list>
    4a9e:	be 24 00 00 00       	mov    esi,0x24
    4aa3:	e8 a8 66 00 00       	call   b150 <_asn1_add_static_node>
    4aa8:	48 89 44 24 70       	mov    QWORD PTR [rsp+0x70],rax
    4aad:	e9 1e ed ff ff       	jmp    37d0 <_asn1_yyparse+0x410>
    4ab2:	48 8d 3d c7 e8 20 00 	lea    rdi,[rip+0x20e8c7]        # 213380 <e_list>
    4ab9:	be 04 00 00 00       	mov    esi,0x4
    4abe:	e8 8d 66 00 00       	call   b150 <_asn1_add_static_node>
    4ac3:	48 89 44 24 70       	mov    QWORD PTR [rsp+0x70],rax
    4ac8:	e9 03 ed ff ff       	jmp    37d0 <_asn1_yyparse+0x410>
    4acd:	49 8b 85 50 fe ff ff 	mov    rax,QWORD PTR [r13-0x1b0]
    4ad4:	48 89 44 24 70       	mov    QWORD PTR [rsp+0x70],rax
    4ad9:	e9 f2 ec ff ff       	jmp    37d0 <_asn1_yyparse+0x410>
    4ade:	49 8b 45 00          	mov    rax,QWORD PTR [r13+0x0]
    4ae2:	48 89 44 24 70       	mov    QWORD PTR [rsp+0x70],rax
    4ae7:	e9 e4 ec ff ff       	jmp    37d0 <_asn1_yyparse+0x410>
    4aec:	48 c7 44 24 70 00 00 	mov    QWORD PTR [rsp+0x70],0x0
    4af3:	00 00 
    4af5:	e9 d6 ec ff ff       	jmp    37d0 <_asn1_yyparse+0x410>
    4afa:	49 8b 45 00          	mov    rax,QWORD PTR [r13+0x0]
    4afe:	48 89 44 24 70       	mov    QWORD PTR [rsp+0x70],rax
    4b03:	e9 c8 ec ff ff       	jmp    37d0 <_asn1_yyparse+0x410>
    4b08:	48 8d 3d 71 e8 20 00 	lea    rdi,[rip+0x20e871]        # 213380 <e_list>
    4b0f:	be 03 00 00 10       	mov    esi,0x10000003
    4b14:	e8 37 66 00 00       	call   b150 <_asn1_add_static_node>
    4b19:	49 8d b5 28 ff ff ff 	lea    rsi,[r13-0xd8]
    4b20:	48 89 c7             	mov    rdi,rax
    4b23:	48 89 44 24 70       	mov    QWORD PTR [rsp+0x70],rax
    4b28:	e8 e3 6b 00 00       	call   b710 <_asn1_set_name>
    4b2d:	4c 89 e8             	mov    rax,r13
    4b30:	8b 08                	mov    ecx,DWORD PTR [rax]
    4b32:	48 83 c0 04          	add    rax,0x4
    4b36:	8d 91 ff fe fe fe    	lea    edx,[rcx-0x1010101]
    4b3c:	f7 d1                	not    ecx
    4b3e:	21 ca                	and    edx,ecx
    4b40:	81 e2 80 80 80 80    	and    edx,0x80808080
    4b46:	74 e8                	je     4b30 <_asn1_yyparse+0x1770>
    4b48:	89 d1                	mov    ecx,edx
    4b4a:	48 8b 7c 24 70       	mov    rdi,QWORD PTR [rsp+0x70]
    4b4f:	c1 e9 10             	shr    ecx,0x10
    4b52:	f7 c2 80 80 00 00    	test   edx,0x8080
    4b58:	0f 44 d1             	cmove  edx,ecx
    4b5b:	48 8d 48 02          	lea    rcx,[rax+0x2]
    4b5f:	89 d6                	mov    esi,edx
    4b61:	48 0f 44 c1          	cmove  rax,rcx
    4b65:	40 00 d6             	add    sil,dl
    4b68:	4c 89 ee             	mov    rsi,r13
    4b6b:	48 83 d8 03          	sbb    rax,0x3
    4b6f:	4c 29 e8             	sub    rax,r13
    4b72:	8d 50 01             	lea    edx,[rax+0x1]
    4b75:	e8 e6 68 00 00       	call   b460 <_asn1_set_value>
    4b7a:	e9 51 ec ff ff       	jmp    37d0 <_asn1_yyparse+0x410>
    4b7f:	48 8d 3d fa e7 20 00 	lea    rdi,[rip+0x20e7fa]        # 213380 <e_list>
    4b86:	be 0c 00 10 10       	mov    esi,0x1010000c
    4b8b:	e8 c0 65 00 00       	call   b150 <_asn1_add_static_node>
    4b90:	49 8d b5 98 fe ff ff 	lea    rsi,[r13-0x168]
    4b97:	48 89 c7             	mov    rdi,rax
    4b9a:	48 89 44 24 70       	mov    QWORD PTR [rsp+0x70],rax
    4b9f:	e8 6c 6b 00 00       	call   b710 <_asn1_set_name>
    4ba4:	49 8d b5 e0 fe ff ff 	lea    rsi,[r13-0x120]
    4bab:	48 89 f0             	mov    rax,rsi
    4bae:	8b 08                	mov    ecx,DWORD PTR [rax]
    4bb0:	48 83 c0 04          	add    rax,0x4
    4bb4:	8d 91 ff fe fe fe    	lea    edx,[rcx-0x1010101]
    4bba:	f7 d1                	not    ecx
    4bbc:	21 ca                	and    edx,ecx
    4bbe:	81 e2 80 80 80 80    	and    edx,0x80808080
    4bc4:	74 e8                	je     4bae <_asn1_yyparse+0x17ee>
    4bc6:	89 d1                	mov    ecx,edx
    4bc8:	c1 e9 10             	shr    ecx,0x10
    4bcb:	f7 c2 80 80 00 00    	test   edx,0x8080
    4bd1:	0f 44 d1             	cmove  edx,ecx
    4bd4:	48 8d 48 02          	lea    rcx,[rax+0x2]
    4bd8:	89 d7                	mov    edi,edx
    4bda:	48 0f 44 c1          	cmove  rax,rcx
    4bde:	40 00 d7             	add    dil,dl
    4be1:	48 8b 7c 24 70       	mov    rdi,QWORD PTR [rsp+0x70]
    4be6:	48 83 d8 03          	sbb    rax,0x3
    4bea:	48 29 f0             	sub    rax,rsi
    4bed:	8d 50 01             	lea    edx,[rax+0x1]
    4bf0:	e8 6b 68 00 00       	call   b460 <_asn1_set_value>
    4bf5:	48 8b 54 24 70       	mov    rdx,QWORD PTR [rsp+0x70]
    4bfa:	48 85 d2             	test   rdx,rdx
    4bfd:	0f 84 cd eb ff ff    	je     37d0 <_asn1_yyparse+0x410>
    4c03:	49 8b 45 b8          	mov    rax,QWORD PTR [r13-0x48]
    4c07:	48 85 c0             	test   rax,rax
    4c0a:	48 89 42 60          	mov    QWORD PTR [rdx+0x60],rax
    4c0e:	0f 84 bc eb ff ff    	je     37d0 <_asn1_yyparse+0x410>
    4c14:	48 89 50 70          	mov    QWORD PTR [rax+0x70],rdx
    4c18:	e9 b3 eb ff ff       	jmp    37d0 <_asn1_yyparse+0x410>
    4c1d:	48 8d 3d 5c e7 20 00 	lea    rdi,[rip+0x20e75c]        # 213380 <e_list>
    4c24:	be 0c 00 00 10       	mov    esi,0x1000000c
    4c29:	e8 22 65 00 00       	call   b150 <_asn1_add_static_node>
    4c2e:	49 8d b5 50 fe ff ff 	lea    rsi,[r13-0x1b0]
    4c35:	48 89 c7             	mov    rdi,rax
    4c38:	48 89 44 24 70       	mov    QWORD PTR [rsp+0x70],rax
    4c3d:	e8 ce 6a 00 00       	call   b710 <_asn1_set_name>
    4c42:	48 8b 54 24 70       	mov    rdx,QWORD PTR [rsp+0x70]
    4c47:	48 85 d2             	test   rdx,rdx
    4c4a:	0f 84 80 eb ff ff    	je     37d0 <_asn1_yyparse+0x410>
    4c50:	49 8b 45 b8          	mov    rax,QWORD PTR [r13-0x48]
    4c54:	48 85 c0             	test   rax,rax
    4c57:	48 89 42 60          	mov    QWORD PTR [rdx+0x60],rax
    4c5b:	0f 84 6f eb ff ff    	je     37d0 <_asn1_yyparse+0x410>
    4c61:	48 89 50 70          	mov    QWORD PTR [rax+0x70],rdx
    4c65:	e9 66 eb ff ff       	jmp    37d0 <_asn1_yyparse+0x410>
    4c6a:	49 8b 7d 00          	mov    rdi,QWORD PTR [r13+0x0]
    4c6e:	49 8d b5 70 ff ff ff 	lea    rsi,[r13-0x90]
    4c75:	e8 96 6a 00 00       	call   b710 <_asn1_set_name>
    4c7a:	48 89 44 24 70       	mov    QWORD PTR [rsp+0x70],rax
    4c7f:	e9 4c eb ff ff       	jmp    37d0 <_asn1_yyparse+0x410>
    4c84:	48 8b 7c 24 38       	mov    rdi,QWORD PTR [rsp+0x38]
    4c89:	48 8d 15 e7 98 00 00 	lea    rdx,[rip+0x98e7]        # e577 <_fini+0x77>
    4c90:	4c 89 e9             	mov    rcx,r13
    4c93:	be 41 00 00 00       	mov    esi,0x41
    4c98:	31 c0                	xor    eax,eax
    4c9a:	e8 61 df ff ff       	call   2c00 <snprintf@plt>
    4c9f:	e9 2c eb ff ff       	jmp    37d0 <_asn1_yyparse+0x410>
    4ca4:	48 8b 7c 24 38       	mov    rdi,QWORD PTR [rsp+0x38]
    4ca9:	48 8d 15 c7 98 00 00 	lea    rdx,[rip+0x98c7]        # e577 <_fini+0x77>
    4cb0:	4c 89 e9             	mov    rcx,r13
    4cb3:	be 41 00 00 00       	mov    esi,0x41
    4cb8:	31 c0                	xor    eax,eax
    4cba:	e8 41 df ff ff       	call   2c00 <snprintf@plt>
    4cbf:	e9 0c eb ff ff       	jmp    37d0 <_asn1_yyparse+0x410>
    4cc4:	48 8b 6c 24 38       	mov    rbp,QWORD PTR [rsp+0x38]
    4cc9:	4c 8d 05 ae 98 00 00 	lea    r8,[rip+0x98ae]        # e57e <_fini+0x7e>
    4cd0:	b9 41 00 00 00       	mov    ecx,0x41
    4cd5:	4d 89 e9             	mov    r9,r13
    4cd8:	ba 01 00 00 00       	mov    edx,0x1
    4cdd:	be 41 00 00 00       	mov    esi,0x41
    4ce2:	31 c0                	xor    eax,eax
    4ce4:	48 89 ef             	mov    rdi,rbp
    4ce7:	e8 14 de ff ff       	call   2b00 <__snprintf_chk@plt>
    4cec:	48 89 e9             	mov    rcx,rbp
    4cef:	8b 31                	mov    esi,DWORD PTR [rcx]
    4cf1:	48 83 c1 04          	add    rcx,0x4
    4cf5:	8d 96 ff fe fe fe    	lea    edx,[rsi-0x1010101]
    4cfb:	f7 d6                	not    esi
    4cfd:	21 f2                	and    edx,esi
    4cff:	81 e2 80 80 80 80    	and    edx,0x80808080
    4d05:	74 e8                	je     4cef <_asn1_yyparse+0x192f>
    4d07:	e9 8d f1 ff ff       	jmp    3e99 <_asn1_yyparse+0xad9>
    4d0c:	48 8b 7c 24 38       	mov    rdi,QWORD PTR [rsp+0x38]
    4d11:	48 8d 15 5f 98 00 00 	lea    rdx,[rip+0x985f]        # e577 <_fini+0x77>
    4d18:	4c 89 e9             	mov    rcx,r13
    4d1b:	be 41 00 00 00       	mov    esi,0x41
    4d20:	31 c0                	xor    eax,eax
    4d22:	e8 d9 de ff ff       	call   2c00 <snprintf@plt>
    4d27:	e9 a4 ea ff ff       	jmp    37d0 <_asn1_yyparse+0x410>
    4d2c:	48 8b 7c 24 38       	mov    rdi,QWORD PTR [rsp+0x38]
    4d31:	48 8d 15 3f 98 00 00 	lea    rdx,[rip+0x983f]        # e577 <_fini+0x77>
    4d38:	4c 89 e9             	mov    rcx,r13
    4d3b:	be 41 00 00 00       	mov    esi,0x41
    4d40:	31 c0                	xor    eax,eax
    4d42:	e8 b9 de ff ff       	call   2c00 <snprintf@plt>
    4d47:	e9 84 ea ff ff       	jmp    37d0 <_asn1_yyparse+0x410>
    4d4c:	41 8b b5 98 fe ff ff 	mov    esi,DWORD PTR [r13-0x168]
    4d53:	48 8d 3d 26 e6 20 00 	lea    rdi,[rip+0x20e626]        # 213380 <e_list>
    4d5a:	83 ce 10             	or     esi,0x10
    4d5d:	e8 ee 63 00 00       	call   b150 <_asn1_add_static_node>
    4d62:	49 8b b5 08 fe ff ff 	mov    rsi,QWORD PTR [r13-0x1f8]
    4d69:	48 89 c7             	mov    rdi,rax
    4d6c:	48 89 44 24 70       	mov    QWORD PTR [rsp+0x70],rax
    4d71:	e8 9a 69 00 00       	call   b710 <_asn1_set_name>
    4d76:	49 8b bd 08 fe ff ff 	mov    rdi,QWORD PTR [r13-0x1f8]
    4d7d:	48 8d 35 40 b2 00 00 	lea    rsi,[rip+0xb240]        # ffc4 <bit_mask+0x4d4>
    4d84:	e8 87 69 00 00       	call   b710 <_asn1_set_name>
    4d89:	49 8b 75 b8          	mov    rsi,QWORD PTR [r13-0x48]
    4d8d:	49 8b bd 08 fe ff ff 	mov    rdi,QWORD PTR [r13-0x1f8]
    4d94:	e8 27 6a 00 00       	call   b7c0 <_asn1_set_right>
    4d99:	48 8b 44 24 70       	mov    rax,QWORD PTR [rsp+0x70]
    4d9e:	48 85 c0             	test   rax,rax
    4da1:	74 14                	je     4db7 <_asn1_yyparse+0x19f7>
    4da3:	49 8b 95 08 fe ff ff 	mov    rdx,QWORD PTR [r13-0x1f8]
    4daa:	48 85 d2             	test   rdx,rdx
    4dad:	48 89 50 60          	mov    QWORD PTR [rax+0x60],rdx
    4db1:	74 04                	je     4db7 <_asn1_yyparse+0x19f7>
    4db3:	48 89 42 70          	mov    QWORD PTR [rdx+0x70],rax
    4db7:	48 89 05 aa e5 20 00 	mov    QWORD PTR [rip+0x20e5aa],rax        # 213368 <p_tree>
    4dbe:	e9 0d ea ff ff       	jmp    37d0 <_asn1_yyparse+0x410>
    4dc3:	c7 44 24 70 00 01 00 	mov    DWORD PTR [rsp+0x70],0x100
    4dca:	00 
    4dcb:	e9 00 ea ff ff       	jmp    37d0 <_asn1_yyparse+0x410>
    4dd0:	49 8b 7d b8          	mov    rdi,QWORD PTR [r13-0x48]
    4dd4:	49 8b 6d 00          	mov    rbp,QWORD PTR [r13+0x0]
    4dd8:	48 89 7c 24 70       	mov    QWORD PTR [rsp+0x70],rdi
    4ddd:	e8 fe 69 00 00       	call   b7e0 <_asn1_get_last_right>
    4de2:	48 89 ee             	mov    rsi,rbp
    4de5:	48 89 c7             	mov    rdi,rax
    4de8:	e8 d3 69 00 00       	call   b7c0 <_asn1_set_right>
    4ded:	e9 de e9 ff ff       	jmp    37d0 <_asn1_yyparse+0x410>
    4df2:	49 8b 45 00          	mov    rax,QWORD PTR [r13+0x0]
    4df6:	48 89 44 24 70       	mov    QWORD PTR [rsp+0x70],rax
    4dfb:	e9 d0 e9 ff ff       	jmp    37d0 <_asn1_yyparse+0x410>
    4e00:	48 8d 3d 79 e5 20 00 	lea    rdi,[rip+0x20e579]        # 213380 <e_list>
    4e07:	be 06 00 20 00       	mov    esi,0x200006
    4e0c:	e8 3f 63 00 00       	call   b150 <_asn1_add_static_node>
    4e11:	48 89 44 24 70       	mov    QWORD PTR [rsp+0x70],rax
    4e16:	e9 b5 e9 ff ff       	jmp    37d0 <_asn1_yyparse+0x410>
    4e1b:	48 8d 3d 5e e5 20 00 	lea    rdi,[rip+0x20e55e]        # 213380 <e_list>
    4e22:	be 06 00 00 00       	mov    esi,0x6
    4e27:	e8 24 63 00 00       	call   b150 <_asn1_add_static_node>
    4e2c:	48 89 44 24 70       	mov    QWORD PTR [rsp+0x70],rax
    4e31:	e9 9a e9 ff ff       	jmp    37d0 <_asn1_yyparse+0x410>
    4e36:	49 8b bd 70 ff ff ff 	mov    rdi,QWORD PTR [r13-0x90]
    4e3d:	49 8b 6d 00          	mov    rbp,QWORD PTR [r13+0x0]
    4e41:	48 89 7c 24 70       	mov    QWORD PTR [rsp+0x70],rdi
    4e46:	e8 95 69 00 00       	call   b7e0 <_asn1_get_last_right>
    4e4b:	48 89 ee             	mov    rsi,rbp
    4e4e:	48 89 c7             	mov    rdi,rax
    4e51:	e8 6a 69 00 00       	call   b7c0 <_asn1_set_right>
    4e56:	e9 75 e9 ff ff       	jmp    37d0 <_asn1_yyparse+0x410>
    4e5b:	49 8b 45 00          	mov    rax,QWORD PTR [r13+0x0]
    4e5f:	48 89 44 24 70       	mov    QWORD PTR [rsp+0x70],rax
    4e64:	e9 67 e9 ff ff       	jmp    37d0 <_asn1_yyparse+0x410>
    4e69:	48 8d 3d 10 e5 20 00 	lea    rdi,[rip+0x20e510]        # 213380 <e_list>
    4e70:	be 01 00 00 00       	mov    esi,0x1
    4e75:	e8 d6 62 00 00       	call   b150 <_asn1_add_static_node>
    4e7a:	49 8d b5 28 ff ff ff 	lea    rsi,[r13-0xd8]
    4e81:	48 89 c7             	mov    rdi,rax
    4e84:	48 89 44 24 70       	mov    QWORD PTR [rsp+0x70],rax
    4e89:	e8 82 68 00 00       	call   b710 <_asn1_set_name>
    4e8e:	49 8d 75 b8          	lea    rsi,[r13-0x48]
    4e92:	48 89 f0             	mov    rax,rsi
    4e95:	8b 08                	mov    ecx,DWORD PTR [rax]
    4e97:	48 83 c0 04          	add    rax,0x4
    4e9b:	8d 91 ff fe fe fe    	lea    edx,[rcx-0x1010101]
    4ea1:	f7 d1                	not    ecx
    4ea3:	21 ca                	and    edx,ecx
    4ea5:	81 e2 80 80 80 80    	and    edx,0x80808080
    4eab:	74 e8                	je     4e95 <_asn1_yyparse+0x1ad5>
    4ead:	89 d1                	mov    ecx,edx
    4eaf:	c1 e9 10             	shr    ecx,0x10
    4eb2:	f7 c2 80 80 00 00    	test   edx,0x8080
    4eb8:	0f 44 d1             	cmove  edx,ecx
    4ebb:	48 8d 48 02          	lea    rcx,[rax+0x2]
    4ebf:	89 d7                	mov    edi,edx
    4ec1:	48 0f 44 c1          	cmove  rax,rcx
    4ec5:	40 00 d7             	add    dil,dl
    4ec8:	48 8b 7c 24 70       	mov    rdi,QWORD PTR [rsp+0x70]
    4ecd:	48 83 d8 03          	sbb    rax,0x3
    4ed1:	48 29 f0             	sub    rax,rsi
    4ed4:	8d 50 01             	lea    edx,[rax+0x1]
    4ed7:	e8 84 65 00 00       	call   b460 <_asn1_set_value>
    4edc:	e9 ef e8 ff ff       	jmp    37d0 <_asn1_yyparse+0x410>
    4ee1:	48 8d 3d 98 e4 20 00 	lea    rdi,[rip+0x20e498]        # 213380 <e_list>
    4ee8:	be 07 00 20 00       	mov    esi,0x200007
    4eed:	e8 5e 62 00 00       	call   b150 <_asn1_add_static_node>
    4ef2:	48 89 44 24 70       	mov    QWORD PTR [rsp+0x70],rax
    4ef7:	e9 d4 e8 ff ff       	jmp    37d0 <_asn1_yyparse+0x410>
    4efc:	48 8d 3d 7d e4 20 00 	lea    rdi,[rip+0x20e47d]        # 213380 <e_list>
    4f03:	be 07 00 00 00       	mov    esi,0x7
    4f08:	e8 43 62 00 00       	call   b150 <_asn1_add_static_node>
    4f0d:	48 89 44 24 70       	mov    QWORD PTR [rsp+0x70],rax
    4f12:	e9 b9 e8 ff ff       	jmp    37d0 <_asn1_yyparse+0x410>
    4f17:	48 8d 3d 62 e4 20 00 	lea    rdi,[rip+0x20e462]        # 213380 <e_list>
    4f1e:	be 23 00 20 00       	mov    esi,0x200023
    4f23:	e8 28 62 00 00       	call   b150 <_asn1_add_static_node>
    4f28:	48 89 44 24 70       	mov    QWORD PTR [rsp+0x70],rax
    4f2d:	e9 9e e8 ff ff       	jmp    37d0 <_asn1_yyparse+0x410>
    4f32:	48 8d 3d 47 e4 20 00 	lea    rdi,[rip+0x20e447]        # 213380 <e_list>
    4f39:	be 23 00 00 00       	mov    esi,0x23
    4f3e:	e8 0d 62 00 00       	call   b150 <_asn1_add_static_node>
    4f43:	48 89 44 24 70       	mov    QWORD PTR [rsp+0x70],rax
    4f48:	e9 83 e8 ff ff       	jmp    37d0 <_asn1_yyparse+0x410>
    4f4d:	48 8d 3d 2c e4 20 00 	lea    rdi,[rip+0x20e42c]        # 213380 <e_list>
    4f54:	be 22 00 20 00       	mov    esi,0x200022
    4f59:	e8 f2 61 00 00       	call   b150 <_asn1_add_static_node>
    4f5e:	48 89 44 24 70       	mov    QWORD PTR [rsp+0x70],rax
    4f63:	e9 68 e8 ff ff       	jmp    37d0 <_asn1_yyparse+0x410>
    4f68:	48 8d 3d 11 e4 20 00 	lea    rdi,[rip+0x20e411]        # 213380 <e_list>
    4f6f:	be 22 00 00 00       	mov    esi,0x22
    4f74:	e8 d7 61 00 00       	call   b150 <_asn1_add_static_node>
    4f79:	48 89 44 24 70       	mov    QWORD PTR [rsp+0x70],rax
    4f7e:	e9 4d e8 ff ff       	jmp    37d0 <_asn1_yyparse+0x410>
    4f83:	48 8d 3d f6 e3 20 00 	lea    rdi,[rip+0x20e3f6]        # 213380 <e_list>
    4f8a:	be 21 00 20 00       	mov    esi,0x200021
    4f8f:	e8 bc 61 00 00       	call   b150 <_asn1_add_static_node>
    4f94:	48 89 44 24 70       	mov    QWORD PTR [rsp+0x70],rax
    4f99:	e9 32 e8 ff ff       	jmp    37d0 <_asn1_yyparse+0x410>
    4f9e:	48 8d 3d db e3 20 00 	lea    rdi,[rip+0x20e3db]        # 213380 <e_list>
    4fa5:	be 21 00 00 00       	mov    esi,0x21
    4faa:	e8 a1 61 00 00       	call   b150 <_asn1_add_static_node>
    4faf:	48 89 44 24 70       	mov    QWORD PTR [rsp+0x70],rax
    4fb4:	e9 17 e8 ff ff       	jmp    37d0 <_asn1_yyparse+0x410>
    4fb9:	48 8d 3d c0 e3 20 00 	lea    rdi,[rip+0x20e3c0]        # 213380 <e_list>
    4fc0:	be 0c 00 00 00       	mov    esi,0xc
    4fc5:	e8 86 61 00 00       	call   b150 <_asn1_add_static_node>
    4fca:	4c 89 ee             	mov    rsi,r13
    4fcd:	48 89 c7             	mov    rdi,rax
    4fd0:	48 89 44 24 70       	mov    QWORD PTR [rsp+0x70],rax
    4fd5:	e8 36 67 00 00       	call   b710 <_asn1_set_name>
    4fda:	e9 f1 e7 ff ff       	jmp    37d0 <_asn1_yyparse+0x410>
    4fdf:	48 8d 3d 9a e3 20 00 	lea    rdi,[rip+0x20e39a]        # 213380 <e_list>
    4fe6:	be 0c 00 00 00       	mov    esi,0xc
    4feb:	e8 60 61 00 00       	call   b150 <_asn1_add_static_node>
    4ff0:	49 8d b5 70 ff ff ff 	lea    rsi,[r13-0x90]
    4ff7:	48 89 c7             	mov    rdi,rax
    4ffa:	48 89 44 24 70       	mov    QWORD PTR [rsp+0x70],rax
    4fff:	e8 0c 67 00 00       	call   b710 <_asn1_set_name>
    5004:	e9 c7 e7 ff ff       	jmp    37d0 <_asn1_yyparse+0x410>
    5009:	48 8d 3d 70 e3 20 00 	lea    rdi,[rip+0x20e370]        # 213380 <e_list>
    5010:	be 0c 00 00 00       	mov    esi,0xc
    5015:	e8 36 61 00 00       	call   b150 <_asn1_add_static_node>
    501a:	48 85 c0             	test   rax,rax
    501d:	48 89 44 24 70       	mov    QWORD PTR [rsp+0x70],rax
    5022:	74 11                	je     5035 <_asn1_yyparse+0x1c75>
    5024:	49 8b 55 b8          	mov    rdx,QWORD PTR [r13-0x48]
    5028:	48 85 d2             	test   rdx,rdx
    502b:	48 89 50 60          	mov    QWORD PTR [rax+0x60],rdx
    502f:	74 04                	je     5035 <_asn1_yyparse+0x1c75>
    5031:	48 89 42 70          	mov    QWORD PTR [rdx+0x70],rax
    5035:	49 8d b5 28 ff ff ff 	lea    rsi,[r13-0xd8]
    503c:	48 89 c7             	mov    rdi,rax
    503f:	e8 cc 66 00 00       	call   b710 <_asn1_set_name>
    5044:	e9 87 e7 ff ff       	jmp    37d0 <_asn1_yyparse+0x410>
    5049:	49 8b 7d b8          	mov    rdi,QWORD PTR [r13-0x48]
    504d:	48 85 ff             	test   rdi,rdi
    5050:	48 89 7c 24 70       	mov    QWORD PTR [rsp+0x70],rdi
    5055:	0f 84 75 e7 ff ff    	je     37d0 <_asn1_yyparse+0x410>
    505b:	49 8b 6d 00          	mov    rbp,QWORD PTR [r13+0x0]
    505f:	48 85 ed             	test   rbp,rbp
    5062:	0f 84 68 e7 ff ff    	je     37d0 <_asn1_yyparse+0x410>
    5068:	e8 73 67 00 00       	call   b7e0 <_asn1_get_last_right>
    506d:	48 89 ee             	mov    rsi,rbp
    5070:	48 89 c7             	mov    rdi,rax
    5073:	e8 48 67 00 00       	call   b7c0 <_asn1_set_right>
    5078:	e9 53 e7 ff ff       	jmp    37d0 <_asn1_yyparse+0x410>
    507d:	49 8b 45 00          	mov    rax,QWORD PTR [r13+0x0]
    5081:	48 89 44 24 70       	mov    QWORD PTR [rsp+0x70],rax
    5086:	e9 45 e7 ff ff       	jmp    37d0 <_asn1_yyparse+0x410>
    508b:	c7 44 24 70 00 08 00 	mov    DWORD PTR [rsp+0x70],0x800
    5092:	00 
    5093:	e9 38 e7 ff ff       	jmp    37d0 <_asn1_yyparse+0x410>
    5098:	49 89 df             	mov    r15,rbx
    509b:	31 db                	xor    ebx,ebx
    509d:	e9 33 e9 ff ff       	jmp    39d5 <_asn1_yyparse+0x615>
    50a2:	48 8b 7c 24 60       	mov    rdi,QWORD PTR [rsp+0x60]
    50a7:	48 3b 7c 24 30       	cmp    rdi,QWORD PTR [rsp+0x30]
    50ac:	74 05                	je     50b3 <_asn1_yyparse+0x1cf3>
    50ae:	e8 5d da ff ff       	call   2b10 <free@plt>
    50b3:	48 8b 7c 24 68       	mov    rdi,QWORD PTR [rsp+0x68]
    50b8:	e8 53 dc ff ff       	call   2d10 <malloc@plt>
    50bd:	48 85 c0             	test   rax,rax
    50c0:	48 89 44 24 60       	mov    QWORD PTR [rsp+0x60],rax
    50c5:	0f 84 bf 01 00 00    	je     528a <_asn1_yyparse+0x1eca>
    50cb:	48 8b 7c 24 48       	mov    rdi,QWORD PTR [rsp+0x48]
    50d0:	48 8b 74 24 40       	mov    rsi,QWORD PTR [rsp+0x40]
    50d5:	44 89 e1             	mov    ecx,r12d
    50d8:	4c 89 fa             	mov    rdx,r15
    50db:	e8 40 e0 ff ff       	call   3120 <yysyntax_error>
    50e0:	48 8b 7c 24 60       	mov    rdi,QWORD PTR [rsp+0x60]
    50e5:	e9 85 e9 ff ff       	jmp    3a6f <_asn1_yyparse+0x6af>
    50ea:	89 c2                	mov    edx,eax
    50ec:	88 15 8e e1 20 00    	mov    BYTE PTR [rip+0x20e18e],dl        # 213280 <last_token>
    50f2:	c6 05 88 e1 20 00 00 	mov    BYTE PTR [rip+0x20e188],0x0        # 213281 <last_token+0x1>
    50f9:	e9 ef e9 ff ff       	jmp    3aed <_asn1_yyparse+0x72d>
    50fe:	4d 89 f7             	mov    r15,r14
    5101:	bb 01 00 00 00       	mov    ebx,0x1
    5106:	e9 ca e8 ff ff       	jmp    39d5 <_asn1_yyparse+0x615>
    510b:	ba 7c 00 00 00       	mov    edx,0x7c
    5110:	eb da                	jmp    50ec <_asn1_yyparse+0x1d2c>
    5112:	88 84 24 90 3a 00 00 	mov    BYTE PTR [rsp+0x3a90],al
    5119:	48 8b 44 24 50       	mov    rax,QWORD PTR [rsp+0x50]
    511e:	41 bc 01 00 00 00    	mov    r12d,0x1
    5124:	48 89 5c 24 58       	mov    QWORD PTR [rsp+0x58],rbx
    5129:	48 8d 50 01          	lea    rdx,[rax+0x1]
    512d:	48 89 d3             	mov    rbx,rdx
    5130:	eb 28                	jmp    515a <_asn1_yyparse+0x1d9a>
    5132:	89 c1                	mov    ecx,eax
    5134:	83 e1 df             	and    ecx,0xffffffdf
    5137:	83 f9 5b             	cmp    ecx,0x5b
    513a:	74 44                	je     5180 <_asn1_yyparse+0x1dc0>
    513c:	83 f9 5d             	cmp    ecx,0x5d
    513f:	74 3f                	je     5180 <_asn1_yyparse+0x1dc0>
    5141:	83 f8 2e             	cmp    eax,0x2e
    5144:	74 3a                	je     5180 <_asn1_yyparse+0x1dc0>
    5146:	41 83 fc 40          	cmp    r12d,0x40
    514a:	0f 84 6b 01 00 00    	je     52bb <_asn1_yyparse+0x1efb>
    5150:	88 03                	mov    BYTE PTR [rbx],al
    5152:	41 83 c4 01          	add    r12d,0x1
    5156:	48 83 c3 01          	add    rbx,0x1
    515a:	48 8b 3d 17 e2 20 00 	mov    rdi,QWORD PTR [rip+0x20e217]        # 213378 <file_asn1>
    5161:	e8 fa da ff ff       	call   2c60 <fgetc@plt>
    5166:	83 f8 ff             	cmp    eax,0xffffffff
    5169:	74 15                	je     5180 <_asn1_yyparse+0x1dc0>
    516b:	83 f8 2c             	cmp    eax,0x2c
    516e:	77 c2                	ja     5132 <_asn1_yyparse+0x1d72>
    5170:	48 be 00 06 00 00 01 	movabs rsi,0x130100000600
    5177:	13 00 00 
    517a:	48 0f a3 c6          	bt     rsi,rax
    517e:	73 b2                	jae    5132 <_asn1_yyparse+0x1d72>
    5180:	48 8b 35 f1 e1 20 00 	mov    rsi,QWORD PTR [rip+0x20e1f1]        # 213378 <file_asn1>
    5187:	89 c7                	mov    edi,eax
    5189:	48 8b 5c 24 58       	mov    rbx,QWORD PTR [rsp+0x58]
    518e:	e8 8d db ff ff       	call   2d20 <ungetc@plt>
    5193:	48 8b 4c 24 50       	mov    rcx,QWORD PTR [rsp+0x50]
    5198:	49 63 c4             	movsxd rax,r12d
    519b:	48 8d 15 d5 93 00 00 	lea    rdx,[rip+0x93d5]        # e577 <_fini+0x77>
    51a2:	48 8d 3d d7 e0 20 00 	lea    rdi,[rip+0x20e0d7]        # 213280 <last_token>
    51a9:	c6 84 04 90 3a 00 00 	mov    BYTE PTR [rsp+rax*1+0x3a90],0x0
    51b0:	00 
    51b1:	be 41 00 00 00       	mov    esi,0x41
    51b6:	31 c0                	xor    eax,eax
    51b8:	e8 43 da ff ff       	call   2c00 <snprintf@plt>
    51bd:	41 8d 54 24 ff       	lea    edx,[r12-0x1]
    51c2:	48 8b 7c 24 50       	mov    rdi,QWORD PTR [rsp+0x50]
    51c7:	31 c0                	xor    eax,eax
    51c9:	48 83 c2 01          	add    rdx,0x1
    51cd:	0f b6 0c 07          	movzx  ecx,BYTE PTR [rdi+rax*1]
    51d1:	83 e9 30             	sub    ecx,0x30
    51d4:	80 f9 09             	cmp    cl,0x9
    51d7:	76 59                	jbe    5232 <_asn1_yyparse+0x1e72>
    51d9:	41 39 c4             	cmp    r12d,eax
    51dc:	7e 5d                	jle    523b <_asn1_yyparse+0x1e7b>
    51de:	48 89 5c 24 58       	mov    QWORD PTR [rsp+0x58],rbx
    51e3:	48 8d 35 90 93 00 00 	lea    rsi,[rip+0x9390]        # e57a <_fini+0x7a>
    51ea:	45 31 e4             	xor    r12d,r12d
    51ed:	48 8b 5c 24 50       	mov    rbx,QWORD PTR [rsp+0x50]
    51f2:	eb 1d                	jmp    5211 <_asn1_yyparse+0x1e51>
    51f4:	0f 1f 40 00          	nop    DWORD PTR [rax+0x0]
    51f8:	49 83 c4 01          	add    r12,0x1
    51fc:	49 83 fc 2d          	cmp    r12,0x2d
    5200:	0f 84 cb 00 00 00    	je     52d1 <_asn1_yyparse+0x1f11>
    5206:	48 8d 05 f3 d2 20 00 	lea    rax,[rip+0x20d2f3]        # 212500 <key_word>
    520d:	4a 8b 34 e0          	mov    rsi,QWORD PTR [rax+r12*8]
    5211:	48 89 df             	mov    rdi,rbx
    5214:	e8 a7 da ff ff       	call   2cc0 <strcmp@plt>
    5219:	85 c0                	test   eax,eax
    521b:	75 db                	jne    51f8 <_asn1_yyparse+0x1e38>
    521d:	48 8d 05 3c 9b 00 00 	lea    rax,[rip+0x9b3c]        # ed60 <key_word_token>
    5224:	48 8b 5c 24 58       	mov    rbx,QWORD PTR [rsp+0x58]
    5229:	42 8b 04 a0          	mov    eax,DWORD PTR [rax+r12*4]
    522d:	e9 bb e8 ff ff       	jmp    3aed <_asn1_yyparse+0x72d>
    5232:	48 83 c0 01          	add    rax,0x1
    5236:	48 39 d0             	cmp    rax,rdx
    5239:	75 92                	jne    51cd <_asn1_yyparse+0x1e0d>
    523b:	48 8b 4c 24 50       	mov    rcx,QWORD PTR [rsp+0x50]
    5240:	48 8d 15 30 93 00 00 	lea    rdx,[rip+0x9330]        # e577 <_fini+0x77>
    5247:	48 8d 3d d2 df 20 00 	lea    rdi,[rip+0x20dfd2]        # 213220 <_asn1_yylval>
    524e:	be 41 00 00 00       	mov    esi,0x41
    5253:	31 c0                	xor    eax,eax
    5255:	e8 a6 d9 ff ff       	call   2c00 <snprintf@plt>
    525a:	b8 03 01 00 00       	mov    eax,0x103
    525f:	e9 89 e8 ff ff       	jmp    3aed <_asn1_yyparse+0x72d>
    5264:	48 8b 35 0d e1 20 00 	mov    rsi,QWORD PTR [rip+0x20e10d]        # 213378 <file_asn1>
    526b:	89 c7                	mov    edi,eax
    526d:	e8 ae da ff ff       	call   2d20 <ungetc@plt>
    5272:	c6 05 07 e0 20 00 2d 	mov    BYTE PTR [rip+0x20e007],0x2d        # 213280 <last_token>
    5279:	c6 05 01 e0 20 00 00 	mov    BYTE PTR [rip+0x20e001],0x0        # 213281 <last_token+0x1>
    5280:	b8 2d 00 00 00       	mov    eax,0x2d
    5285:	e9 63 e8 ff ff       	jmp    3aed <_asn1_yyparse+0x72d>
    528a:	83 3d df e0 20 00 0f 	cmp    DWORD PTR [rip+0x20e0df],0xf        # 213370 <result_parse>
    5291:	48 8b 44 24 30       	mov    rax,QWORD PTR [rsp+0x30]
    5296:	48 c7 44 24 68 80 00 	mov    QWORD PTR [rsp+0x68],0x80
    529d:	00 00 
    529f:	48 89 44 24 60       	mov    QWORD PTR [rsp+0x60],rax
    52a4:	0f 84 e4 e7 ff ff    	je     3a8e <_asn1_yyparse+0x6ce>
    52aa:	b8 02 00 00 00       	mov    eax,0x2
    52af:	48 8d 3d 9b 92 00 00 	lea    rdi,[rip+0x929b]        # e551 <_fini+0x51>
    52b6:	e9 bd e7 ff ff       	jmp    3a78 <_asn1_yyparse+0x6b8>
    52bb:	48 8b 5c 24 58       	mov    rbx,QWORD PTR [rsp+0x58]
    52c0:	c7 05 a6 e0 20 00 0f 	mov    DWORD PTR [rip+0x20e0a6],0xf        # 213370 <result_parse>
    52c7:	00 00 00 
    52ca:	31 c0                	xor    eax,eax
    52cc:	e9 1c e8 ff ff       	jmp    3aed <_asn1_yyparse+0x72d>
    52d1:	48 8b 4c 24 50       	mov    rcx,QWORD PTR [rsp+0x50]
    52d6:	48 8d 15 9a 92 00 00 	lea    rdx,[rip+0x929a]        # e577 <_fini+0x77>
    52dd:	48 8d 3d 3c df 20 00 	lea    rdi,[rip+0x20df3c]        # 213220 <_asn1_yylval>
    52e4:	be 41 00 00 00       	mov    esi,0x41
    52e9:	31 c0                	xor    eax,eax
    52eb:	48 8b 5c 24 58       	mov    rbx,QWORD PTR [rsp+0x58]
    52f0:	e8 0b d9 ff ff       	call   2c00 <snprintf@plt>
    52f5:	b8 04 01 00 00       	mov    eax,0x104
    52fa:	e9 ee e7 ff ff       	jmp    3aed <_asn1_yyparse+0x72d>
    52ff:	31 c0                	xor    eax,eax
    5301:	e9 0a ee ff ff       	jmp    4110 <_asn1_yyparse+0xd50>
    5306:	48 c7 44 24 70 00 00 	mov    QWORD PTR [rsp+0x70],0x0
    530d:	00 00 
    530f:	e9 37 f0 ff ff       	jmp    434b <_asn1_yyparse+0xf8b>
    5314:	48 c7 44 24 70 00 00 	mov    QWORD PTR [rsp+0x70],0x0
    531b:	00 00 
    531d:	e9 81 e4 ff ff       	jmp    37a3 <_asn1_yyparse+0x3e3>
    5322:	e8 a9 d8 ff ff       	call   2bd0 <__stack_chk_fail@plt>
    5327:	66 0f 1f 84 00 00 00 	nop    WORD PTR [rax+rax*1+0x0]
    532e:	00 00 

0000000000005330 <asn1_parser2tree>:
    5330:	55                   	push   rbp
    5331:	53                   	push   rbx
    5332:	48 89 d5             	mov    rbp,rdx
    5335:	48 83 ec 08          	sub    rsp,0x8
    5339:	48 83 3e 00          	cmp    QWORD PTR [rsi],0x0
    533d:	74 51                	je     5390 <asn1_parser2tree+0x60>
    533f:	c7 05 27 e0 20 00 11 	mov    DWORD PTR [rip+0x20e027],0x11        # 213370 <result_parse>
    5346:	00 00 00 
    5349:	48 8b 3d 30 e0 20 00 	mov    rdi,QWORD PTR [rip+0x20e030]        # 213380 <e_list>
    5350:	e8 db 65 00 00       	call   b930 <_asn1_delete_list_and_nodes>
    5355:	8b 3d 15 e0 20 00    	mov    edi,DWORD PTR [rip+0x20e015]        # 213370 <result_parse>
    535b:	48 89 ee             	mov    rsi,rbp
    535e:	48 c7 05 17 e0 20 00 	mov    QWORD PTR [rip+0x20e017],0x0        # 213380 <e_list>
    5365:	00 00 00 00 
    5369:	48 c7 05 f4 df 20 00 	mov    QWORD PTR [rip+0x20dff4],0x0        # 213368 <p_tree>
    5370:	00 00 00 00 
    5374:	e8 d7 db ff ff       	call   2f50 <_asn1_create_errorDescription>
    5379:	8b 05 f1 df 20 00    	mov    eax,DWORD PTR [rip+0x20dff1]        # 213370 <result_parse>
    537f:	48 83 c4 08          	add    rsp,0x8
    5383:	5b                   	pop    rbx
    5384:	5d                   	pop    rbp
    5385:	c3                   	ret    
    5386:	66 2e 0f 1f 84 00 00 	nop    WORD PTR cs:[rax+rax*1+0x0]
    538d:	00 00 00 
    5390:	48 89 f3             	mov    rbx,rsi
    5393:	48 8d 35 d3 93 00 00 	lea    rsi,[rip+0x93d3]        # e76d <_fini+0x26d>
    539a:	48 89 3d cf de 20 00 	mov    QWORD PTR [rip+0x20decf],rdi        # 213270 <file_name>
    53a1:	e8 ea d9 ff ff       	call   2d90 <fopen@plt>
    53a6:	48 85 c0             	test   rax,rax
    53a9:	48 89 05 c8 df 20 00 	mov    QWORD PTR [rip+0x20dfc8],rax        # 213378 <file_asn1>
    53b0:	0f 84 d2 00 00 00    	je     5488 <asn1_parser2tree+0x158>
    53b6:	c7 05 b0 df 20 00 00 	mov    DWORD PTR [rip+0x20dfb0],0x0        # 213370 <result_parse>
    53bd:	00 00 00 
    53c0:	c7 05 96 df 20 00 01 	mov    DWORD PTR [rip+0x20df96],0x1        # 213360 <line_number>
    53c7:	00 00 00 
    53ca:	e8 f1 df ff ff       	call   33c0 <_asn1_yyparse>
    53cf:	48 8b 3d a2 df 20 00 	mov    rdi,QWORD PTR [rip+0x20dfa2]        # 213378 <file_asn1>
    53d6:	e8 c5 d7 ff ff       	call   2ba0 <fclose@plt>
    53db:	8b 05 8f df 20 00    	mov    eax,DWORD PTR [rip+0x20df8f]        # 213370 <result_parse>
    53e1:	85 c0                	test   eax,eax
    53e3:	0f 85 60 ff ff ff    	jne    5349 <asn1_parser2tree+0x19>
    53e9:	48 8b 3d 78 df 20 00 	mov    rdi,QWORD PTR [rip+0x20df78]        # 213368 <p_tree>
    53f0:	e8 6b 70 00 00       	call   c460 <_asn1_set_default_tag>
    53f5:	48 8b 3d 6c df 20 00 	mov    rdi,QWORD PTR [rip+0x20df6c]        # 213368 <p_tree>
    53fc:	e8 ff 6c 00 00       	call   c100 <_asn1_type_set_config>
    5401:	48 8b 3d 60 df 20 00 	mov    rdi,QWORD PTR [rip+0x20df60]        # 213368 <p_tree>
    5408:	e8 a3 6d 00 00       	call   c1b0 <_asn1_check_identifier>
    540d:	85 c0                	test   eax,eax
    540f:	89 05 5b df 20 00    	mov    DWORD PTR [rip+0x20df5b],eax        # 213370 <result_parse>
    5415:	0f 85 2e ff ff ff    	jne    5349 <asn1_parser2tree+0x19>
    541b:	48 8b 3d 46 df 20 00 	mov    rdi,QWORD PTR [rip+0x20df46]        # 213368 <p_tree>
    5422:	e8 19 66 00 00       	call   ba40 <_asn1_change_integer_value>
    5427:	48 8b 35 3a df 20 00 	mov    rsi,QWORD PTR [rip+0x20df3a]        # 213368 <p_tree>
    542e:	48 8d 3d 4b df 20 00 	lea    rdi,[rip+0x20df4b]        # 213380 <e_list>
    5435:	e8 36 67 00 00       	call   bb70 <_asn1_expand_object_id>
    543a:	85 c0                	test   eax,eax
    543c:	89 05 2e df 20 00    	mov    DWORD PTR [rip+0x20df2e],eax        # 213370 <result_parse>
    5442:	0f 85 01 ff ff ff    	jne    5349 <asn1_parser2tree+0x19>
    5448:	48 8b 05 19 df 20 00 	mov    rax,QWORD PTR [rip+0x20df19]        # 213368 <p_tree>
    544f:	48 89 03             	mov    QWORD PTR [rbx],rax
    5452:	48 8b 3d 27 df 20 00 	mov    rdi,QWORD PTR [rip+0x20df27]        # 213380 <e_list>
    5459:	e8 a2 64 00 00       	call   b900 <_asn1_delete_list>
    545e:	48 c7 05 17 df 20 00 	mov    QWORD PTR [rip+0x20df17],0x0        # 213380 <e_list>
    5465:	00 00 00 00 
    5469:	48 c7 05 f4 de 20 00 	mov    QWORD PTR [rip+0x20def4],0x0        # 213368 <p_tree>
    5470:	00 00 00 00 
    5474:	c6 45 00 00          	mov    BYTE PTR [rbp+0x0],0x0
    5478:	8b 05 f2 de 20 00    	mov    eax,DWORD PTR [rip+0x20def2]        # 213370 <result_parse>
    547e:	e9 fc fe ff ff       	jmp    537f <asn1_parser2tree+0x4f>
    5483:	0f 1f 44 00 00       	nop    DWORD PTR [rax+rax*1+0x0]
    5488:	c7 05 de de 20 00 01 	mov    DWORD PTR [rip+0x20dede],0x1        # 213370 <result_parse>
    548f:	00 00 00 
    5492:	e9 b2 fe ff ff       	jmp    5349 <asn1_parser2tree+0x19>
    5497:	66 0f 1f 84 00 00 00 	nop    WORD PTR [rax+rax*1+0x0]
    549e:	00 00 

00000000000054a0 <asn1_parser2array>:
    54a0:	41 57                	push   r15
    54a2:	41 56                	push   r14
    54a4:	49 89 f7             	mov    r15,rsi
    54a7:	41 55                	push   r13
    54a9:	41 54                	push   r12
    54ab:	48 8d 35 bb 92 00 00 	lea    rsi,[rip+0x92bb]        # e76d <_fini+0x26d>
    54b2:	55                   	push   rbp
    54b3:	53                   	push   rbx
    54b4:	48 89 fd             	mov    rbp,rdi
    54b7:	49 89 d6             	mov    r14,rdx
    54ba:	49 89 cd             	mov    r13,rcx
    54bd:	48 83 ec 18          	sub    rsp,0x18
    54c1:	48 c7 05 9c de 20 00 	mov    QWORD PTR [rip+0x20de9c],0x0        # 213368 <p_tree>
    54c8:	00 00 00 00 
    54cc:	48 89 3d 9d dd 20 00 	mov    QWORD PTR [rip+0x20dd9d],rdi        # 213270 <file_name>
    54d3:	e8 b8 d8 ff ff       	call   2d90 <fopen@plt>
    54d8:	48 85 c0             	test   rax,rax
    54db:	48 89 05 96 de 20 00 	mov    QWORD PTR [rip+0x20de96],rax        # 213378 <file_asn1>
    54e2:	0f 84 38 01 00 00    	je     5620 <asn1_parser2array+0x180>
    54e8:	c7 05 7e de 20 00 00 	mov    DWORD PTR [rip+0x20de7e],0x0        # 213370 <result_parse>
    54ef:	00 00 00 
    54f2:	c7 05 64 de 20 00 01 	mov    DWORD PTR [rip+0x20de64],0x1        # 213360 <line_number>
    54f9:	00 00 00 
    54fc:	e8 bf de ff ff       	call   33c0 <_asn1_yyparse>
    5501:	48 8b 3d 70 de 20 00 	mov    rdi,QWORD PTR [rip+0x20de70]        # 213378 <file_asn1>
    5508:	e8 93 d6 ff ff       	call   2ba0 <fclose@plt>
    550d:	8b 35 5d de 20 00    	mov    esi,DWORD PTR [rip+0x20de5d]        # 213370 <result_parse>
    5513:	85 f6                	test   esi,esi
    5515:	0f 85 c5 00 00 00    	jne    55e0 <asn1_parser2array+0x140>
    551b:	48 8b 3d 46 de 20 00 	mov    rdi,QWORD PTR [rip+0x20de46]        # 213368 <p_tree>
    5522:	48 89 eb             	mov    rbx,rbp
    5525:	e8 36 6f 00 00       	call   c460 <_asn1_set_default_tag>
    552a:	48 8b 3d 37 de 20 00 	mov    rdi,QWORD PTR [rip+0x20de37]        # 213368 <p_tree>
    5531:	e8 ca 6b 00 00       	call   c100 <_asn1_type_set_config>
    5536:	48 8b 3d 2b de 20 00 	mov    rdi,QWORD PTR [rip+0x20de2b]        # 213368 <p_tree>
    553d:	e8 6e 6c 00 00       	call   c1b0 <_asn1_check_identifier>
    5542:	85 c0                	test   eax,eax
    5544:	89 c7                	mov    edi,eax
    5546:	89 05 24 de 20 00    	mov    DWORD PTR [rip+0x20de24],eax        # 213370 <result_parse>
    554c:	74 0e                	je     555c <asn1_parser2array+0xbc>
    554e:	e9 aa 00 00 00       	jmp    55fd <asn1_parser2array+0x15d>
    5553:	0f 1f 44 00 00       	nop    DWORD PTR [rax+rax*1+0x0]
    5558:	48 8d 58 01          	lea    rbx,[rax+0x1]
    555c:	be 2f 00 00 00       	mov    esi,0x2f
    5561:	48 89 df             	mov    rdi,rbx
    5564:	e8 77 d6 ff ff       	call   2be0 <strchr@plt>
    5569:	48 85 c0             	test   rax,rax
    556c:	75 ea                	jne    5558 <asn1_parser2array+0xb8>
    556e:	48 89 ef             	mov    rdi,rbp
    5571:	e8 4a d6 ff ff       	call   2bc0 <strlen@plt>
    5576:	48 89 df             	mov    rdi,rbx
    5579:	4c 8d 64 05 00       	lea    r12,[rbp+rax*1+0x0]
    557e:	eb 07                	jmp    5587 <asn1_parser2array+0xe7>
    5580:	48 8d 78 01          	lea    rdi,[rax+0x1]
    5584:	49 89 c4             	mov    r12,rax
    5587:	be 2e 00 00 00       	mov    esi,0x2e
    558c:	e8 4f d6 ff ff       	call   2be0 <strchr@plt>
    5591:	48 85 c0             	test   rax,rax
    5594:	75 ea                	jne    5580 <asn1_parser2array+0xe0>
    5596:	4d 85 ff             	test   r15,r15
    5599:	0f 84 99 00 00 00    	je     5638 <asn1_parser2array+0x198>
    559f:	4c 89 ff             	mov    rdi,r15
    55a2:	e8 d9 d6 ff ff       	call   2c80 <__strdup@plt>
    55a7:	49 89 c7             	mov    r15,rax
    55aa:	4d 85 f6             	test   r14,r14
    55ad:	0f 84 0d 01 00 00    	je     56c0 <asn1_parser2array+0x220>
    55b3:	4c 89 f7             	mov    rdi,r14
    55b6:	e8 c5 d6 ff ff       	call   2c80 <__strdup@plt>
    55bb:	48 89 c5             	mov    rbp,rax
    55be:	48 8b 3d a3 dd 20 00 	mov    rdi,QWORD PTR [rip+0x20dda3]        # 213368 <p_tree>
    55c5:	48 89 ea             	mov    rdx,rbp
    55c8:	4c 89 fe             	mov    rsi,r15
    55cb:	e8 a0 6f 00 00       	call   c570 <_asn1_create_static_structure>
    55d0:	4c 89 ff             	mov    rdi,r15
    55d3:	e8 38 d5 ff ff       	call   2b10 <free@plt>
    55d8:	48 89 ef             	mov    rdi,rbp
    55db:	e8 30 d5 ff ff       	call   2b10 <free@plt>
    55e0:	48 8b 3d 99 dd 20 00 	mov    rdi,QWORD PTR [rip+0x20dd99]        # 213380 <e_list>
    55e7:	e8 44 63 00 00       	call   b930 <_asn1_delete_list_and_nodes>
    55ec:	8b 3d 7e dd 20 00    	mov    edi,DWORD PTR [rip+0x20dd7e]        # 213370 <result_parse>
    55f2:	48 c7 05 83 dd 20 00 	mov    QWORD PTR [rip+0x20dd83],0x0        # 213380 <e_list>
    55f9:	00 00 00 00 
    55fd:	4c 89 ee             	mov    rsi,r13
    5600:	e8 4b d9 ff ff       	call   2f50 <_asn1_create_errorDescription>
    5605:	8b 05 65 dd 20 00    	mov    eax,DWORD PTR [rip+0x20dd65]        # 213370 <result_parse>
    560b:	48 83 c4 18          	add    rsp,0x18
    560f:	5b                   	pop    rbx
    5610:	5d                   	pop    rbp
    5611:	41 5c                	pop    r12
    5613:	41 5d                	pop    r13
    5615:	41 5e                	pop    r14
    5617:	41 5f                	pop    r15
    5619:	c3                   	ret    
    561a:	66 0f 1f 44 00 00    	nop    WORD PTR [rax+rax*1+0x0]
    5620:	c7 05 46 dd 20 00 01 	mov    DWORD PTR [rip+0x20dd46],0x1        # 213370 <result_parse>
    5627:	00 00 00 
    562a:	bf 01 00 00 00       	mov    edi,0x1
    562f:	eb cc                	jmp    55fd <asn1_parser2array+0x15d>
    5631:	0f 1f 80 00 00 00 00 	nop    DWORD PTR [rax+0x0]
    5638:	4c 89 e0             	mov    rax,r12
    563b:	48 29 e8             	sub    rax,rbp
    563e:	48 8d 78 0c          	lea    rdi,[rax+0xc]
    5642:	48 89 44 24 08       	mov    QWORD PTR [rsp+0x8],rax
    5647:	e8 c4 d6 ff ff       	call   2d10 <malloc@plt>
    564c:	48 8b 54 24 08       	mov    rdx,QWORD PTR [rsp+0x8]
    5651:	48 89 ee             	mov    rsi,rbp
    5654:	48 89 c7             	mov    rdi,rax
    5657:	49 89 c7             	mov    r15,rax
    565a:	e8 91 d6 ff ff       	call   2cf0 <memcpy@plt>
    565f:	48 8b 44 24 08       	mov    rax,QWORD PTR [rsp+0x8]
    5664:	4c 89 fa             	mov    rdx,r15
    5667:	41 c6 04 07 00       	mov    BYTE PTR [r15+rax*1],0x0
    566c:	8b 0a                	mov    ecx,DWORD PTR [rdx]
    566e:	48 83 c2 04          	add    rdx,0x4
    5672:	8d 81 ff fe fe fe    	lea    eax,[rcx-0x1010101]
    5678:	f7 d1                	not    ecx
    567a:	21 c8                	and    eax,ecx
    567c:	25 80 80 80 80       	and    eax,0x80808080
    5681:	74 e9                	je     566c <asn1_parser2array+0x1cc>
    5683:	89 c1                	mov    ecx,eax
    5685:	c1 e9 10             	shr    ecx,0x10
    5688:	a9 80 80 00 00       	test   eax,0x8080
    568d:	0f 44 c1             	cmove  eax,ecx
    5690:	48 8d 4a 02          	lea    rcx,[rdx+0x2]
    5694:	48 0f 44 d1          	cmove  rdx,rcx
    5698:	89 c1                	mov    ecx,eax
    569a:	00 c1                	add    cl,al
    569c:	48 b8 5f 61 73 6e 31 	movabs rax,0x61745f316e73615f
    56a3:	5f 74 61 
    56a6:	48 83 da 03          	sbb    rdx,0x3
    56aa:	48 89 02             	mov    QWORD PTR [rdx],rax
    56ad:	c7 42 08 62 2e 63 00 	mov    DWORD PTR [rdx+0x8],0x632e62
    56b4:	e9 f1 fe ff ff       	jmp    55aa <asn1_parser2array+0x10a>
    56b9:	0f 1f 80 00 00 00 00 	nop    DWORD PTR [rax+0x0]
    56c0:	49 29 dc             	sub    r12,rbx
    56c3:	49 8d 7c 24 0a       	lea    rdi,[r12+0xa]
    56c8:	e8 43 d6 ff ff       	call   2d10 <malloc@plt>
    56cd:	4c 89 e2             	mov    rdx,r12
    56d0:	48 89 c5             	mov    rbp,rax
    56d3:	48 89 de             	mov    rsi,rbx
    56d6:	48 89 c7             	mov    rdi,rax
    56d9:	e8 12 d6 ff ff       	call   2cf0 <memcpy@plt>
    56de:	42 c6 44 25 00 00    	mov    BYTE PTR [rbp+r12*1+0x0],0x0
    56e4:	48 89 e8             	mov    rax,rbp
    56e7:	8b 08                	mov    ecx,DWORD PTR [rax]
    56e9:	48 83 c0 04          	add    rax,0x4
    56ed:	8d 91 ff fe fe fe    	lea    edx,[rcx-0x1010101]
    56f3:	f7 d1                	not    ecx
    56f5:	21 ca                	and    edx,ecx
    56f7:	81 e2 80 80 80 80    	and    edx,0x80808080
    56fd:	74 e8                	je     56e7 <asn1_parser2array+0x247>
    56ff:	89 d1                	mov    ecx,edx
    5701:	c1 e9 10             	shr    ecx,0x10
    5704:	f7 c2 80 80 00 00    	test   edx,0x8080
    570a:	0f 44 d1             	cmove  edx,ecx
    570d:	48 8d 48 02          	lea    rcx,[rax+0x2]
    5711:	48 0f 44 c1          	cmove  rax,rcx
    5715:	89 d1                	mov    ecx,edx
    5717:	00 d1                	add    cl,dl
    5719:	48 b9 5f 61 73 6e 31 	movabs rcx,0x61745f316e73615f
    5720:	5f 74 61 
    5723:	48 83 d8 03          	sbb    rax,0x3
    5727:	48 29 e8             	sub    rax,rbp
    572a:	48 8d 54 05 00       	lea    rdx,[rbp+rax*1+0x0]
    572f:	48 89 0a             	mov    QWORD PTR [rdx],rcx
    5732:	b9 62 00 00 00       	mov    ecx,0x62
    5737:	66 89 4a 08          	mov    WORD PTR [rdx+0x8],cx
    573b:	48 8d 50 09          	lea    rdx,[rax+0x9]
    573f:	85 d2                	test   edx,edx
    5741:	0f 84 77 fe ff ff    	je     55be <asn1_parser2array+0x11e>
    5747:	83 ea 01             	sub    edx,0x1
    574a:	48 89 e8             	mov    rax,rbp
    574d:	48 8d 54 15 01       	lea    rdx,[rbp+rdx*1+0x1]
    5752:	eb 11                	jmp    5765 <asn1_parser2array+0x2c5>
    5754:	0f 1f 40 00          	nop    DWORD PTR [rax+0x0]
    5758:	48 83 c0 01          	add    rax,0x1
    575c:	48 39 d0             	cmp    rax,rdx
    575f:	0f 84 59 fe ff ff    	je     55be <asn1_parser2array+0x11e>
    5765:	80 38 2d             	cmp    BYTE PTR [rax],0x2d
    5768:	75 ee                	jne    5758 <asn1_parser2array+0x2b8>
    576a:	c6 00 5f             	mov    BYTE PTR [rax],0x5f
    576d:	eb e9                	jmp    5758 <asn1_parser2array+0x2b8>
    576f:	90                   	nop

0000000000005770 <encode_val>:
    5770:	49 89 ca             	mov    r10,rcx
    5773:	41 b8 08 00 00 00    	mov    r8d,0x8
    5779:	b9 38 00 00 00       	mov    ecx,0x38
    577e:	45 31 c9             	xor    r9d,r9d
    5781:	eb 1c                	jmp    579f <encode_val+0x2f>
    5783:	0f 1f 44 00 00       	nop    DWORD PTR [rax+rax*1+0x0]
    5788:	45 85 c9             	test   r9d,r9d
    578b:	75 1d                	jne    57aa <encode_val+0x3a>
    578d:	45 85 c0             	test   r8d,r8d
    5790:	74 4b                	je     57dd <encode_val+0x6d>
    5792:	41 83 e8 01          	sub    r8d,0x1
    5796:	83 e9 07             	sub    ecx,0x7
    5799:	41 83 f8 ff          	cmp    r8d,0xffffffff
    579d:	74 3c                	je     57db <encode_val+0x6b>
    579f:	48 89 f8             	mov    rax,rdi
    57a2:	48 d3 e8             	shr    rax,cl
    57a5:	83 e0 7f             	and    eax,0x7f
    57a8:	74 de                	je     5788 <encode_val+0x18>
    57aa:	45 85 c0             	test   r8d,r8d
    57ad:	74 03                	je     57b2 <encode_val+0x42>
    57af:	83 c8 80             	or     eax,0xffffff80
    57b2:	4d 63 0a             	movsxd r9,DWORD PTR [r10]
    57b5:	41 39 d1             	cmp    r9d,edx
    57b8:	7d 07                	jge    57c1 <encode_val+0x51>
    57ba:	42 88 04 0e          	mov    BYTE PTR [rsi+r9*1],al
    57be:	45 8b 0a             	mov    r9d,DWORD PTR [r10]
    57c1:	41 83 e8 01          	sub    r8d,0x1
    57c5:	41 83 c1 01          	add    r9d,0x1
    57c9:	83 e9 07             	sub    ecx,0x7
    57cc:	41 83 f8 ff          	cmp    r8d,0xffffffff
    57d0:	45 89 0a             	mov    DWORD PTR [r10],r9d
    57d3:	41 b9 01 00 00 00    	mov    r9d,0x1
    57d9:	75 c4                	jne    579f <encode_val+0x2f>
    57db:	f3 c3                	repz ret 
    57dd:	31 c0                	xor    eax,eax
    57df:	eb d1                	jmp    57b2 <encode_val+0x42>
    57e1:	0f 1f 44 00 00       	nop    DWORD PTR [rax+rax*1+0x0]
    57e6:	66 2e 0f 1f 84 00 00 	nop    WORD PTR cs:[rax+rax*1+0x0]
    57ed:	00 00 00 

00000000000057f0 <setof_compar>:
    57f0:	55                   	push   rbp
    57f1:	53                   	push   rbx
    57f2:	48 83 ec 08          	sub    rsp,0x8
    57f6:	8b 6e 08             	mov    ebp,DWORD PTR [rsi+0x8]
    57f9:	8b 5f 08             	mov    ebx,DWORD PTR [rdi+0x8]
    57fc:	48 8b 36             	mov    rsi,QWORD PTR [rsi]
    57ff:	48 8b 3f             	mov    rdi,QWORD PTR [rdi]
    5802:	89 da                	mov    edx,ebx
    5804:	39 dd                	cmp    ebp,ebx
    5806:	48 0f 4e d5          	cmovle rdx,rbp
    580a:	e8 81 d4 ff ff       	call   2c90 <memcmp@plt>
    580f:	85 c0                	test   eax,eax
    5811:	75 13                	jne    5826 <setof_compar+0x36>
    5813:	39 dd                	cmp    ebp,ebx
    5815:	74 0f                	je     5826 <setof_compar+0x36>
    5817:	b8 01 00 00 00       	mov    eax,0x1
    581c:	7c 08                	jl     5826 <setof_compar+0x36>
    581e:	0f 9f c0             	setg   al
    5821:	0f b6 c0             	movzx  eax,al
    5824:	f7 d8                	neg    eax
    5826:	48 83 c4 08          	add    rsp,0x8
    582a:	5b                   	pop    rbx
    582b:	5d                   	pop    rbp
    582c:	c3                   	ret    
    582d:	0f 1f 00             	nop    DWORD PTR [rax]

0000000000005830 <_asn1_error_description_value_not_found>:
    5830:	48 85 f6             	test   rsi,rsi
    5833:	74 5b                	je     5890 <_asn1_error_description_value_not_found+0x60>
    5835:	55                   	push   rbp
    5836:	53                   	push   rbx
    5837:	48 8d 15 32 a0 00 00 	lea    rdx,[rip+0xa032]        # f870 <yytranslate+0x130>
    583e:	48 89 f3             	mov    rbx,rsi
    5841:	48 89 fd             	mov    rbp,rdi
    5844:	be 80 00 00 00       	mov    esi,0x80
    5849:	48 83 ec 08          	sub    rsp,0x8
    584d:	48 89 df             	mov    rdi,rbx
    5850:	e8 7b 58 00 00       	call   b0d0 <_asn1_str_cpy>
    5855:	48 89 df             	mov    rdi,rbx
    5858:	e8 63 d3 ff ff       	call   2bc0 <strlen@plt>
    585d:	48 8d 34 03          	lea    rsi,[rbx+rax*1]
    5861:	48 89 ef             	mov    rdi,rbp
    5864:	ba 58 00 00 00       	mov    edx,0x58
    5869:	e8 32 44 00 00       	call   9ca0 <_asn1_hierarchical_name>
    586e:	48 83 c4 08          	add    rsp,0x8
    5872:	48 89 df             	mov    rdi,rbx
    5875:	48 8d 15 0a a0 00 00 	lea    rdx,[rip+0xa00a]        # f886 <yytranslate+0x146>
    587c:	5b                   	pop    rbx
    587d:	5d                   	pop    rbp
    587e:	be 80 00 00 00       	mov    esi,0x80
    5883:	e9 c8 57 00 00       	jmp    b050 <_asn1_str_cat>
    5888:	0f 1f 84 00 00 00 00 	nop    DWORD PTR [rax+rax*1+0x0]
    588f:	00 
    5890:	f3 c3                	repz ret 
    5892:	0f 1f 40 00          	nop    DWORD PTR [rax+0x0]
    5896:	66 2e 0f 1f 84 00 00 	nop    WORD PTR cs:[rax+rax*1+0x0]
    589d:	00 00 00 

00000000000058a0 <_asn1_tag_der.part.0>:
    58a0:	48 83 ec 18          	sub    rsp,0x18
    58a4:	83 cf 1f             	or     edi,0x1f
    58a7:	64 48 8b 04 25 28 00 	mov    rax,QWORD PTR fs:0x28
    58ae:	00 00 
    58b0:	48 89 44 24 08       	mov    QWORD PTR [rsp+0x8],rax
    58b5:	31 c0                	xor    eax,eax
    58b7:	85 f6                	test   esi,esi
    58b9:	40 88 3a             	mov    BYTE PTR [rdx],dil
    58bc:	0f 84 9e 00 00 00    	je     5960 <_asn1_tag_der.part.0+0xc0>
    58c2:	89 f0                	mov    eax,esi
    58c4:	bf 01 00 00 00       	mov    edi,0x1
    58c9:	c1 ee 07             	shr    esi,0x7
    58cc:	83 e0 7f             	and    eax,0x7f
    58cf:	88 04 24             	mov    BYTE PTR [rsp],al
    58d2:	48 89 e0             	mov    rax,rsp
    58d5:	85 f6                	test   esi,esi
    58d7:	74 77                	je     5950 <_asn1_tag_der.part.0+0xb0>
    58d9:	41 89 f0             	mov    r8d,esi
    58dc:	83 c7 01             	add    edi,0x1
    58df:	c1 ee 07             	shr    esi,0x7
    58e2:	41 83 e0 7f          	and    r8d,0x7f
    58e6:	48 83 c0 01          	add    rax,0x1
    58ea:	44 88 00             	mov    BYTE PTR [rax],r8b
    58ed:	83 ff 04             	cmp    edi,0x4
    58f0:	75 e3                	jne    58d5 <_asn1_tag_der.part.0+0x35>
    58f2:	c7 01 05 00 00 00    	mov    DWORD PTR [rcx],0x5
    58f8:	b8 05 00 00 00       	mov    eax,0x5
    58fd:	be 03 00 00 00       	mov    esi,0x3
    5902:	48 63 fe             	movsxd rdi,esi
    5905:	83 e8 01             	sub    eax,0x1
    5908:	0f b6 3c 3c          	movzx  edi,BYTE PTR [rsp+rdi*1]
    590c:	29 f0                	sub    eax,esi
    590e:	83 ee 01             	sub    esi,0x1
    5911:	48 98                	cdqe   
    5913:	83 c7 80             	add    edi,0xffffff80
    5916:	83 fe ff             	cmp    esi,0xffffffff
    5919:	40 88 3c 02          	mov    BYTE PTR [rdx+rax*1],dil
    591d:	74 09                	je     5928 <_asn1_tag_der.part.0+0x88>
    591f:	8b 01                	mov    eax,DWORD PTR [rcx]
    5921:	eb df                	jmp    5902 <_asn1_tag_der.part.0+0x62>
    5923:	0f 1f 44 00 00       	nop    DWORD PTR [rax+rax*1+0x0]
    5928:	48 63 01             	movsxd rax,DWORD PTR [rcx]
    592b:	48 83 e8 01          	sub    rax,0x1
    592f:	80 04 02 80          	add    BYTE PTR [rdx+rax*1],0x80
    5933:	48 8b 44 24 08       	mov    rax,QWORD PTR [rsp+0x8]
    5938:	64 48 33 04 25 28 00 	xor    rax,QWORD PTR fs:0x28
    593f:	00 00 
    5941:	75 27                	jne    596a <_asn1_tag_der.part.0+0xca>
    5943:	48 83 c4 18          	add    rsp,0x18
    5947:	c3                   	ret    
    5948:	0f 1f 84 00 00 00 00 	nop    DWORD PTR [rax+rax*1+0x0]
    594f:	00 
    5950:	8d 47 01             	lea    eax,[rdi+0x1]
    5953:	8d 77 ff             	lea    esi,[rdi-0x1]
    5956:	89 01                	mov    DWORD PTR [rcx],eax
    5958:	eb a8                	jmp    5902 <_asn1_tag_der.part.0+0x62>
    595a:	66 0f 1f 44 00 00    	nop    WORD PTR [rax+rax*1+0x0]
    5960:	c7 01 01 00 00 00    	mov    DWORD PTR [rcx],0x1
    5966:	31 c0                	xor    eax,eax
    5968:	eb c5                	jmp    592f <_asn1_tag_der.part.0+0x8f>
    596a:	e8 61 d2 ff ff       	call   2bd0 <__stack_chk_fail@plt>
    596f:	90                   	nop

0000000000005970 <asn1_length_der>:
    5970:	48 83 ec 28          	sub    rsp,0x28
    5974:	64 48 8b 04 25 28 00 	mov    rax,QWORD PTR fs:0x28
    597b:	00 00 
    597d:	48 89 44 24 18       	mov    QWORD PTR [rsp+0x18],rax
    5982:	31 c0                	xor    eax,eax
    5984:	48 83 ff 7f          	cmp    rdi,0x7f
    5988:	48 89 e1             	mov    rcx,rsp
    598b:	77 26                	ja     59b3 <asn1_length_der+0x43>
    598d:	48 85 f6             	test   rsi,rsi
    5990:	74 03                	je     5995 <asn1_length_der+0x25>
    5992:	40 88 3e             	mov    BYTE PTR [rsi],dil
    5995:	c7 02 01 00 00 00    	mov    DWORD PTR [rdx],0x1
    599b:	48 8b 44 24 18       	mov    rax,QWORD PTR [rsp+0x18]
    59a0:	64 48 33 04 25 28 00 	xor    rax,QWORD PTR fs:0x28
    59a7:	00 00 
    59a9:	75 54                	jne    59ff <asn1_length_der+0x8f>
    59ab:	48 83 c4 28          	add    rsp,0x28
    59af:	c3                   	ret    
    59b0:	44 89 c8             	mov    eax,r9d
    59b3:	40 88 39             	mov    BYTE PTR [rcx],dil
    59b6:	41 89 f8             	mov    r8d,edi
    59b9:	48 c1 ef 08          	shr    rdi,0x8
    59bd:	48 83 c1 01          	add    rcx,0x1
    59c1:	48 85 ff             	test   rdi,rdi
    59c4:	44 8d 48 01          	lea    r9d,[rax+0x1]
    59c8:	75 e6                	jne    59b0 <asn1_length_der+0x40>
    59ca:	8d 48 02             	lea    ecx,[rax+0x2]
    59cd:	48 85 f6             	test   rsi,rsi
    59d0:	89 0a                	mov    DWORD PTR [rdx],ecx
    59d2:	74 c7                	je     599b <asn1_length_der+0x2b>
    59d4:	41 83 c1 80          	add    r9d,0xffffff80
    59d8:	44 88 0e             	mov    BYTE PTR [rsi],r9b
    59db:	eb 0b                	jmp    59e8 <asn1_length_der+0x78>
    59dd:	0f 1f 00             	nop    DWORD PTR [rax]
    59e0:	48 63 c8             	movsxd rcx,eax
    59e3:	44 0f b6 04 0c       	movzx  r8d,BYTE PTR [rsp+rcx*1]
    59e8:	89 c1                	mov    ecx,eax
    59ea:	83 e8 01             	sub    eax,0x1
    59ed:	f7 d1                	not    ecx
    59ef:	03 0a                	add    ecx,DWORD PTR [rdx]
    59f1:	83 f8 ff             	cmp    eax,0xffffffff
    59f4:	48 63 c9             	movsxd rcx,ecx
    59f7:	44 88 04 0e          	mov    BYTE PTR [rsi+rcx*1],r8b
    59fb:	75 e3                	jne    59e0 <asn1_length_der+0x70>
    59fd:	eb 9c                	jmp    599b <asn1_length_der+0x2b>
    59ff:	e8 cc d1 ff ff       	call   2bd0 <__stack_chk_fail@plt>
    5a04:	66 90                	xchg   ax,ax
    5a06:	66 2e 0f 1f 84 00 00 	nop    WORD PTR cs:[rax+rax*1+0x0]
    5a0d:	00 00 00 

0000000000005a10 <_asn1_object_id_der>:
    5a10:	41 57                	push   r15
    5a12:	41 56                	push   r14
    5a14:	41 55                	push   r13
    5a16:	41 54                	push   r12
    5a18:	49 89 f4             	mov    r12,rsi
    5a1b:	55                   	push   rbp
    5a1c:	53                   	push   rbx
    5a1d:	48 89 d5             	mov    rbp,rdx
    5a20:	48 89 fb             	mov    rbx,rdi
    5a23:	48 83 ec 28          	sub    rsp,0x28
    5a27:	64 48 8b 04 25 28 00 	mov    rax,QWORD PTR fs:0x28
    5a2e:	00 00 
    5a30:	48 89 44 24 18       	mov    QWORD PTR [rsp+0x18],rax
    5a35:	31 c0                	xor    eax,eax
    5a37:	e8 84 d1 ff ff       	call   2bc0 <strlen@plt>
    5a3c:	4d 85 e4             	test   r12,r12
    5a3f:	44 8b 6d 00          	mov    r13d,DWORD PTR [rbp+0x0]
    5a43:	49 89 c6             	mov    r14,rax
    5a46:	c7 45 00 00 00 00 00 	mov    DWORD PTR [rbp+0x0],0x0
    5a4d:	75 31                	jne    5a80 <_asn1_object_id_der+0x70>
    5a4f:	45 85 ed             	test   r13d,r13d
    5a52:	b8 07 00 00 00       	mov    eax,0x7
    5a57:	7e 27                	jle    5a80 <_asn1_object_id_der+0x70>
    5a59:	48 8b 4c 24 18       	mov    rcx,QWORD PTR [rsp+0x18]
    5a5e:	64 48 33 0c 25 28 00 	xor    rcx,QWORD PTR fs:0x28
    5a65:	00 00 
    5a67:	0f 85 87 01 00 00    	jne    5bf4 <_asn1_object_id_der+0x1e4>
    5a6d:	48 83 c4 28          	add    rsp,0x28
    5a71:	5b                   	pop    rbx
    5a72:	5d                   	pop    rbp
    5a73:	41 5c                	pop    r12
    5a75:	41 5d                	pop    r13
    5a77:	41 5e                	pop    r14
    5a79:	41 5f                	pop    r15
    5a7b:	c3                   	ret    
    5a7c:	0f 1f 40 00          	nop    DWORD PTR [rax+0x0]
    5a80:	41 8d 7e 02          	lea    edi,[r14+0x2]
    5a84:	48 63 ff             	movsxd rdi,edi
    5a87:	e8 84 d2 ff ff       	call   2d10 <malloc@plt>
    5a8c:	48 89 c1             	mov    rcx,rax
    5a8f:	48 89 44 24 08       	mov    QWORD PTR [rsp+0x8],rax
    5a94:	b8 0d 00 00 00       	mov    eax,0xd
    5a99:	48 85 c9             	test   rcx,rcx
    5a9c:	74 bb                	je     5a59 <_asn1_object_id_der+0x49>
    5a9e:	4d 63 f6             	movsxd r14,r14d
    5aa1:	48 89 de             	mov    rsi,rbx
    5aa4:	48 89 cf             	mov    rdi,rcx
    5aa7:	48 89 cb             	mov    rbx,rcx
    5aaa:	4c 89 f2             	mov    rdx,r14
    5aad:	e8 3e d2 ff ff       	call   2cf0 <memcpy@plt>
    5ab2:	49 89 df             	mov    r15,rbx
    5ab5:	42 c6 04 33 2e       	mov    BYTE PTR [rbx+r14*1],0x2e
    5aba:	42 c6 44 33 01 00    	mov    BYTE PTR [rbx+r14*1+0x1],0x0
    5ac0:	48 c7 04 24 00 00 00 	mov    QWORD PTR [rsp],0x0
    5ac7:	00 
    5ac8:	31 db                	xor    ebx,ebx
    5aca:	eb 3e                	jmp    5b0a <_asn1_object_id_der+0xfa>
    5acc:	0f 1f 40 00          	nop    DWORD PTR [rax+0x0]
    5ad0:	48 83 3c 24 02       	cmp    QWORD PTR [rsp],0x2
    5ad5:	0f 87 05 01 00 00    	ja     5be0 <_asn1_object_id_der+0x1d0>
    5adb:	48 83 3c 24 01       	cmp    QWORD PTR [rsp],0x1
    5ae0:	77 0a                	ja     5aec <_asn1_object_id_der+0xdc>
    5ae2:	48 83 f8 27          	cmp    rax,0x27
    5ae6:	0f 87 f4 00 00 00    	ja     5be0 <_asn1_object_id_der+0x1d0>
    5aec:	48 8b 0c 24          	mov    rcx,QWORD PTR [rsp]
    5af0:	4c 89 e6             	mov    rsi,r12
    5af3:	48 8d 14 89          	lea    rdx,[rcx+rcx*4]
    5af7:	48 89 e9             	mov    rcx,rbp
    5afa:	48 8d 3c d0          	lea    rdi,[rax+rdx*8]
    5afe:	44 89 ea             	mov    edx,r13d
    5b01:	e8 6a fc ff ff       	call   5770 <encode_val>
    5b06:	4d 8d 7e 01          	lea    r15,[r14+0x1]
    5b0a:	be 2e 00 00 00       	mov    esi,0x2e
    5b0f:	4c 89 ff             	mov    rdi,r15
    5b12:	e8 c9 d0 ff ff       	call   2be0 <strchr@plt>
    5b17:	48 85 c0             	test   rax,rax
    5b1a:	49 89 c6             	mov    r14,rax
    5b1d:	74 41                	je     5b60 <_asn1_object_id_der+0x150>
    5b1f:	31 f6                	xor    esi,esi
    5b21:	41 c6 06 00          	mov    BYTE PTR [r14],0x0
    5b25:	ba 0a 00 00 00       	mov    edx,0xa
    5b2a:	4c 89 ff             	mov    rdi,r15
    5b2d:	83 c3 01             	add    ebx,0x1
    5b30:	e8 7b d2 ff ff       	call   2db0 <strtoul@plt>
    5b35:	83 fb 01             	cmp    ebx,0x1
    5b38:	74 1e                	je     5b58 <_asn1_object_id_der+0x148>
    5b3a:	83 fb 02             	cmp    ebx,0x2
    5b3d:	74 91                	je     5ad0 <_asn1_object_id_der+0xc0>
    5b3f:	48 89 e9             	mov    rcx,rbp
    5b42:	44 89 ea             	mov    edx,r13d
    5b45:	4c 89 e6             	mov    rsi,r12
    5b48:	48 89 c7             	mov    rdi,rax
    5b4b:	e8 20 fc ff ff       	call   5770 <encode_val>
    5b50:	eb b4                	jmp    5b06 <_asn1_object_id_der+0xf6>
    5b52:	66 0f 1f 44 00 00    	nop    WORD PTR [rax+rax*1+0x0]
    5b58:	48 89 04 24          	mov    QWORD PTR [rsp],rax
    5b5c:	eb a8                	jmp    5b06 <_asn1_object_id_der+0xf6>
    5b5e:	66 90                	xchg   ax,ax
    5b60:	48 63 7d 00          	movsxd rdi,DWORD PTR [rbp+0x0]
    5b64:	48 8d 5c 24 14       	lea    rbx,[rsp+0x14]
    5b69:	31 f6                	xor    esi,esi
    5b6b:	48 89 da             	mov    rdx,rbx
    5b6e:	e8 bd d2 ff ff       	call   2e30 <asn1_length_der@plt>
    5b73:	48 63 55 00          	movsxd rdx,DWORD PTR [rbp+0x0]
    5b77:	48 63 44 24 14       	movsxd rax,DWORD PTR [rsp+0x14]
    5b7c:	8d 0c 02             	lea    ecx,[rdx+rax*1]
    5b7f:	41 39 cd             	cmp    r13d,ecx
    5b82:	7d 17                	jge    5b9b <_asn1_object_id_der+0x18b>
    5b84:	48 8b 7c 24 08       	mov    rdi,QWORD PTR [rsp+0x8]
    5b89:	89 4d 00             	mov    DWORD PTR [rbp+0x0],ecx
    5b8c:	e8 7f cf ff ff       	call   2b10 <free@plt>
    5b91:	b8 0c 00 00 00       	mov    eax,0xc
    5b96:	e9 be fe ff ff       	jmp    5a59 <_asn1_object_id_der+0x49>
    5b9b:	49 8d 3c 04          	lea    rdi,[r12+rax*1]
    5b9f:	4c 89 e6             	mov    rsi,r12
    5ba2:	e8 c9 d1 ff ff       	call   2d70 <memmove@plt>
    5ba7:	48 63 7d 00          	movsxd rdi,DWORD PTR [rbp+0x0]
    5bab:	48 89 da             	mov    rdx,rbx
    5bae:	4c 89 e6             	mov    rsi,r12
    5bb1:	e8 7a d2 ff ff       	call   2e30 <asn1_length_der@plt>
    5bb6:	8b 5c 24 14          	mov    ebx,DWORD PTR [rsp+0x14]
    5bba:	03 5d 00             	add    ebx,DWORD PTR [rbp+0x0]
    5bbd:	48 8b 7c 24 08       	mov    rdi,QWORD PTR [rsp+0x8]
    5bc2:	89 5d 00             	mov    DWORD PTR [rbp+0x0],ebx
    5bc5:	e8 46 cf ff ff       	call   2b10 <free@plt>
    5bca:	41 39 dd             	cmp    r13d,ebx
    5bcd:	ba 0c 00 00 00       	mov    edx,0xc
    5bd2:	b8 00 00 00 00       	mov    eax,0x0
    5bd7:	0f 4c c2             	cmovl  eax,edx
    5bda:	e9 7a fe ff ff       	jmp    5a59 <_asn1_object_id_der+0x49>
    5bdf:	90                   	nop
    5be0:	48 8b 7c 24 08       	mov    rdi,QWORD PTR [rsp+0x8]
    5be5:	e8 26 cf ff ff       	call   2b10 <free@plt>
    5bea:	b8 07 00 00 00       	mov    eax,0x7
    5bef:	e9 65 fe ff ff       	jmp    5a59 <_asn1_object_id_der+0x49>
    5bf4:	e8 d7 cf ff ff       	call   2bd0 <__stack_chk_fail@plt>
    5bf9:	0f 1f 80 00 00 00 00 	nop    DWORD PTR [rax+0x0]

0000000000005c00 <asn1_octet_der>:
    5c00:	41 56                	push   r14
    5c02:	41 55                	push   r13
    5c04:	41 54                	push   r12
    5c06:	55                   	push   rbp
    5c07:	53                   	push   rbx
    5c08:	48 83 ec 20          	sub    rsp,0x20
    5c0c:	64 48 8b 04 25 28 00 	mov    rax,QWORD PTR fs:0x28
    5c13:	00 00 
    5c15:	48 89 44 24 18       	mov    QWORD PTR [rsp+0x18],rax
    5c1a:	31 c0                	xor    eax,eax
    5c1c:	48 85 d2             	test   rdx,rdx
    5c1f:	74 0b                	je     5c2c <asn1_octet_der+0x2c>
    5c21:	89 f0                	mov    eax,esi
    5c23:	89 f5                	mov    ebp,esi
    5c25:	c1 e8 1f             	shr    eax,0x1f
    5c28:	84 c0                	test   al,al
    5c2a:	74 24                	je     5c50 <asn1_octet_der+0x50>
    5c2c:	48 8b 44 24 18       	mov    rax,QWORD PTR [rsp+0x18]
    5c31:	64 48 33 04 25 28 00 	xor    rax,QWORD PTR fs:0x28
    5c38:	00 00 
    5c3a:	75 54                	jne    5c90 <asn1_octet_der+0x90>
    5c3c:	48 83 c4 20          	add    rsp,0x20
    5c40:	5b                   	pop    rbx
    5c41:	5d                   	pop    rbp
    5c42:	41 5c                	pop    r12
    5c44:	41 5d                	pop    r13
    5c46:	41 5e                	pop    r14
    5c48:	c3                   	ret    
    5c49:	0f 1f 80 00 00 00 00 	nop    DWORD PTR [rax+0x0]
    5c50:	48 89 d3             	mov    rbx,rdx
    5c53:	4c 63 f6             	movsxd r14,esi
    5c56:	48 8d 54 24 14       	lea    rdx,[rsp+0x14]
    5c5b:	49 89 fc             	mov    r12,rdi
    5c5e:	48 89 de             	mov    rsi,rbx
    5c61:	4c 89 f7             	mov    rdi,r14
    5c64:	48 89 4c 24 08       	mov    QWORD PTR [rsp+0x8],rcx
    5c69:	e8 c2 d1 ff ff       	call   2e30 <asn1_length_der@plt>
    5c6e:	48 63 7c 24 14       	movsxd rdi,DWORD PTR [rsp+0x14]
    5c73:	4c 89 f2             	mov    rdx,r14
    5c76:	4c 89 e6             	mov    rsi,r12
    5c79:	49 89 fd             	mov    r13,rdi
    5c7c:	48 01 df             	add    rdi,rbx
    5c7f:	e8 6c d0 ff ff       	call   2cf0 <memcpy@plt>
    5c84:	48 8b 4c 24 08       	mov    rcx,QWORD PTR [rsp+0x8]
    5c89:	44 01 ed             	add    ebp,r13d
    5c8c:	89 29                	mov    DWORD PTR [rcx],ebp
    5c8e:	eb 9c                	jmp    5c2c <asn1_octet_der+0x2c>
    5c90:	e8 3b cf ff ff       	call   2bd0 <__stack_chk_fail@plt>
    5c95:	90                   	nop
    5c96:	66 2e 0f 1f 84 00 00 	nop    WORD PTR cs:[rax+rax*1+0x0]
    5c9d:	00 00 00 

0000000000005ca0 <asn1_encode_simple_der>:
    5ca0:	41 56                	push   r14
    5ca2:	41 55                	push   r13
    5ca4:	41 54                	push   r12
    5ca6:	55                   	push   rbp
    5ca7:	53                   	push   rbx
    5ca8:	48 83 ec 50          	sub    rsp,0x50
    5cac:	64 48 8b 04 25 28 00 	mov    rax,QWORD PTR fs:0x28
    5cb3:	00 00 
    5cb5:	48 89 44 24 48       	mov    QWORD PTR [rsp+0x48],rax
    5cba:	31 c0                	xor    eax,eax
    5cbc:	85 ff                	test   edi,edi
    5cbe:	0f 84 cc 00 00 00    	je     5d90 <asn1_encode_simple_der+0xf0>
    5cc4:	48 85 f6             	test   rsi,rsi
    5cc7:	0f 84 c3 00 00 00    	je     5d90 <asn1_encode_simple_der+0xf0>
    5ccd:	3b 3d f5 d4 20 00    	cmp    edi,DWORD PTR [rip+0x20d4f5]        # 2131c8 <_asn1_tags_size>
    5cd3:	0f 87 b7 00 00 00    	ja     5d90 <asn1_encode_simple_der+0xf0>
    5cd9:	89 ff                	mov    edi,edi
    5cdb:	48 8d 05 3e cd 20 00 	lea    rax,[rip+0x20cd3e]        # 212a20 <_asn1_tags>
    5ce2:	48 c1 e7 04          	shl    rdi,0x4
    5ce6:	48 01 f8             	add    rax,rdi
    5ce9:	48 83 78 08 00       	cmp    QWORD PTR [rax+0x8],0x0
    5cee:	0f 84 9c 00 00 00    	je     5d90 <asn1_encode_simple_der+0xf0>
    5cf4:	8b 70 04             	mov    esi,DWORD PTR [rax+0x4]
    5cf7:	85 f6                	test   esi,esi
    5cf9:	0f 85 91 00 00 00    	jne    5d90 <asn1_encode_simple_der+0xf0>
    5cff:	8b 30                	mov    esi,DWORD PTR [rax]
    5d01:	89 d3                	mov    ebx,edx
    5d03:	48 89 cd             	mov    rbp,rcx
    5d06:	83 fe 1e             	cmp    esi,0x1e
    5d09:	0f 87 a9 00 00 00    	ja     5db8 <asn1_encode_simple_der+0x118>
    5d0f:	40 88 74 24 20       	mov    BYTE PTR [rsp+0x20],sil
    5d14:	c7 44 24 18 01 00 00 	mov    DWORD PTR [rsp+0x18],0x1
    5d1b:	00 
    5d1c:	4c 8d 64 24 30       	lea    r12,[rsp+0x30]
    5d21:	48 8d 54 24 1c       	lea    rdx,[rsp+0x1c]
    5d26:	89 df                	mov    edi,ebx
    5d28:	4c 89 44 24 08       	mov    QWORD PTR [rsp+0x8],r8
    5d2d:	4c 89 e6             	mov    rsi,r12
    5d30:	e8 fb d0 ff ff       	call   2e30 <asn1_length_der@plt>
    5d35:	8b 54 24 18          	mov    edx,DWORD PTR [rsp+0x18]
    5d39:	85 d2                	test   edx,edx
    5d3b:	7e 53                	jle    5d90 <asn1_encode_simple_der+0xf0>
    5d3d:	44 8b 6c 24 1c       	mov    r13d,DWORD PTR [rsp+0x1c]
    5d42:	45 85 ed             	test   r13d,r13d
    5d45:	7e 49                	jle    5d90 <asn1_encode_simple_der+0xf0>
    5d47:	4c 8b 44 24 08       	mov    r8,QWORD PTR [rsp+0x8]
    5d4c:	46 8d 34 2a          	lea    r14d,[rdx+r13*1]
    5d50:	b8 0c 00 00 00       	mov    eax,0xc
    5d55:	45 3b 30             	cmp    r14d,DWORD PTR [r8]
    5d58:	77 3b                	ja     5d95 <asn1_encode_simple_der+0xf5>
    5d5a:	48 63 da             	movsxd rbx,edx
    5d5d:	48 8d 74 24 20       	lea    rsi,[rsp+0x20]
    5d62:	48 89 ef             	mov    rdi,rbp
    5d65:	48 89 da             	mov    rdx,rbx
    5d68:	e8 83 cf ff ff       	call   2cf0 <memcpy@plt>
    5d6d:	48 8d 7c 1d 00       	lea    rdi,[rbp+rbx*1+0x0]
    5d72:	49 63 d5             	movsxd rdx,r13d
    5d75:	4c 89 e6             	mov    rsi,r12
    5d78:	e8 73 cf ff ff       	call   2cf0 <memcpy@plt>
    5d7d:	4c 8b 44 24 08       	mov    r8,QWORD PTR [rsp+0x8]
    5d82:	31 c0                	xor    eax,eax
    5d84:	45 89 30             	mov    DWORD PTR [r8],r14d
    5d87:	eb 0c                	jmp    5d95 <asn1_encode_simple_der+0xf5>
    5d89:	0f 1f 80 00 00 00 00 	nop    DWORD PTR [rax+0x0]
    5d90:	b8 07 00 00 00       	mov    eax,0x7
    5d95:	48 8b 4c 24 48       	mov    rcx,QWORD PTR [rsp+0x48]
    5d9a:	64 48 33 0c 25 28 00 	xor    rcx,QWORD PTR fs:0x28
    5da1:	00 00 
    5da3:	75 33                	jne    5dd8 <asn1_encode_simple_der+0x138>
    5da5:	48 83 c4 50          	add    rsp,0x50
    5da9:	5b                   	pop    rbx
    5daa:	5d                   	pop    rbp
    5dab:	41 5c                	pop    r12
    5dad:	41 5d                	pop    r13
    5daf:	41 5e                	pop    r14
    5db1:	c3                   	ret    
    5db2:	66 0f 1f 44 00 00    	nop    WORD PTR [rax+rax*1+0x0]
    5db8:	48 8d 4c 24 18       	lea    rcx,[rsp+0x18]
    5dbd:	48 8d 54 24 20       	lea    rdx,[rsp+0x20]
    5dc2:	31 ff                	xor    edi,edi
    5dc4:	4c 89 44 24 08       	mov    QWORD PTR [rsp+0x8],r8
    5dc9:	e8 d2 fa ff ff       	call   58a0 <_asn1_tag_der.part.0>
    5dce:	4c 8b 44 24 08       	mov    r8,QWORD PTR [rsp+0x8]
    5dd3:	e9 44 ff ff ff       	jmp    5d1c <asn1_encode_simple_der+0x7c>
    5dd8:	e8 f3 cd ff ff       	call   2bd0 <__stack_chk_fail@plt>
    5ddd:	0f 1f 00             	nop    DWORD PTR [rax]

0000000000005de0 <asn1_object_id_der>:
    5de0:	53                   	push   rbx
    5de1:	48 89 d3             	mov    rbx,rdx
    5de4:	48 83 ec 10          	sub    rsp,0x10
    5de8:	64 48 8b 04 25 28 00 	mov    rax,QWORD PTR fs:0x28
    5def:	00 00 
    5df1:	48 89 44 24 08       	mov    QWORD PTR [rsp+0x8],rax
    5df6:	31 c0                	xor    eax,eax
    5df8:	8b 02                	mov    eax,DWORD PTR [rdx]
    5dfa:	c7 02 00 00 00 00    	mov    DWORD PTR [rdx],0x0
    5e00:	83 f8 01             	cmp    eax,0x1
    5e03:	7e 03                	jle    5e08 <asn1_object_id_der+0x28>
    5e05:	c6 06 06             	mov    BYTE PTR [rsi],0x6
    5e08:	48 8d 54 24 04       	lea    rdx,[rsp+0x4]
    5e0d:	83 e8 01             	sub    eax,0x1
    5e10:	48 83 c6 01          	add    rsi,0x1
    5e14:	89 44 24 04          	mov    DWORD PTR [rsp+0x4],eax
    5e18:	e8 f3 fb ff ff       	call   5a10 <_asn1_object_id_der>
    5e1d:	83 f8 0c             	cmp    eax,0xc
    5e20:	74 1e                	je     5e40 <asn1_object_id_der+0x60>
    5e22:	85 c0                	test   eax,eax
    5e24:	74 1a                	je     5e40 <asn1_object_id_der+0x60>
    5e26:	48 8b 4c 24 08       	mov    rcx,QWORD PTR [rsp+0x8]
    5e2b:	64 48 33 0c 25 28 00 	xor    rcx,QWORD PTR fs:0x28
    5e32:	00 00 
    5e34:	75 15                	jne    5e4b <asn1_object_id_der+0x6b>
    5e36:	48 83 c4 10          	add    rsp,0x10
    5e3a:	5b                   	pop    rbx
    5e3b:	c3                   	ret    
    5e3c:	0f 1f 40 00          	nop    DWORD PTR [rax+0x0]
    5e40:	8b 4c 24 04          	mov    ecx,DWORD PTR [rsp+0x4]
    5e44:	8d 51 01             	lea    edx,[rcx+0x1]
    5e47:	89 13                	mov    DWORD PTR [rbx],edx
    5e49:	eb db                	jmp    5e26 <asn1_object_id_der+0x46>
    5e4b:	e8 80 cd ff ff       	call   2bd0 <__stack_chk_fail@plt>

0000000000005e50 <asn1_bit_der>:
    5e50:	41 57                	push   r15
    5e52:	41 56                	push   r14
    5e54:	41 55                	push   r13
    5e56:	41 54                	push   r12
    5e58:	55                   	push   rbp
    5e59:	53                   	push   rbx
    5e5a:	48 83 ec 28          	sub    rsp,0x28
    5e5e:	64 48 8b 04 25 28 00 	mov    rax,QWORD PTR fs:0x28
    5e65:	00 00 
    5e67:	48 89 44 24 18       	mov    QWORD PTR [rsp+0x18],rax
    5e6c:	31 c0                	xor    eax,eax
    5e6e:	48 85 d2             	test   rdx,rdx
    5e71:	0f 84 87 00 00 00    	je     5efe <asn1_bit_der+0xae>
    5e77:	41 89 f5             	mov    r13d,esi
    5e7a:	b8 08 00 00 00       	mov    eax,0x8
    5e7f:	83 e6 07             	and    esi,0x7
    5e82:	29 f0                	sub    eax,esi
    5e84:	41 c1 fd 03          	sar    r13d,0x3
    5e88:	49 89 ff             	mov    r15,rdi
    5e8b:	83 f8 08             	cmp    eax,0x8
    5e8e:	48 89 d5             	mov    rbp,rdx
    5e91:	49 89 cc             	mov    r12,rcx
    5e94:	0f 84 86 00 00 00    	je     5f20 <asn1_bit_der+0xd0>
    5e9a:	48 8d 15 4f 9c 00 00 	lea    rdx,[rip+0x9c4f]        # faf0 <bit_mask>
    5ea1:	89 c1                	mov    ecx,eax
    5ea3:	48 98                	cdqe   
    5ea5:	41 83 c5 01          	add    r13d,0x1
    5ea9:	44 0f b6 34 02       	movzx  r14d,BYTE PTR [rdx+rax*1]
    5eae:	41 8d 7d 01          	lea    edi,[r13+0x1]
    5eb2:	48 8d 54 24 14       	lea    rdx,[rsp+0x14]
    5eb7:	48 89 ee             	mov    rsi,rbp
    5eba:	88 4c 24 0f          	mov    BYTE PTR [rsp+0xf],cl
    5ebe:	48 63 ff             	movsxd rdi,edi
    5ec1:	e8 6a cf ff ff       	call   2e30 <asn1_length_der@plt>
    5ec6:	48 63 44 24 14       	movsxd rax,DWORD PTR [rsp+0x14]
    5ecb:	0f b6 4c 24 0f       	movzx  ecx,BYTE PTR [rsp+0xf]
    5ed0:	4d 85 ff             	test   r15,r15
    5ed3:	48 89 c3             	mov    rbx,rax
    5ed6:	88 4c 05 00          	mov    BYTE PTR [rbp+rax*1+0x0],cl
    5eda:	74 10                	je     5eec <asn1_bit_der+0x9c>
    5edc:	48 8d 7c 05 01       	lea    rdi,[rbp+rax*1+0x1]
    5ee1:	49 63 d5             	movsxd rdx,r13d
    5ee4:	4c 89 fe             	mov    rsi,r15
    5ee7:	e8 04 ce ff ff       	call   2cf0 <memcpy@plt>
    5eec:	44 01 eb             	add    ebx,r13d
    5eef:	48 63 c3             	movsxd rax,ebx
    5ef2:	83 c3 01             	add    ebx,0x1
    5ef5:	44 20 74 05 00       	and    BYTE PTR [rbp+rax*1+0x0],r14b
    5efa:	41 89 1c 24          	mov    DWORD PTR [r12],ebx
    5efe:	48 8b 44 24 18       	mov    rax,QWORD PTR [rsp+0x18]
    5f03:	64 48 33 04 25 28 00 	xor    rax,QWORD PTR fs:0x28
    5f0a:	00 00 
    5f0c:	75 1c                	jne    5f2a <asn1_bit_der+0xda>
    5f0e:	48 83 c4 28          	add    rsp,0x28
    5f12:	5b                   	pop    rbx
    5f13:	5d                   	pop    rbp
    5f14:	41 5c                	pop    r12
    5f16:	41 5d                	pop    r13
    5f18:	41 5e                	pop    r14
    5f1a:	41 5f                	pop    r15
    5f1c:	c3                   	ret    
    5f1d:	0f 1f 00             	nop    DWORD PTR [rax]
    5f20:	41 be ff ff ff ff    	mov    r14d,0xffffffff
    5f26:	31 c9                	xor    ecx,ecx
    5f28:	eb 84                	jmp    5eae <asn1_bit_der+0x5e>
    5f2a:	e8 a1 cc ff ff       	call   2bd0 <__stack_chk_fail@plt>
    5f2f:	90                   	nop

0000000000005f30 <asn1_der_coding>:
    5f30:	41 57                	push   r15
    5f32:	41 56                	push   r14
    5f34:	41 55                	push   r13
    5f36:	41 54                	push   r12
    5f38:	55                   	push   rbp
    5f39:	53                   	push   rbx
    5f3a:	48 81 ec 08 01 00 00 	sub    rsp,0x108
    5f41:	48 89 4c 24 18       	mov    QWORD PTR [rsp+0x18],rcx
    5f46:	48 89 14 24          	mov    QWORD PTR [rsp],rdx
    5f4a:	64 48 8b 0c 25 28 00 	mov    rcx,QWORD PTR fs:0x28
    5f51:	00 00 
    5f53:	48 89 8c 24 f8 00 00 	mov    QWORD PTR [rsp+0xf8],rcx
    5f5a:	00 
    5f5b:	31 c9                	xor    ecx,ecx
    5f5d:	4d 85 c0             	test   r8,r8
    5f60:	4c 89 44 24 38       	mov    QWORD PTR [rsp+0x38],r8
    5f65:	74 04                	je     5f6b <asn1_der_coding+0x3b>
    5f67:	41 c6 00 00          	mov    BYTE PTR [r8],0x0
    5f6b:	e8 c0 cb ff ff       	call   2b30 <asn1_find_node@plt>
    5f70:	48 85 c0             	test   rax,rax
    5f73:	48 89 84 24 90 00 00 	mov    QWORD PTR [rsp+0x90],rax
    5f7a:	00 
    5f7b:	0f 84 4f 02 00 00    	je     61d0 <asn1_der_coding+0x2a0>
    5f81:	48 89 c7             	mov    rdi,rax
    5f84:	e8 f7 6c 00 00       	call   cc80 <_asn1_copy_structure3>
    5f89:	48 85 c0             	test   rax,rax
    5f8c:	48 89 c5             	mov    rbp,rax
    5f8f:	48 89 84 24 90 00 00 	mov    QWORD PTR [rsp+0x90],rax
    5f96:	00 
    5f97:	0f 84 33 02 00 00    	je     61d0 <asn1_der_coding+0x2a0>
    5f9d:	48 8b 44 24 18       	mov    rax,QWORD PTR [rsp+0x18]
    5fa2:	48 83 3c 24 00       	cmp    QWORD PTR [rsp],0x0
    5fa7:	44 8b 38             	mov    r15d,DWORD PTR [rax]
    5faa:	0f 94 44 24 6b       	sete   BYTE PTR [rsp+0x6b]
    5faf:	0f b6 74 24 6b       	movzx  esi,BYTE PTR [rsp+0x6b]
    5fb4:	45 85 ff             	test   r15d,r15d
    5fb7:	7e 0e                	jle    5fc7 <asn1_der_coding+0x97>
    5fb9:	40 84 f6             	test   sil,sil
    5fbc:	b8 07 00 00 00       	mov    eax,0x7
    5fc1:	0f 85 0e 02 00 00    	jne    61d5 <asn1_der_coding+0x2a5>
    5fc7:	48 8d b4 24 98 00 00 	lea    rsi,[rsp+0x98]
    5fce:	00 
    5fcf:	8b 4d 48             	mov    ecx,DWORD PTR [rbp+0x48]
    5fd2:	45 31 f6             	xor    r14d,r14d
    5fd5:	b8 03 00 00 00       	mov    eax,0x3
    5fda:	44 89 f3             	mov    ebx,r14d
    5fdd:	48 89 74 24 40       	mov    QWORD PTR [rsp+0x40],rsi
    5fe2:	48 8d b4 24 8c 00 00 	lea    rsi,[rsp+0x8c]
    5fe9:	00 
    5fea:	48 89 74 24 48       	mov    QWORD PTR [rsp+0x48],rsi
    5fef:	48 8d 74 24 7f       	lea    rsi,[rsp+0x7f]
    5ff4:	48 89 74 24 50       	mov    QWORD PTR [rsp+0x50],rsi
    5ff9:	48 8d b4 24 88 00 00 	lea    rsi,[rsp+0x88]
    6000:	00 
    6001:	48 89 74 24 58       	mov    QWORD PTR [rsp+0x58],rsi
    6006:	66 2e 0f 1f 84 00 00 	nop    WORD PTR cs:[rax+rax*1+0x0]
    600d:	00 00 00 
    6010:	83 f8 01             	cmp    eax,0x1
    6013:	0f 84 f7 01 00 00    	je     6210 <asn1_der_coding+0x2e0>
    6019:	44 89 7c 24 08       	mov    DWORD PTR [rsp+0x8],r15d
    601e:	49 89 ef             	mov    r15,rbp
    6021:	f6 c5 20             	test   ch,0x20
    6024:	41 89 9f 8c 00 00 00 	mov    DWORD PTR [r15+0x8c],ebx
    602b:	0f 84 e7 07 00 00    	je     6818 <asn1_der_coding+0x8e8>
    6031:	49 8b 6f 60          	mov    rbp,QWORD PTR [r15+0x60]
    6035:	41 89 de             	mov    r14d,ebx
    6038:	44 8b 6c 24 08       	mov    r13d,DWORD PTR [rsp+0x8]
    603d:	48 85 ed             	test   rbp,rbp
    6040:	0f 84 da 07 00 00    	je     6820 <asn1_der_coding+0x8f0>
    6046:	48 8d 84 24 b0 00 00 	lea    rax,[rsp+0xb0]
    604d:	00 
    604e:	c6 44 24 10 00       	mov    BYTE PTR [rsp+0x10],0x0
    6053:	45 31 e4             	xor    r12d,r12d
    6056:	31 d2                	xor    edx,edx
    6058:	89 5c 24 30          	mov    DWORD PTR [rsp+0x30],ebx
    605c:	48 89 44 24 20       	mov    QWORD PTR [rsp+0x20],rax
    6061:	48 8d 84 24 a0 00 00 	lea    rax,[rsp+0xa0]
    6068:	00 
    6069:	48 89 44 24 28       	mov    QWORD PTR [rsp+0x28],rax
    606e:	eb 0d                	jmp    607d <asn1_der_coding+0x14d>
    6070:	48 8b 6d 68          	mov    rbp,QWORD PTR [rbp+0x68]
    6074:	48 85 ed             	test   rbp,rbp
    6077:	0f 84 c3 00 00 00    	je     6140 <asn1_der_coding+0x210>
    607d:	8b 45 48             	mov    eax,DWORD PTR [rbp+0x48]
    6080:	3c 08                	cmp    al,0x8
    6082:	75 ec                	jne    6070 <asn1_der_coding+0x140>
    6084:	f6 c4 04             	test   ah,0x4
    6087:	bb 40 00 00 00       	mov    ebx,0x40
    608c:	75 1a                	jne    60a8 <asn1_der_coding+0x178>
    608e:	31 db                	xor    ebx,ebx
    6090:	f6 c4 01             	test   ah,0x1
    6093:	75 13                	jne    60a8 <asn1_der_coding+0x178>
    6095:	89 c1                	mov    ecx,eax
    6097:	81 e1 00 02 00 00    	and    ecx,0x200
    609d:	83 f9 01             	cmp    ecx,0x1
    60a0:	19 db                	sbb    ebx,ebx
    60a2:	83 e3 c0             	and    ebx,0xffffffc0
    60a5:	83 eb 40             	sub    ebx,0x40
    60a8:	f6 c4 08             	test   ah,0x8
    60ab:	0f 84 2f 06 00 00    	je     66e0 <asn1_der_coding+0x7b0>
    60b1:	85 d2                	test   edx,edx
    60b3:	0f 84 a7 08 00 00    	je     6960 <asn1_der_coding+0xa30>
    60b9:	41 83 fc 1e          	cmp    r12d,0x1e
    60bd:	0f 87 1d 09 00 00    	ja     69e0 <asn1_der_coding+0xab0>
    60c3:	0f b6 54 24 10       	movzx  edx,BYTE PTR [rsp+0x10]
    60c8:	44 89 e0             	mov    eax,r12d
    60cb:	c7 84 24 98 00 00 00 	mov    DWORD PTR [rsp+0x98],0x1
    60d2:	01 00 00 00 
    60d6:	83 e0 1f             	and    eax,0x1f
    60d9:	bb 01 00 00 00       	mov    ebx,0x1
    60de:	83 e2 e0             	and    edx,0xffffffe0
    60e1:	01 d0                	add    eax,edx
    60e3:	88 84 24 a0 00 00 00 	mov    BYTE PTR [rsp+0xa0],al
    60ea:	41 29 dd             	sub    r13d,ebx
    60ed:	78 1c                	js     610b <asn1_der_coding+0x1db>
    60ef:	48 8b 04 24          	mov    rax,QWORD PTR [rsp]
    60f3:	48 85 c0             	test   rax,rax
    60f6:	74 13                	je     610b <asn1_der_coding+0x1db>
    60f8:	48 8b 74 24 28       	mov    rsi,QWORD PTR [rsp+0x28]
    60fd:	49 63 fe             	movsxd rdi,r14d
    6100:	48 63 d3             	movsxd rdx,ebx
    6103:	48 01 c7             	add    rdi,rax
    6106:	e8 e5 cb ff ff       	call   2cf0 <memcpy@plt>
    610b:	41 01 de             	add    r14d,ebx
    610e:	48 8b 5c 24 20       	mov    rbx,QWORD PTR [rsp+0x20]
    6113:	49 63 fe             	movsxd rdi,r14d
    6116:	48 89 de             	mov    rsi,rbx
    6119:	e8 52 58 00 00       	call   b970 <_asn1_ltostr>
    611e:	48 89 ef             	mov    rdi,rbp
    6121:	48 89 de             	mov    rsi,rbx
    6124:	e8 e7 55 00 00       	call   b710 <_asn1_set_name>
    6129:	48 8b 6d 68          	mov    rbp,QWORD PTR [rbp+0x68]
    612d:	31 d2                	xor    edx,edx
    612f:	48 85 ed             	test   rbp,rbp
    6132:	0f 85 45 ff ff ff    	jne    607d <asn1_der_coding+0x14d>
    6138:	0f 1f 84 00 00 00 00 	nop    DWORD PTR [rax+rax*1+0x0]
    613f:	00 
    6140:	85 d2                	test   edx,edx
    6142:	8b 5c 24 30          	mov    ebx,DWORD PTR [rsp+0x30]
    6146:	0f 84 d3 0e 00 00    	je     701f <asn1_der_coding+0x10ef>
    614c:	41 83 fc 1e          	cmp    r12d,0x1e
    6150:	0f 87 b2 08 00 00    	ja     6a08 <asn1_der_coding+0xad8>
    6156:	0f b6 44 24 10       	movzx  eax,BYTE PTR [rsp+0x10]
    615b:	41 83 e4 1f          	and    r12d,0x1f
    615f:	c7 84 24 98 00 00 00 	mov    DWORD PTR [rsp+0x98],0x1
    6166:	01 00 00 00 
    616a:	ba 01 00 00 00       	mov    edx,0x1
    616f:	83 e0 e0             	and    eax,0xffffffe0
    6172:	41 01 c4             	add    r12d,eax
    6175:	44 88 a4 24 a0 00 00 	mov    BYTE PTR [rsp+0xa0],r12b
    617c:	00 
    617d:	48 8b 04 24          	mov    rax,QWORD PTR [rsp]
    6181:	41 29 d5             	sub    r13d,edx
    6184:	46 8d 24 32          	lea    r12d,[rdx+r14*1]
    6188:	48 85 c0             	test   rax,rax
    618b:	74 18                	je     61a5 <asn1_der_coding+0x275>
    618d:	45 85 ed             	test   r13d,r13d
    6190:	78 13                	js     61a5 <asn1_der_coding+0x275>
    6192:	49 63 fe             	movsxd rdi,r14d
    6195:	48 8d b4 24 a0 00 00 	lea    rsi,[rsp+0xa0]
    619c:	00 
    619d:	48 01 c7             	add    rdi,rax
    61a0:	e8 4b cb ff ff       	call   2cf0 <memcpy@plt>
    61a5:	41 8b 77 48          	mov    esi,DWORD PTR [r15+0x48]
    61a9:	40 0f b6 c6          	movzx  eax,sil
    61ad:	89 f1                	mov    ecx,esi
    61af:	83 e8 03             	sub    eax,0x3
    61b2:	83 f8 22             	cmp    eax,0x22
    61b5:	0f 87 7d 07 00 00    	ja     6938 <asn1_der_coding+0xa08>
    61bb:	48 8d 15 16 98 00 00 	lea    rdx,[rip+0x9816]        # f9d8 <yytranslate+0x298>
    61c2:	48 63 04 82          	movsxd rax,DWORD PTR [rdx+rax*4]
    61c6:	48 01 c2             	add    rdx,rax
    61c9:	ff e2                	jmp    rdx
    61cb:	0f 1f 44 00 00       	nop    DWORD PTR [rax+rax*1+0x0]
    61d0:	b8 02 00 00 00       	mov    eax,0x2
    61d5:	48 8b b4 24 f8 00 00 	mov    rsi,QWORD PTR [rsp+0xf8]
    61dc:	00 
    61dd:	64 48 33 34 25 28 00 	xor    rsi,QWORD PTR fs:0x28
    61e4:	00 00 
    61e6:	0f 85 99 0c 00 00    	jne    6e85 <asn1_der_coding+0xf55>
    61ec:	48 81 c4 08 01 00 00 	add    rsp,0x108
    61f3:	5b                   	pop    rbx
    61f4:	5d                   	pop    rbp
    61f5:	41 5c                	pop    r12
    61f7:	41 5d                	pop    r13
    61f9:	41 5e                	pop    r14
    61fb:	41 5f                	pop    r15
    61fd:	c3                   	ret    
    61fe:	66 90                	xchg   ax,ax
    6200:	4c 89 cf             	mov    rdi,r9
    6203:	e8 98 56 00 00       	call   b8a0 <_asn1_find_up>
    6208:	8b 48 48             	mov    ecx,DWORD PTR [rax+0x48]
    620b:	48 89 c5             	mov    rbp,rax
    620e:	66 90                	xchg   ax,ax
    6210:	0f b6 f1             	movzx  esi,cl
    6213:	8d 46 fd             	lea    eax,[rsi-0x3]
    6216:	83 f8 22             	cmp    eax,0x22
    6219:	0f 87 89 04 00 00    	ja     66a8 <asn1_der_coding+0x778>
    621f:	48 8d 15 3e 98 00 00 	lea    rdx,[rip+0x983e]        # fa64 <yytranslate+0x324>
    6226:	48 63 04 82          	movsxd rax,DWORD PTR [rdx+rax*4]
    622a:	48 01 c2             	add    rdx,rax
    622d:	ff e2                	jmp    rdx
    622f:	90                   	nop
    6230:	41 89 dc             	mov    r12d,ebx
    6233:	4c 8b 6d 50          	mov    r13,QWORD PTR [rbp+0x50]
    6237:	4d 85 ed             	test   r13,r13
    623a:	0f 84 f9 07 00 00    	je     6a39 <asn1_der_coding+0xb09>
    6240:	49 63 c4             	movsxd rax,r12d
    6243:	48 03 04 24          	add    rax,QWORD PTR [rsp]
    6247:	44 89 bc 24 80 00 00 	mov    DWORD PTR [rsp+0x80],r15d
    624e:	00 
    624f:	48 89 44 24 08       	mov    QWORD PTR [rsp+0x8],rax
    6254:	74 71                	je     62c7 <asn1_der_coding+0x397>
    6256:	45 85 ff             	test   r15d,r15d
    6259:	be 00 00 00 00       	mov    esi,0x0
    625e:	48 8b 54 24 40       	mov    rdx,QWORD PTR [rsp+0x40]
    6263:	48 0f 4f f0          	cmovg  rsi,rax
    6267:	48 63 45 58          	movsxd rax,DWORD PTR [rbp+0x58]
    626b:	48 89 c7             	mov    rdi,rax
    626e:	49 89 c6             	mov    r14,rax
    6271:	48 89 44 24 10       	mov    QWORD PTR [rsp+0x10],rax
    6276:	e8 b5 cb ff ff       	call   2e30 <asn1_length_der@plt>
    627b:	48 63 84 24 98 00 00 	movsxd rax,DWORD PTR [rsp+0x98]
    6282:	00 
    6283:	41 01 c6             	add    r14d,eax
    6286:	45 39 f7             	cmp    r15d,r14d
    6289:	0f 8d da 08 00 00    	jge    6b69 <asn1_der_coding+0xc39>
    628f:	44 89 b4 24 80 00 00 	mov    DWORD PTR [rsp+0x80],r14d
    6296:	00 
    6297:	45 29 f7             	sub    r15d,r14d
    629a:	45 01 e6             	add    r14d,r12d
    629d:	49 89 e9             	mov    r9,rbp
    62a0:	44 39 f3             	cmp    ebx,r14d
    62a3:	0f 84 07 04 00 00    	je     66b0 <asn1_der_coding+0x780>
    62a9:	41 8d 46 ff          	lea    eax,[r14-0x1]
    62ad:	45 85 ff             	test   r15d,r15d
    62b0:	89 85 90 00 00 00    	mov    DWORD PTR [rbp+0x90],eax
    62b6:	0f 8e 74 04 00 00    	jle    6730 <asn1_der_coding+0x800>
    62bc:	80 7c 24 6b 00       	cmp    BYTE PTR [rsp+0x6b],0x0
    62c1:	0f 84 69 04 00 00    	je     6730 <asn1_der_coding+0x800>
    62c7:	ba 07 00 00 00       	mov    edx,0x7
    62cc:	48 8d bc 24 90 00 00 	lea    rdi,[rsp+0x90]
    62d3:	00 
    62d4:	89 14 24             	mov    DWORD PTR [rsp],edx
    62d7:	e8 54 c9 ff ff       	call   2c30 <asn1_delete_structure@plt>
    62dc:	8b 14 24             	mov    edx,DWORD PTR [rsp]
    62df:	89 d0                	mov    eax,edx
    62e1:	e9 ef fe ff ff       	jmp    61d5 <asn1_der_coding+0x2a5>
    62e6:	66 2e 0f 1f 84 00 00 	nop    WORD PTR cs:[rax+rax*1+0x0]
    62ed:	00 00 00 
    62f0:	41 89 dc             	mov    r12d,ebx
    62f3:	41 83 ef 01          	sub    r15d,0x1
    62f7:	78 10                	js     6309 <asn1_der_coding+0x3d9>
    62f9:	48 8b 0c 24          	mov    rcx,QWORD PTR [rsp]
    62fd:	48 85 c9             	test   rcx,rcx
    6300:	74 07                	je     6309 <asn1_der_coding+0x3d9>
    6302:	49 63 c4             	movsxd rax,r12d
    6305:	c6 04 01 00          	mov    BYTE PTR [rcx+rax*1],0x0
    6309:	45 8d 74 24 01       	lea    r14d,[r12+0x1]
    630e:	49 89 e9             	mov    r9,rbp
    6311:	eb 8d                	jmp    62a0 <asn1_der_coding+0x370>
    6313:	0f 1f 44 00 00       	nop    DWORD PTR [rax+rax*1+0x0]
    6318:	41 89 dc             	mov    r12d,ebx
    631b:	48 8b 7d 50          	mov    rdi,QWORD PTR [rbp+0x50]
    631f:	48 85 ff             	test   rdi,rdi
    6322:	0f 84 11 07 00 00    	je     6a39 <asn1_der_coding+0xb09>
    6328:	8b 75 58             	mov    esi,DWORD PTR [rbp+0x58]
    632b:	48 8d 94 24 84 00 00 	lea    rdx,[rsp+0x84]
    6332:	00 
    6333:	e8 68 ca ff ff       	call   2da0 <asn1_get_length_der@plt>
    6338:	85 c0                	test   eax,eax
    633a:	49 89 c6             	mov    r14,rax
    633d:	89 84 24 80 00 00 00 	mov    DWORD PTR [rsp+0x80],eax
    6344:	0f 88 66 07 00 00    	js     6ab0 <asn1_der_coding+0xb80>
    634a:	41 29 c7             	sub    r15d,eax
    634d:	48 8b 04 24          	mov    rax,QWORD PTR [rsp]
    6351:	48 85 c0             	test   rax,rax
    6354:	0f 84 40 ff ff ff    	je     629a <asn1_der_coding+0x36a>
    635a:	45 85 ff             	test   r15d,r15d
    635d:	0f 88 37 ff ff ff    	js     629a <asn1_der_coding+0x36a>
    6363:	48 63 b4 24 84 00 00 	movsxd rsi,DWORD PTR [rsp+0x84]
    636a:	00 
    636b:	49 63 fc             	movsxd rdi,r12d
    636e:	49 63 d6             	movsxd rdx,r14d
    6371:	48 03 75 50          	add    rsi,QWORD PTR [rbp+0x50]
    6375:	48 01 c7             	add    rdi,rax
    6378:	e8 73 c9 ff ff       	call   2cf0 <memcpy@plt>
    637d:	e9 18 ff ff ff       	jmp    629a <asn1_der_coding+0x36a>
    6382:	66 0f 1f 44 00 00    	nop    WORD PTR [rax+rax*1+0x0]
    6388:	41 89 dc             	mov    r12d,ebx
    638b:	45 89 fd             	mov    r13d,r15d
    638e:	80 e5 80             	and    ch,0x80
    6391:	48 8b 7d 50          	mov    rdi,QWORD PTR [rbp+0x50]
    6395:	0f 84 95 06 00 00    	je     6a30 <asn1_der_coding+0xb00>
    639b:	48 85 ff             	test   rdi,rdi
    639e:	0f 84 04 03 00 00    	je     66a8 <asn1_der_coding+0x778>
    63a4:	49 63 f4             	movsxd rsi,r12d
    63a7:	48 03 34 24          	add    rsi,QWORD PTR [rsp]
    63ab:	48 8d 94 24 80 00 00 	lea    rdx,[rsp+0x80]
    63b2:	00 
    63b3:	44 89 ac 24 80 00 00 	mov    DWORD PTR [rsp+0x80],r13d
    63ba:	00 
    63bb:	e8 50 f6 ff ff       	call   5a10 <_asn1_object_id_der>
    63c0:	85 c0                	test   eax,eax
    63c2:	74 09                	je     63cd <asn1_der_coding+0x49d>
    63c4:	83 f8 0c             	cmp    eax,0xc
    63c7:	0f 85 b1 0a 00 00    	jne    6e7e <asn1_der_coding+0xf4e>
    63cd:	44 8b b4 24 80 00 00 	mov    r14d,DWORD PTR [rsp+0x80]
    63d4:	00 
    63d5:	45 89 ef             	mov    r15d,r13d
    63d8:	49 89 e9             	mov    r9,rbp
    63db:	45 29 f7             	sub    r15d,r14d
    63de:	45 01 e6             	add    r14d,r12d
    63e1:	e9 ba fe ff ff       	jmp    62a0 <asn1_der_coding+0x370>
    63e6:	66 2e 0f 1f 84 00 00 	nop    WORD PTR cs:[rax+rax*1+0x0]
    63ed:	00 00 00 
    63f0:	41 89 dc             	mov    r12d,ebx
    63f3:	48 8b 7d 50          	mov    rdi,QWORD PTR [rbp+0x50]
    63f7:	48 85 ff             	test   rdi,rdi
    63fa:	0f 84 39 06 00 00    	je     6a39 <asn1_der_coding+0xb09>
    6400:	8b 75 58             	mov    esi,DWORD PTR [rbp+0x58]
    6403:	48 8d 94 24 84 00 00 	lea    rdx,[rsp+0x84]
    640a:	00 
    640b:	e8 90 c9 ff ff       	call   2da0 <asn1_get_length_der@plt>
    6410:	85 c0                	test   eax,eax
    6412:	89 84 24 80 00 00 00 	mov    DWORD PTR [rsp+0x80],eax
    6419:	0f 88 91 06 00 00    	js     6ab0 <asn1_der_coding+0xb80>
    641f:	44 8b b4 24 84 00 00 	mov    r14d,DWORD PTR [rsp+0x84]
    6426:	00 
    6427:	41 01 c6             	add    r14d,eax
    642a:	48 8b 04 24          	mov    rax,QWORD PTR [rsp]
    642e:	45 29 f7             	sub    r15d,r14d
    6431:	48 85 c0             	test   rax,rax
    6434:	0f 84 60 fe ff ff    	je     629a <asn1_der_coding+0x36a>
    643a:	45 85 ff             	test   r15d,r15d
    643d:	0f 88 57 fe ff ff    	js     629a <asn1_der_coding+0x36a>
    6443:	48 8b 75 50          	mov    rsi,QWORD PTR [rbp+0x50]
    6447:	49 63 fc             	movsxd rdi,r12d
    644a:	49 63 d6             	movsxd rdx,r14d
    644d:	48 01 c7             	add    rdi,rax
    6450:	e8 9b c8 ff ff       	call   2cf0 <memcpy@plt>
    6455:	e9 40 fe ff ff       	jmp    629a <asn1_der_coding+0x36a>
    645a:	66 0f 1f 44 00 00    	nop    WORD PTR [rax+rax*1+0x0]
    6460:	41 89 dc             	mov    r12d,ebx
    6463:	45 89 fd             	mov    r13d,r15d
    6466:	80 e5 80             	and    ch,0x80
    6469:	0f 84 f1 05 00 00    	je     6a60 <asn1_der_coding+0xb30>
    646f:	48 83 7d 50 00       	cmp    QWORD PTR [rbp+0x50],0x0
    6474:	0f 84 2e 02 00 00    	je     66a8 <asn1_der_coding+0x778>
    647a:	48 8b 34 24          	mov    rsi,QWORD PTR [rsp]
    647e:	45 8d 7d fe          	lea    r15d,[r13-0x2]
    6482:	48 85 f6             	test   rsi,rsi
    6485:	0f 84 2f 06 00 00    	je     6aba <asn1_der_coding+0xb8a>
    648b:	45 85 ff             	test   r15d,r15d
    648e:	0f 88 26 06 00 00    	js     6aba <asn1_der_coding+0xb8a>
    6494:	49 63 d4             	movsxd rdx,r12d
    6497:	41 8d 44 24 01       	lea    eax,[r12+0x1]
    649c:	45 8d 74 24 02       	lea    r14d,[r12+0x2]
    64a1:	c6 04 16 01          	mov    BYTE PTR [rsi+rdx*1],0x1
    64a5:	48 8b 55 50          	mov    rdx,QWORD PTR [rbp+0x50]
    64a9:	48 98                	cdqe   
    64ab:	80 3a 46             	cmp    BYTE PTR [rdx],0x46
    64ae:	0f 84 6c 09 00 00    	je     6e20 <asn1_der_coding+0xef0>
    64b4:	48 8b 0c 24          	mov    rcx,QWORD PTR [rsp]
    64b8:	49 89 e9             	mov    r9,rbp
    64bb:	c6 04 01 ff          	mov    BYTE PTR [rcx+rax*1],0xff
    64bf:	e9 dc fd ff ff       	jmp    62a0 <asn1_der_coding+0x370>
    64c4:	0f 1f 40 00          	nop    DWORD PTR [rax+0x0]
    64c8:	41 89 dc             	mov    r12d,ebx
    64cb:	45 89 fd             	mov    r13d,r15d
    64ce:	80 e5 80             	and    ch,0x80
    64d1:	48 8b 7d 50          	mov    rdi,QWORD PTR [rbp+0x50]
    64d5:	0f 84 75 05 00 00    	je     6a50 <asn1_der_coding+0xb20>
    64db:	48 85 ff             	test   rdi,rdi
    64de:	0f 84 c4 01 00 00    	je     66a8 <asn1_der_coding+0x778>
    64e4:	8b 75 58             	mov    esi,DWORD PTR [rbp+0x58]
    64e7:	48 8d 94 24 84 00 00 	lea    rdx,[rsp+0x84]
    64ee:	00 
    64ef:	e8 ac c8 ff ff       	call   2da0 <asn1_get_length_der@plt>
    64f4:	85 c0                	test   eax,eax
    64f6:	89 84 24 80 00 00 00 	mov    DWORD PTR [rsp+0x80],eax
    64fd:	0f 88 ad 05 00 00    	js     6ab0 <asn1_der_coding+0xb80>
    6503:	44 8b b4 24 84 00 00 	mov    r14d,DWORD PTR [rsp+0x84]
    650a:	00 
    650b:	45 89 ef             	mov    r15d,r13d
    650e:	41 01 c6             	add    r14d,eax
    6511:	45 29 f7             	sub    r15d,r14d
    6514:	0f 88 80 fd ff ff    	js     629a <asn1_der_coding+0x36a>
    651a:	48 8b 04 24          	mov    rax,QWORD PTR [rsp]
    651e:	48 85 c0             	test   rax,rax
    6521:	0f 85 1c ff ff ff    	jne    6443 <asn1_der_coding+0x513>
    6527:	e9 6e fd ff ff       	jmp    629a <asn1_der_coding+0x36a>
    652c:	0f 1f 40 00          	nop    DWORD PTR [rax+0x0]
    6530:	41 89 dc             	mov    r12d,ebx
    6533:	48 63 85 88 00 00 00 	movsxd rax,DWORD PTR [rbp+0x88]
    653a:	45 89 e5             	mov    r13d,r12d
    653d:	c7 85 88 00 00 00 00 	mov    DWORD PTR [rbp+0x88],0x0
    6544:	00 00 00 
    6547:	41 29 c5             	sub    r13d,eax
    654a:	80 7d 48 0f          	cmp    BYTE PTR [rbp+0x48],0xf
    654e:	89 84 24 80 00 00 00 	mov    DWORD PTR [rsp+0x80],eax
    6555:	0f 84 30 06 00 00    	je     6b8b <asn1_der_coding+0xc5b>
    655b:	48 8d 84 24 d0 00 00 	lea    rax,[rsp+0xd0]
    6562:	00 
    6563:	48 8d 94 24 84 00 00 	lea    rdx,[rsp+0x84]
    656a:	00 
    656b:	49 63 fd             	movsxd rdi,r13d
    656e:	48 89 c6             	mov    rsi,rax
    6571:	48 89 44 24 08       	mov    QWORD PTR [rsp+0x8],rax
    6576:	e8 b5 c8 ff ff       	call   2e30 <asn1_length_der@plt>
    657b:	44 8b b4 24 84 00 00 	mov    r14d,DWORD PTR [rsp+0x84]
    6582:	00 
    6583:	48 8b 3c 24          	mov    rdi,QWORD PTR [rsp]
    6587:	45 29 f7             	sub    r15d,r14d
    658a:	48 85 ff             	test   rdi,rdi
    658d:	0f 84 07 fd ff ff    	je     629a <asn1_der_coding+0x36a>
    6593:	45 85 ff             	test   r15d,r15d
    6596:	0f 88 fe fc ff ff    	js     629a <asn1_der_coding+0x36a>
    659c:	48 63 84 24 80 00 00 	movsxd rax,DWORD PTR [rsp+0x80]
    65a3:	00 
    65a4:	49 63 ce             	movsxd rcx,r14d
    65a7:	45 89 e3             	mov    r11d,r12d
    65aa:	48 89 4c 24 10       	mov    QWORD PTR [rsp+0x10],rcx
    65af:	4c 8d 2c 07          	lea    r13,[rdi+rax*1]
    65b3:	41 29 c3             	sub    r11d,eax
    65b6:	48 01 c8             	add    rax,rcx
    65b9:	48 8d 3c 07          	lea    rdi,[rdi+rax*1]
    65bd:	49 63 d3             	movsxd rdx,r11d
    65c0:	4c 89 ee             	mov    rsi,r13
    65c3:	e8 a8 c7 ff ff       	call   2d70 <memmove@plt>
    65c8:	48 8b 4c 24 10       	mov    rcx,QWORD PTR [rsp+0x10]
    65cd:	48 8b 74 24 08       	mov    rsi,QWORD PTR [rsp+0x8]
    65d2:	4c 89 ef             	mov    rdi,r13
    65d5:	48 89 ca             	mov    rdx,rcx
    65d8:	e8 13 c7 ff ff       	call   2cf0 <memcpy@plt>
    65dd:	e9 b8 fc ff ff       	jmp    629a <asn1_der_coding+0x36a>
    65e2:	66 0f 1f 44 00 00    	nop    WORD PTR [rax+rax*1+0x0]
    65e8:	48 63 85 88 00 00 00 	movsxd rax,DWORD PTR [rbp+0x88]
    65ef:	83 fe 0e             	cmp    esi,0xe
    65f2:	c7 85 88 00 00 00 00 	mov    DWORD PTR [rbp+0x88],0x0
    65f9:	00 00 00 
    65fc:	89 84 24 80 00 00 00 	mov    DWORD PTR [rsp+0x80],eax
    6603:	0f 85 23 08 00 00    	jne    6e2c <asn1_der_coding+0xefc>
    6609:	45 85 ff             	test   r15d,r15d
    660c:	0f 88 1a 08 00 00    	js     6e2c <asn1_der_coding+0xefc>
    6612:	4c 8b 75 60          	mov    r14,QWORD PTR [rbp+0x60]
    6616:	89 d9                	mov    ecx,ebx
    6618:	29 c1                	sub    ecx,eax
    661a:	89 ce                	mov    esi,ecx
    661c:	4d 85 f6             	test   r14,r14
    661f:	0f 85 e8 06 00 00    	jne    6d0d <asn1_der_coding+0xddd>
    6625:	4c 8d ac 24 d0 00 00 	lea    r13,[rsp+0xd0]
    662c:	00 
    662d:	48 8d 94 24 84 00 00 	lea    rdx,[rsp+0x84]
    6634:	00 
    6635:	48 63 fe             	movsxd rdi,esi
    6638:	4c 89 ee             	mov    rsi,r13
    663b:	e8 f0 c7 ff ff       	call   2e30 <asn1_length_der@plt>
    6640:	44 8b b4 24 84 00 00 	mov    r14d,DWORD PTR [rsp+0x84]
    6647:	00 
    6648:	48 8b 34 24          	mov    rsi,QWORD PTR [rsp]
    664c:	45 29 f7             	sub    r15d,r14d
    664f:	48 85 f6             	test   rsi,rsi
    6652:	74 42                	je     6696 <asn1_der_coding+0x766>
    6654:	45 85 ff             	test   r15d,r15d
    6657:	78 3d                	js     6696 <asn1_der_coding+0x766>
    6659:	48 63 84 24 80 00 00 	movsxd rax,DWORD PTR [rsp+0x80]
    6660:	00 
    6661:	49 63 ce             	movsxd rcx,r14d
    6664:	89 df                	mov    edi,ebx
    6666:	48 89 4c 24 08       	mov    QWORD PTR [rsp+0x8],rcx
    666b:	4c 8d 24 06          	lea    r12,[rsi+rax*1]
    666f:	29 c7                	sub    edi,eax
    6671:	48 01 c8             	add    rax,rcx
    6674:	48 63 d7             	movsxd rdx,edi
    6677:	48 8d 3c 06          	lea    rdi,[rsi+rax*1]
    667b:	4c 89 e6             	mov    rsi,r12
    667e:	e8 ed c6 ff ff       	call   2d70 <memmove@plt>
    6683:	48 8b 4c 24 08       	mov    rcx,QWORD PTR [rsp+0x8]
    6688:	4c 89 ee             	mov    rsi,r13
    668b:	4c 89 e7             	mov    rdi,r12
    668e:	48 89 ca             	mov    rdx,rcx
    6691:	e8 5a c6 ff ff       	call   2cf0 <memcpy@plt>
    6696:	41 01 de             	add    r14d,ebx
    6699:	49 89 e9             	mov    r9,rbp
    669c:	e9 ff fb ff ff       	jmp    62a0 <asn1_der_coding+0x370>
    66a1:	0f 1f 80 00 00 00 00 	nop    DWORD PTR [rax+0x0]
    66a8:	49 89 e9             	mov    r9,rbp
    66ab:	0f 1f 44 00 00       	nop    DWORD PTR [rax+rax*1+0x0]
    66b0:	48 39 ac 24 90 00 00 	cmp    QWORD PTR [rsp+0x90],rbp
    66b7:	00 
    66b8:	0f 84 79 07 00 00    	je     6e37 <asn1_der_coding+0xf07>
    66be:	48 8b 6d 68          	mov    rbp,QWORD PTR [rbp+0x68]
    66c2:	b8 02 00 00 00       	mov    eax,0x2
    66c7:	48 85 ed             	test   rbp,rbp
    66ca:	0f 84 30 fb ff ff    	je     6200 <asn1_der_coding+0x2d0>
    66d0:	8b 4d 48             	mov    ecx,DWORD PTR [rbp+0x48]
    66d3:	e9 38 f9 ff ff       	jmp    6010 <asn1_der_coding+0xe0>
    66d8:	0f 1f 84 00 00 00 00 	nop    DWORD PTR [rax+rax*1+0x0]
    66df:	00 
    66e0:	85 d2                	test   edx,edx
    66e2:	0f 85 88 f9 ff ff    	jne    6070 <asn1_der_coding+0x140>
    66e8:	41 0f b6 4f 48       	movzx  ecx,BYTE PTR [r15+0x48]
    66ed:	83 f9 0f             	cmp    ecx,0xf
    66f0:	77 13                	ja     6705 <asn1_der_coding+0x7d5>
    66f2:	ba 20 c8 00 00       	mov    edx,0xc820
    66f7:	89 d8                	mov    eax,ebx
    66f9:	48 d3 ea             	shr    rdx,cl
    66fc:	83 c8 20             	or     eax,0x20
    66ff:	83 e2 01             	and    edx,0x1
    6702:	0f 45 d8             	cmovne ebx,eax
    6705:	48 8b 7d 50          	mov    rdi,QWORD PTR [rbp+0x50]
    6709:	ba 0a 00 00 00       	mov    edx,0xa
    670e:	31 f6                	xor    esi,esi
    6710:	e8 9b c6 ff ff       	call   2db0 <strtoul@plt>
    6715:	88 5c 24 10          	mov    BYTE PTR [rsp+0x10],bl
    6719:	49 89 c4             	mov    r12,rax
    671c:	ba 01 00 00 00       	mov    edx,0x1
    6721:	e9 4a f9 ff ff       	jmp    6070 <asn1_der_coding+0x140>
    6726:	66 2e 0f 1f 84 00 00 	nop    WORD PTR cs:[rax+rax*1+0x0]
    672d:	00 00 00 
    6730:	f6 45 49 20          	test   BYTE PTR [rbp+0x49],0x20
    6734:	0f 84 d1 00 00 00    	je     680b <asn1_der_coding+0x8db>
    673a:	48 8b 55 60          	mov    rdx,QWORD PTR [rbp+0x60]
    673e:	48 85 d2             	test   rdx,rdx
    6741:	0f 84 69 03 00 00    	je     6ab0 <asn1_der_coding+0xb80>
    6747:	49 89 d5             	mov    r13,rdx
    674a:	eb 07                	jmp    6753 <asn1_der_coding+0x823>
    674c:	0f 1f 40 00          	nop    DWORD PTR [rax+0x0]
    6750:	49 89 c5             	mov    r13,rax
    6753:	49 8b 45 68          	mov    rax,QWORD PTR [r13+0x68]
    6757:	48 85 c0             	test   rax,rax
    675a:	75 f4                	jne    6750 <asn1_der_coding+0x820>
    675c:	4c 8d a4 24 b0 00 00 	lea    r12,[rsp+0xb0]
    6763:	00 
    6764:	48 89 d0             	mov    rax,rdx
    6767:	4c 89 4c 24 10       	mov    QWORD PTR [rsp+0x10],r9
    676c:	4c 89 64 24 08       	mov    QWORD PTR [rsp+0x8],r12
    6771:	45 89 f4             	mov    r12d,r14d
    6774:	45 89 fe             	mov    r14d,r15d
    6777:	eb 14                	jmp    678d <asn1_der_coding+0x85d>
    6779:	0f 1f 80 00 00 00 00 	nop    DWORD PTR [rax+0x0]
    6780:	4d 8b 6d 70          	mov    r13,QWORD PTR [r13+0x70]
    6784:	4d 85 ed             	test   r13,r13
    6787:	74 77                	je     6800 <asn1_der_coding+0x8d0>
    6789:	48 8b 45 60          	mov    rax,QWORD PTR [rbp+0x60]
    678d:	4c 39 68 70          	cmp    QWORD PTR [rax+0x70],r13
    6791:	74 6d                	je     6800 <asn1_der_coding+0x8d0>
    6793:	41 8b 45 48          	mov    eax,DWORD PTR [r13+0x48]
    6797:	3c 08                	cmp    al,0x8
    6799:	75 e5                	jne    6780 <asn1_der_coding+0x850>
    679b:	f6 c4 08             	test   ah,0x8
    679e:	74 e0                	je     6780 <asn1_der_coding+0x850>
    67a0:	ba 0a 00 00 00       	mov    edx,0xa
    67a5:	31 f6                	xor    esi,esi
    67a7:	4c 89 ef             	mov    rdi,r13
    67aa:	e8 31 c5 ff ff       	call   2ce0 <strtol@plt>
    67af:	44 89 e3             	mov    ebx,r12d
    67b2:	31 f6                	xor    esi,esi
    67b4:	49 89 c7             	mov    r15,rax
    67b7:	4c 89 ef             	mov    rdi,r13
    67ba:	44 29 fb             	sub    ebx,r15d
    67bd:	e8 4e 4f 00 00       	call   b710 <_asn1_set_name>
    67c2:	48 8b 54 24 40       	mov    rdx,QWORD PTR [rsp+0x40]
    67c7:	48 8b 74 24 08       	mov    rsi,QWORD PTR [rsp+0x8]
    67cc:	48 63 db             	movsxd rbx,ebx
    67cf:	48 89 df             	mov    rdi,rbx
    67d2:	e8 59 c6 ff ff       	call   2e30 <asn1_length_der@plt>
    67d7:	8b 8c 24 98 00 00 00 	mov    ecx,DWORD PTR [rsp+0x98]
    67de:	44 39 f1             	cmp    ecx,r14d
    67e1:	0f 8e 31 03 00 00    	jle    6b18 <asn1_der_coding+0xbe8>
    67e7:	4d 8b 6d 70          	mov    r13,QWORD PTR [r13+0x70]
    67eb:	41 29 ce             	sub    r14d,ecx
    67ee:	41 01 cc             	add    r12d,ecx
    67f1:	4d 85 ed             	test   r13,r13
    67f4:	75 93                	jne    6789 <asn1_der_coding+0x859>
    67f6:	66 2e 0f 1f 84 00 00 	nop    WORD PTR cs:[rax+rax*1+0x0]
    67fd:	00 00 00 
    6800:	4c 8b 4c 24 10       	mov    r9,QWORD PTR [rsp+0x10]
    6805:	45 89 f7             	mov    r15d,r14d
    6808:	45 89 e6             	mov    r14d,r12d
    680b:	44 89 f3             	mov    ebx,r14d
    680e:	e9 9d fe ff ff       	jmp    66b0 <asn1_der_coding+0x780>
    6813:	0f 1f 44 00 00       	nop    DWORD PTR [rax+rax*1+0x0]
    6818:	44 8b 6c 24 08       	mov    r13d,DWORD PTR [rsp+0x8]
    681d:	41 89 de             	mov    r14d,ebx
    6820:	0f b6 c9             	movzx  ecx,cl
    6823:	83 f9 25             	cmp    ecx,0x25
    6826:	0f 86 7c 01 00 00    	jbe    69a8 <asn1_der_coding+0xa78>
    682c:	ba 06 00 00 00       	mov    edx,0x6
    6831:	e9 96 fa ff ff       	jmp    62cc <asn1_der_coding+0x39c>
    6836:	66 2e 0f 1f 84 00 00 	nop    WORD PTR cs:[rax+rax*1+0x0]
    683d:	00 00 00 
    6840:	49 8b 7f 60          	mov    rdi,QWORD PTR [r15+0x60]
    6844:	45 89 a7 88 00 00 00 	mov    DWORD PTR [r15+0x88],r12d
    684b:	8b 47 48             	mov    eax,DWORD PTR [rdi+0x48]
    684e:	25 fd 00 00 00       	and    eax,0xfd
    6853:	83 f8 08             	cmp    eax,0x8
    6856:	75 19                	jne    6871 <asn1_der_coding+0x941>
    6858:	0f 1f 84 00 00 00 00 	nop    DWORD PTR [rax+rax*1+0x0]
    685f:	00 
    6860:	48 8b 7f 68          	mov    rdi,QWORD PTR [rdi+0x68]
    6864:	8b 47 48             	mov    eax,DWORD PTR [rdi+0x48]
    6867:	25 fd 00 00 00       	and    eax,0xfd
    686c:	83 f8 08             	cmp    eax,0x8
    686f:	74 ef                	je     6860 <asn1_der_coding+0x930>
    6871:	4c 8b 7f 68          	mov    r15,QWORD PTR [rdi+0x68]
    6875:	4d 85 ff             	test   r15,r15
    6878:	0f 84 f0 05 00 00    	je     6e6e <asn1_der_coding+0xf3e>
    687e:	41 8b 4f 48          	mov    ecx,DWORD PTR [r15+0x48]
    6882:	44 89 6c 24 08       	mov    DWORD PTR [rsp+0x8],r13d
    6887:	44 89 e3             	mov    ebx,r12d
    688a:	e9 92 f7 ff ff       	jmp    6021 <asn1_der_coding+0xf1>
    688f:	90                   	nop
    6890:	49 8b 47 60          	mov    rax,QWORD PTR [r15+0x60]
    6894:	45 89 a7 88 00 00 00 	mov    DWORD PTR [r15+0x88],r12d
    689b:	48 85 c0             	test   rax,rax
    689e:	74 15                	je     68b5 <asn1_der_coding+0x985>
    68a0:	8b 48 48             	mov    ecx,DWORD PTR [rax+0x48]
    68a3:	80 f9 08             	cmp    cl,0x8
    68a6:	0f 85 5c 02 00 00    	jne    6b08 <asn1_der_coding+0xbd8>
    68ac:	48 8b 40 68          	mov    rax,QWORD PTR [rax+0x68]
    68b0:	48 85 c0             	test   rax,rax
    68b3:	75 eb                	jne    68a0 <asn1_der_coding+0x970>
    68b5:	4c 89 fd             	mov    rbp,r15
    68b8:	89 f1                	mov    ecx,esi
    68ba:	45 89 ef             	mov    r15d,r13d
    68bd:	44 89 e3             	mov    ebx,r12d
    68c0:	e9 4b f9 ff ff       	jmp    6210 <asn1_der_coding+0x2e0>
    68c5:	0f 1f 00             	nop    DWORD PTR [rax]
    68c8:	4c 89 fd             	mov    rbp,r15
    68cb:	45 89 ef             	mov    r15d,r13d
    68ce:	e9 20 fb ff ff       	jmp    63f3 <asn1_der_coding+0x4c3>
    68d3:	0f 1f 44 00 00       	nop    DWORD PTR [rax+rax*1+0x0]
    68d8:	4c 89 fd             	mov    rbp,r15
    68db:	45 89 ef             	mov    r15d,r13d
    68de:	e9 50 f9 ff ff       	jmp    6233 <asn1_der_coding+0x303>
    68e3:	0f 1f 44 00 00       	nop    DWORD PTR [rax+rax*1+0x0]
    68e8:	4c 89 fd             	mov    rbp,r15
    68eb:	45 89 ef             	mov    r15d,r13d
    68ee:	e9 00 fa ff ff       	jmp    62f3 <asn1_der_coding+0x3c3>
    68f3:	0f 1f 44 00 00       	nop    DWORD PTR [rax+rax*1+0x0]
    68f8:	4c 89 fd             	mov    rbp,r15
    68fb:	45 89 ef             	mov    r15d,r13d
    68fe:	e9 18 fa ff ff       	jmp    631b <asn1_der_coding+0x3eb>
    6903:	0f 1f 44 00 00       	nop    DWORD PTR [rax+rax*1+0x0]
    6908:	4c 89 fd             	mov    rbp,r15
    690b:	44 8b 7c 24 08       	mov    r15d,DWORD PTR [rsp+0x8]
    6910:	e9 79 fa ff ff       	jmp    638e <asn1_der_coding+0x45e>
    6915:	0f 1f 00             	nop    DWORD PTR [rax]
    6918:	4c 89 fd             	mov    rbp,r15
    691b:	44 8b 7c 24 08       	mov    r15d,DWORD PTR [rsp+0x8]
    6920:	e9 41 fb ff ff       	jmp    6466 <asn1_der_coding+0x536>
    6925:	0f 1f 00             	nop    DWORD PTR [rax]
    6928:	4c 89 fd             	mov    rbp,r15
    692b:	44 8b 7c 24 08       	mov    r15d,DWORD PTR [rsp+0x8]
    6930:	e9 99 fb ff ff       	jmp    64ce <asn1_der_coding+0x59e>
    6935:	0f 1f 00             	nop    DWORD PTR [rax]
    6938:	49 8b 47 60          	mov    rax,QWORD PTR [r15+0x60]
    693c:	4c 89 fd             	mov    rbp,r15
    693f:	48 85 c0             	test   rax,rax
    6942:	0f 84 88 01 00 00    	je     6ad0 <asn1_der_coding+0xba0>
    6948:	48 89 c5             	mov    rbp,rax
    694b:	44 89 e3             	mov    ebx,r12d
    694e:	45 89 ef             	mov    r15d,r13d
    6951:	b8 03 00 00 00       	mov    eax,0x3
    6956:	e9 75 fd ff ff       	jmp    66d0 <asn1_der_coding+0x7a0>
    695b:	0f 1f 44 00 00       	nop    DWORD PTR [rax+rax*1+0x0]
    6960:	48 8b 7d 50          	mov    rdi,QWORD PTR [rbp+0x50]
    6964:	31 f6                	xor    esi,esi
    6966:	ba 0a 00 00 00       	mov    edx,0xa
    696b:	e8 40 c4 ff ff       	call   2db0 <strtoul@plt>
    6970:	83 f8 1e             	cmp    eax,0x1e
    6973:	0f 87 67 01 00 00    	ja     6ae0 <asn1_der_coding+0xbb0>
    6979:	83 e3 e0             	and    ebx,0xffffffe0
    697c:	83 e0 1f             	and    eax,0x1f
    697f:	c7 84 24 98 00 00 00 	mov    DWORD PTR [rsp+0x98],0x1
    6986:	01 00 00 00 
    698a:	41 89 d9             	mov    r9d,ebx
    698d:	bb 01 00 00 00       	mov    ebx,0x1
    6992:	41 83 c9 20          	or     r9d,0x20
    6996:	44 01 c8             	add    eax,r9d
    6999:	88 84 24 a0 00 00 00 	mov    BYTE PTR [rsp+0xa0],al
    69a0:	e9 45 f7 ff ff       	jmp    60ea <asn1_der_coding+0x1ba>
    69a5:	0f 1f 00             	nop    DWORD PTR [rax]
    69a8:	b8 01 00 00 00       	mov    eax,0x1
    69ad:	48 ba f8 d8 30 f8 3f 	movabs rdx,0x3ff830d8f8
    69b4:	00 00 00 
    69b7:	48 d3 e0             	shl    rax,cl
    69ba:	48 85 d0             	test   rax,rdx
    69bd:	0f 85 ad 00 00 00    	jne    6a70 <asn1_der_coding+0xb40>
    69c3:	a9 00 21 04 00       	test   eax,0x42100
    69c8:	0f 84 5e fe ff ff    	je     682c <asn1_der_coding+0x8fc>
    69ce:	c7 84 24 98 00 00 00 	mov    DWORD PTR [rsp+0x98],0x0
    69d5:	00 00 00 00 
    69d9:	31 d2                	xor    edx,edx
    69db:	e9 9d f7 ff ff       	jmp    617d <asn1_der_coding+0x24d>
    69e0:	0f b6 7c 24 10       	movzx  edi,BYTE PTR [rsp+0x10]
    69e5:	48 8b 4c 24 40       	mov    rcx,QWORD PTR [rsp+0x40]
    69ea:	44 89 e6             	mov    esi,r12d
    69ed:	48 8b 54 24 28       	mov    rdx,QWORD PTR [rsp+0x28]
    69f2:	e8 a9 ee ff ff       	call   58a0 <_asn1_tag_der.part.0>
    69f7:	8b 9c 24 98 00 00 00 	mov    ebx,DWORD PTR [rsp+0x98]
    69fe:	e9 e7 f6 ff ff       	jmp    60ea <asn1_der_coding+0x1ba>
    6a03:	0f 1f 44 00 00       	nop    DWORD PTR [rax+rax*1+0x0]
    6a08:	0f b6 7c 24 10       	movzx  edi,BYTE PTR [rsp+0x10]
    6a0d:	48 8b 4c 24 40       	mov    rcx,QWORD PTR [rsp+0x40]
    6a12:	48 8d 94 24 a0 00 00 	lea    rdx,[rsp+0xa0]
    6a19:	00 
    6a1a:	44 89 e6             	mov    esi,r12d
    6a1d:	e8 7e ee ff ff       	call   58a0 <_asn1_tag_der.part.0>
    6a22:	48 63 94 24 98 00 00 	movsxd rdx,DWORD PTR [rsp+0x98]
    6a29:	00 
    6a2a:	e9 4e f7 ff ff       	jmp    617d <asn1_der_coding+0x24d>
    6a2f:	90                   	nop
    6a30:	48 85 ff             	test   rdi,rdi
    6a33:	0f 85 6b f9 ff ff    	jne    63a4 <asn1_der_coding+0x474>
    6a39:	48 8b 74 24 38       	mov    rsi,QWORD PTR [rsp+0x38]
    6a3e:	48 89 ef             	mov    rdi,rbp
    6a41:	e8 ea ed ff ff       	call   5830 <_asn1_error_description_value_not_found>
    6a46:	ba 05 00 00 00       	mov    edx,0x5
    6a4b:	e9 7c f8 ff ff       	jmp    62cc <asn1_der_coding+0x39c>
    6a50:	48 85 ff             	test   rdi,rdi
    6a53:	0f 85 8b fa ff ff    	jne    64e4 <asn1_der_coding+0x5b4>
    6a59:	eb de                	jmp    6a39 <asn1_der_coding+0xb09>
    6a5b:	0f 1f 44 00 00       	nop    DWORD PTR [rax+rax*1+0x0]
    6a60:	48 83 7d 50 00       	cmp    QWORD PTR [rbp+0x50],0x0
    6a65:	0f 85 0f fa ff ff    	jne    647a <asn1_der_coding+0x54a>
    6a6b:	eb cc                	jmp    6a39 <asn1_der_coding+0xb09>
    6a6d:	0f 1f 00             	nop    DWORD PTR [rax]
    6a70:	48 8d 05 a9 bf 20 00 	lea    rax,[rip+0x20bfa9]        # 212a20 <_asn1_tags>
    6a77:	48 c1 e1 04          	shl    rcx,0x4
    6a7b:	48 01 c8             	add    rax,rcx
    6a7e:	8b 30                	mov    esi,DWORD PTR [rax]
    6a80:	8b 40 04             	mov    eax,DWORD PTR [rax+0x4]
    6a83:	83 fe 1e             	cmp    esi,0x1e
    6a86:	0f 87 c0 03 00 00    	ja     6e4c <asn1_der_coding+0xf1c>
    6a8c:	83 e0 e0             	and    eax,0xffffffe0
    6a8f:	c7 84 24 98 00 00 00 	mov    DWORD PTR [rsp+0x98],0x1
    6a96:	01 00 00 00 
    6a9a:	ba 01 00 00 00       	mov    edx,0x1
    6a9f:	01 c6                	add    esi,eax
    6aa1:	40 88 b4 24 a0 00 00 	mov    BYTE PTR [rsp+0xa0],sil
    6aa8:	00 
    6aa9:	e9 cf f6 ff ff       	jmp    617d <asn1_der_coding+0x24d>
    6aae:	66 90                	xchg   ax,ax
    6ab0:	ba 04 00 00 00       	mov    edx,0x4
    6ab5:	e9 12 f8 ff ff       	jmp    62cc <asn1_der_coding+0x39c>
    6aba:	45 8d 74 24 02       	lea    r14d,[r12+0x2]
    6abf:	49 89 e9             	mov    r9,rbp
    6ac2:	e9 d9 f7 ff ff       	jmp    62a0 <asn1_der_coding+0x370>
    6ac7:	66 0f 1f 84 00 00 00 	nop    WORD PTR [rax+rax*1+0x0]
    6ace:	00 00 
    6ad0:	4d 89 f9             	mov    r9,r15
    6ad3:	44 89 e3             	mov    ebx,r12d
    6ad6:	45 89 ef             	mov    r15d,r13d
    6ad9:	e9 e0 fb ff ff       	jmp    66be <asn1_der_coding+0x78e>
    6ade:	66 90                	xchg   ax,ax
    6ae0:	48 8b 4c 24 40       	mov    rcx,QWORD PTR [rsp+0x40]
    6ae5:	48 8b 54 24 28       	mov    rdx,QWORD PTR [rsp+0x28]
    6aea:	83 cb 20             	or     ebx,0x20
    6aed:	0f b6 fb             	movzx  edi,bl
    6af0:	89 c6                	mov    esi,eax
    6af2:	e8 a9 ed ff ff       	call   58a0 <_asn1_tag_der.part.0>
    6af7:	8b 9c 24 98 00 00 00 	mov    ebx,DWORD PTR [rsp+0x98]
    6afe:	e9 e7 f5 ff ff       	jmp    60ea <asn1_der_coding+0x1ba>
    6b03:	0f 1f 44 00 00       	nop    DWORD PTR [rax+rax*1+0x0]
    6b08:	44 89 6c 24 08       	mov    DWORD PTR [rsp+0x8],r13d
    6b0d:	44 89 e3             	mov    ebx,r12d
    6b10:	49 89 c7             	mov    r15,rax
    6b13:	e9 09 f5 ff ff       	jmp    6021 <asn1_der_coding+0xf1>
    6b18:	48 8b 04 24          	mov    rax,QWORD PTR [rsp]
    6b1c:	4c 63 d9             	movsxd r11,ecx
    6b1f:	4d 63 ff             	movsxd r15,r15d
    6b22:	48 89 da             	mov    rdx,rbx
    6b25:	89 4c 24 30          	mov    DWORD PTR [rsp+0x30],ecx
    6b29:	4c 89 5c 24 28       	mov    QWORD PTR [rsp+0x28],r11
    6b2e:	4e 8d 14 38          	lea    r10,[rax+r15*1]
    6b32:	4d 01 df             	add    r15,r11
    6b35:	4a 8d 3c 38          	lea    rdi,[rax+r15*1]
    6b39:	4c 89 d6             	mov    rsi,r10
    6b3c:	4c 89 54 24 20       	mov    QWORD PTR [rsp+0x20],r10
    6b41:	e8 2a c2 ff ff       	call   2d70 <memmove@plt>
    6b46:	4c 8b 5c 24 28       	mov    r11,QWORD PTR [rsp+0x28]
    6b4b:	4c 8b 54 24 20       	mov    r10,QWORD PTR [rsp+0x20]
    6b50:	48 8b 74 24 08       	mov    rsi,QWORD PTR [rsp+0x8]
    6b55:	4c 89 da             	mov    rdx,r11
    6b58:	4c 89 d7             	mov    rdi,r10
    6b5b:	e8 90 c1 ff ff       	call   2cf0 <memcpy@plt>
    6b60:	8b 4c 24 30          	mov    ecx,DWORD PTR [rsp+0x30]
    6b64:	e9 7e fc ff ff       	jmp    67e7 <asn1_der_coding+0x8b7>
    6b69:	48 8b 7c 24 08       	mov    rdi,QWORD PTR [rsp+0x8]
    6b6e:	48 8b 54 24 10       	mov    rdx,QWORD PTR [rsp+0x10]
    6b73:	4c 89 ee             	mov    rsi,r13
    6b76:	48 01 c7             	add    rdi,rax
    6b79:	e8 72 c1 ff ff       	call   2cf0 <memcpy@plt>
    6b7e:	44 89 b4 24 80 00 00 	mov    DWORD PTR [rsp+0x80],r14d
    6b85:	00 
    6b86:	e9 0c f7 ff ff       	jmp    6297 <asn1_der_coding+0x367>
    6b8b:	45 85 ff             	test   r15d,r15d
    6b8e:	0f 88 c7 f9 ff ff    	js     655b <asn1_der_coding+0x62b>
    6b94:	45 85 ed             	test   r13d,r13d
    6b97:	0f 8e be f9 ff ff    	jle    655b <asn1_der_coding+0x62b>
    6b9d:	48 03 04 24          	add    rax,QWORD PTR [rsp]
    6ba1:	48 89 44 24 10       	mov    QWORD PTR [rsp+0x10],rax
    6ba6:	0f 84 1b f7 ff ff    	je     62c7 <asn1_der_coding+0x397>
    6bac:	48 8b 45 60          	mov    rax,QWORD PTR [rbp+0x60]
    6bb0:	48 85 c0             	test   rax,rax
    6bb3:	75 18                	jne    6bcd <asn1_der_coding+0xc9d>
    6bb5:	e9 0d f7 ff ff       	jmp    62c7 <asn1_der_coding+0x397>
    6bba:	66 0f 1f 44 00 00    	nop    WORD PTR [rax+rax*1+0x0]
    6bc0:	48 8b 40 68          	mov    rax,QWORD PTR [rax+0x68]
    6bc4:	48 85 c0             	test   rax,rax
    6bc7:	0f 84 fa f6 ff ff    	je     62c7 <asn1_der_coding+0x397>
    6bcd:	8b 50 48             	mov    edx,DWORD PTR [rax+0x48]
    6bd0:	81 e2 fd 00 00 00    	and    edx,0xfd
    6bd6:	83 fa 08             	cmp    edx,0x8
    6bd9:	74 e5                	je     6bc0 <asn1_der_coding+0xc90>
    6bdb:	4c 8b 50 68          	mov    r10,QWORD PTR [rax+0x68]
    6bdf:	4d 85 d2             	test   r10,r10
    6be2:	0f 84 73 f9 ff ff    	je     655b <asn1_der_coding+0x62b>
    6be8:	49 83 7a 68 00       	cmp    QWORD PTR [r10+0x68],0x0
    6bed:	0f 84 68 f9 ff ff    	je     655b <asn1_der_coding+0x62b>
    6bf3:	45 31 f6             	xor    r14d,r14d
    6bf6:	48 89 6c 24 30       	mov    QWORD PTR [rsp+0x30],rbp
    6bfb:	45 31 c0             	xor    r8d,r8d
    6bfe:	44 89 f0             	mov    eax,r14d
    6c01:	31 d2                	xor    edx,edx
    6c03:	41 89 de             	mov    r14d,ebx
    6c06:	44 89 64 24 60       	mov    DWORD PTR [rsp+0x60],r12d
    6c0b:	4c 89 d5             	mov    rbp,r10
    6c0e:	89 c3                	mov    ebx,eax
    6c10:	e9 a2 00 00 00       	jmp    6cb7 <asn1_der_coding+0xd87>
    6c15:	0f 1f 00             	nop    DWORD PTR [rax]
    6c18:	44 8b 4c 24 6c       	mov    r9d,DWORD PTR [rsp+0x6c]
    6c1d:	48 63 fb             	movsxd rdi,ebx
    6c20:	48 03 7c 24 10       	add    rdi,QWORD PTR [rsp+0x10]
    6c25:	44 89 ee             	mov    esi,r13d
    6c28:	48 89 44 24 08       	mov    QWORD PTR [rsp+0x8],rax
    6c2d:	29 de                	sub    esi,ebx
    6c2f:	49 c1 e1 04          	shl    r9,0x4
    6c33:	85 f6                	test   esi,esi
    6c35:	4e 8d 24 08          	lea    r12,[rax+r9*1]
    6c39:	49 89 3c 24          	mov    QWORD PTR [r12],rdi
    6c3d:	41 c7 44 24 08 00 00 	mov    DWORD PTR [r12+0x8],0x0
    6c44:	00 00 
    6c46:	0f 8e 1d 04 00 00    	jle    7069 <asn1_der_coding+0x1139>
    6c4c:	48 8b 4c 24 40       	mov    rcx,QWORD PTR [rsp+0x40]
    6c51:	48 8b 54 24 48       	mov    rdx,QWORD PTR [rsp+0x48]
    6c56:	45 31 c0             	xor    r8d,r8d
    6c59:	e8 32 bf ff ff       	call   2b90 <asn1_get_tag_der@plt>
    6c5e:	85 c0                	test   eax,eax
    6c60:	0f 85 1d 04 00 00    	jne    7083 <asn1_der_coding+0x1153>
    6c66:	8b 84 24 98 00 00 00 	mov    eax,DWORD PTR [rsp+0x98]
    6c6d:	41 01 44 24 08       	add    DWORD PTR [r12+0x8],eax
    6c72:	44 89 ee             	mov    esi,r13d
    6c75:	48 8b 54 24 40       	mov    rdx,QWORD PTR [rsp+0x40]
    6c7a:	01 c3                	add    ebx,eax
    6c7c:	48 63 fb             	movsxd rdi,ebx
    6c7f:	48 03 7c 24 10       	add    rdi,QWORD PTR [rsp+0x10]
    6c84:	29 de                	sub    esi,ebx
    6c86:	e8 15 c1 ff ff       	call   2da0 <asn1_get_length_der@plt>
    6c8b:	85 c0                	test   eax,eax
    6c8d:	0f 88 d6 03 00 00    	js     7069 <asn1_der_coding+0x1139>
    6c93:	03 84 24 98 00 00 00 	add    eax,DWORD PTR [rsp+0x98]
    6c9a:	48 8b 6d 68          	mov    rbp,QWORD PTR [rbp+0x68]
    6c9e:	41 01 44 24 08       	add    DWORD PTR [r12+0x8],eax
    6ca3:	8b 54 24 20          	mov    edx,DWORD PTR [rsp+0x20]
    6ca7:	4c 8b 44 24 08       	mov    r8,QWORD PTR [rsp+0x8]
    6cac:	01 c3                	add    ebx,eax
    6cae:	48 85 ed             	test   rbp,rbp
    6cb1:	0f 84 9e 03 00 00    	je     7055 <asn1_der_coding+0x1125>
    6cb7:	8d 4a 01             	lea    ecx,[rdx+0x1]
    6cba:	4c 89 c7             	mov    rdi,r8
    6cbd:	4c 89 44 24 08       	mov    QWORD PTR [rsp+0x8],r8
    6cc2:	89 54 24 6c          	mov    DWORD PTR [rsp+0x6c],edx
    6cc6:	89 4c 24 20          	mov    DWORD PTR [rsp+0x20],ecx
    6cca:	48 89 4c 24 28       	mov    QWORD PTR [rsp+0x28],rcx
    6ccf:	48 c1 e1 04          	shl    rcx,0x4
    6cd3:	48 89 ce             	mov    rsi,rcx
    6cd6:	e8 65 c0 ff ff       	call   2d40 <realloc@plt>
    6cdb:	48 85 c0             	test   rax,rax
    6cde:	4c 8b 44 24 08       	mov    r8,QWORD PTR [rsp+0x8]
    6ce3:	0f 85 2f ff ff ff    	jne    6c18 <asn1_der_coding+0xce8>
    6ce9:	4c 89 44 24 08       	mov    QWORD PTR [rsp+0x8],r8
    6cee:	ba 0d 00 00 00       	mov    edx,0xd
    6cf3:	e9 76 03 00 00       	jmp    706e <asn1_der_coding+0x113e>
    6cf8:	0f 1f 84 00 00 00 00 	nop    DWORD PTR [rax+rax*1+0x0]
    6cff:	00 
    6d00:	4d 8b 76 68          	mov    r14,QWORD PTR [r14+0x68]
    6d04:	4d 85 f6             	test   r14,r14
    6d07:	0f 84 18 f9 ff ff    	je     6625 <asn1_der_coding+0x6f5>
    6d0d:	41 8b 56 48          	mov    edx,DWORD PTR [r14+0x48]
    6d11:	81 e2 fd 00 00 00    	and    edx,0xfd
    6d17:	83 fa 08             	cmp    edx,0x8
    6d1a:	74 e4                	je     6d00 <asn1_der_coding+0xdd0>
    6d1c:	49 83 7e 68 00       	cmp    QWORD PTR [r14+0x68],0x0
    6d21:	0f 84 e8 02 00 00    	je     700f <asn1_der_coding+0x10df>
    6d27:	48 03 04 24          	add    rax,QWORD PTR [rsp]
    6d2b:	45 31 ed             	xor    r13d,r13d
    6d2e:	31 d2                	xor    edx,edx
    6d30:	48 89 6c 24 20       	mov    QWORD PTR [rsp+0x20],rbp
    6d35:	89 5c 24 30          	mov    DWORD PTR [rsp+0x30],ebx
    6d39:	44 89 ed             	mov    ebp,r13d
    6d3c:	48 c7 44 24 08 00 00 	mov    QWORD PTR [rsp+0x8],0x0
    6d43:	00 00 
    6d45:	44 89 7c 24 28       	mov    DWORD PTR [rsp+0x28],r15d
    6d4a:	89 f3                	mov    ebx,esi
    6d4c:	49 89 d5             	mov    r13,rdx
    6d4f:	48 89 44 24 10       	mov    QWORD PTR [rsp+0x10],rax
    6d54:	49 89 c4             	mov    r12,rax
    6d57:	e9 84 00 00 00       	jmp    6de0 <asn1_der_coding+0xeb0>
    6d5c:	49 89 45 10          	mov    QWORD PTR [r13+0x10],rax
    6d60:	4c 8b 44 24 40       	mov    r8,QWORD PTR [rsp+0x40]
    6d65:	48 8b 4c 24 48       	mov    rcx,QWORD PTR [rsp+0x48]
    6d6a:	89 de                	mov    esi,ebx
    6d6c:	48 8b 54 24 50       	mov    rdx,QWORD PTR [rsp+0x50]
    6d71:	48 63 fd             	movsxd rdi,ebp
    6d74:	29 ee                	sub    esi,ebp
    6d76:	4c 01 e7             	add    rdi,r12
    6d79:	e8 12 be ff ff       	call   2b90 <asn1_get_tag_der@plt>
    6d7e:	85 c0                	test   eax,eax
    6d80:	0f 85 6a 02 00 00    	jne    6ff0 <asn1_der_coding+0x10c0>
    6d86:	0f b6 44 24 7f       	movzx  eax,BYTE PTR [rsp+0x7f]
    6d8b:	03 ac 24 8c 00 00 00 	add    ebp,DWORD PTR [rsp+0x8c]
    6d92:	89 de                	mov    esi,ebx
    6d94:	48 8b 54 24 58       	mov    rdx,QWORD PTR [rsp+0x58]
    6d99:	c1 e0 18             	shl    eax,0x18
    6d9c:	48 0b 84 24 98 00 00 	or     rax,QWORD PTR [rsp+0x98]
    6da3:	00 
    6da4:	48 63 fd             	movsxd rdi,ebp
    6da7:	29 ee                	sub    esi,ebp
    6da9:	4c 01 e7             	add    rdi,r12
    6dac:	49 89 47 08          	mov    QWORD PTR [r15+0x8],rax
    6db0:	e8 eb bf ff ff       	call   2da0 <asn1_get_length_der@plt>
    6db5:	85 c0                	test   eax,eax
    6db7:	89 84 24 8c 00 00 00 	mov    DWORD PTR [rsp+0x8c],eax
    6dbe:	0f 88 1b 02 00 00    	js     6fdf <asn1_der_coding+0x10af>
    6dc4:	03 84 24 88 00 00 00 	add    eax,DWORD PTR [rsp+0x88]
    6dcb:	4d 8b 76 68          	mov    r14,QWORD PTR [r14+0x68]
    6dcf:	4d 89 fd             	mov    r13,r15
    6dd2:	01 c5                	add    ebp,eax
    6dd4:	4d 85 f6             	test   r14,r14
    6dd7:	41 89 2f             	mov    DWORD PTR [r15],ebp
    6dda:	0f 84 aa 00 00 00    	je     6e8a <asn1_der_coding+0xf5a>
    6de0:	bf 20 00 00 00       	mov    edi,0x20
    6de5:	e8 26 bf ff ff       	call   2d10 <malloc@plt>
    6dea:	48 85 c0             	test   rax,rax
    6ded:	49 89 c7             	mov    r15,rax
    6df0:	0f 84 32 02 00 00    	je     7028 <asn1_der_coding+0x10f8>
    6df6:	48 83 7c 24 08 00    	cmp    QWORD PTR [rsp+0x8],0x0
    6dfc:	48 c7 40 10 00 00 00 	mov    QWORD PTR [rax+0x10],0x0
    6e03:	00 
    6e04:	4c 89 68 18          	mov    QWORD PTR [rax+0x18],r13
    6e08:	0f 85 4e ff ff ff    	jne    6d5c <asn1_der_coding+0xe2c>
    6e0e:	48 89 44 24 08       	mov    QWORD PTR [rsp+0x8],rax
    6e13:	e9 48 ff ff ff       	jmp    6d60 <asn1_der_coding+0xe30>
    6e18:	0f 1f 84 00 00 00 00 	nop    DWORD PTR [rax+rax*1+0x0]
    6e1f:	00 
    6e20:	c6 04 06 00          	mov    BYTE PTR [rsi+rax*1],0x0
    6e24:	49 89 e9             	mov    r9,rbp
    6e27:	e9 74 f4 ff ff       	jmp    62a0 <asn1_der_coding+0x370>
    6e2c:	89 d9                	mov    ecx,ebx
    6e2e:	29 c1                	sub    ecx,eax
    6e30:	89 ce                	mov    esi,ecx
    6e32:	e9 ee f7 ff ff       	jmp    6625 <asn1_der_coding+0x6f5>
    6e37:	48 8b 44 24 18       	mov    rax,QWORD PTR [rsp+0x18]
    6e3c:	44 89 fa             	mov    edx,r15d
    6e3f:	c1 fa 1f             	sar    edx,0x1f
    6e42:	83 e2 0c             	and    edx,0xc
    6e45:	89 18                	mov    DWORD PTR [rax],ebx
    6e47:	e9 80 f4 ff ff       	jmp    62cc <asn1_der_coding+0x39c>
    6e4c:	48 8b 4c 24 40       	mov    rcx,QWORD PTR [rsp+0x40]
    6e51:	48 8d 94 24 a0 00 00 	lea    rdx,[rsp+0xa0]
    6e58:	00 
    6e59:	0f b6 f8             	movzx  edi,al
    6e5c:	e8 3f ea ff ff       	call   58a0 <_asn1_tag_der.part.0>
    6e61:	48 63 94 24 98 00 00 	movsxd rdx,DWORD PTR [rsp+0x98]
    6e68:	00 
    6e69:	e9 0f f3 ff ff       	jmp    617d <asn1_der_coding+0x24d>
    6e6e:	e8 2d 4a 00 00       	call   b8a0 <_asn1_find_up>
    6e73:	45 89 ef             	mov    r15d,r13d
    6e76:	48 89 c5             	mov    rbp,rax
    6e79:	e9 b5 f6 ff ff       	jmp    6533 <asn1_der_coding+0x603>
    6e7e:	89 c2                	mov    edx,eax
    6e80:	e9 47 f4 ff ff       	jmp    62cc <asn1_der_coding+0x39c>
    6e85:	e8 46 bd ff ff       	call   2bd0 <__stack_chk_fail@plt>
    6e8a:	8b 44 24 30          	mov    eax,DWORD PTR [rsp+0x30]
    6e8e:	44 8b 7c 24 28       	mov    r15d,DWORD PTR [rsp+0x28]
    6e93:	89 44 24 28          	mov    DWORD PTR [rsp+0x28],eax
    6e97:	48 8b 44 24 08       	mov    rax,QWORD PTR [rsp+0x8]
    6e9c:	48 8b 58 10          	mov    rbx,QWORD PTR [rax+0x10]
    6ea0:	48 85 db             	test   rbx,rbx
    6ea3:	0f 84 53 01 00 00    	je     6ffc <asn1_der_coding+0x10cc>
    6ea9:	49 89 c6             	mov    r14,rax
    6eac:	45 31 ed             	xor    r13d,r13d
    6eaf:	eb 1b                	jmp    6ecc <asn1_der_coding+0xf9c>
    6eb1:	0f 1f 80 00 00 00 00 	nop    DWORD PTR [rax+0x0]
    6eb8:	45 8b 2e             	mov    r13d,DWORD PTR [r14]
    6ebb:	48 8b 5b 10          	mov    rbx,QWORD PTR [rbx+0x10]
    6ebf:	4d 8b 76 10          	mov    r14,QWORD PTR [r14+0x10]
    6ec3:	48 85 db             	test   rbx,rbx
    6ec6:	0f 84 c8 00 00 00    	je     6f94 <asn1_der_coding+0x1064>
    6ecc:	48 8b 43 08          	mov    rax,QWORD PTR [rbx+0x8]
    6ed0:	49 39 46 08          	cmp    QWORD PTR [r14+0x8],rax
    6ed4:	76 e2                	jbe    6eb8 <asn1_der_coding+0xf88>
    6ed6:	41 8b 2e             	mov    ebp,DWORD PTR [r14]
    6ed9:	89 ea                	mov    edx,ebp
    6edb:	44 29 ea             	sub    edx,r13d
    6ede:	48 63 d2             	movsxd rdx,edx
    6ee1:	48 89 d7             	mov    rdi,rdx
    6ee4:	48 89 54 24 30       	mov    QWORD PTR [rsp+0x30],rdx
    6ee9:	e8 22 be ff ff       	call   2d10 <malloc@plt>
    6eee:	48 85 c0             	test   rax,rax
    6ef1:	49 89 c4             	mov    r12,rax
    6ef4:	0f 84 be 00 00 00    	je     6fb8 <asn1_der_coding+0x1088>
    6efa:	48 8b 44 24 10       	mov    rax,QWORD PTR [rsp+0x10]
    6eff:	49 63 cd             	movsxd rcx,r13d
    6f02:	48 8b 54 24 30       	mov    rdx,QWORD PTR [rsp+0x30]
    6f07:	4c 89 e7             	mov    rdi,r12
    6f0a:	48 89 4c 24 60       	mov    QWORD PTR [rsp+0x60],rcx
    6f0f:	4c 8d 0c 08          	lea    r9,[rax+rcx*1]
    6f13:	4c 89 ce             	mov    rsi,r9
    6f16:	4c 89 4c 24 30       	mov    QWORD PTR [rsp+0x30],r9
    6f1b:	e8 d0 bd ff ff       	call   2cf0 <memcpy@plt>
    6f20:	8b 13                	mov    edx,DWORD PTR [rbx]
    6f22:	4c 8b 4c 24 30       	mov    r9,QWORD PTR [rsp+0x30]
    6f27:	48 63 f5             	movsxd rsi,ebp
    6f2a:	29 ea                	sub    edx,ebp
    6f2c:	48 8b 6c 24 10       	mov    rbp,QWORD PTR [rsp+0x10]
    6f31:	4c 89 cf             	mov    rdi,r9
    6f34:	48 63 d2             	movsxd rdx,edx
    6f37:	48 01 ee             	add    rsi,rbp
    6f3a:	e8 b1 bd ff ff       	call   2cf0 <memcpy@plt>
    6f3f:	49 63 16             	movsxd rdx,DWORD PTR [r14]
    6f42:	48 63 3b             	movsxd rdi,DWORD PTR [rbx]
    6f45:	4c 89 e6             	mov    rsi,r12
    6f48:	48 8b 4c 24 60       	mov    rcx,QWORD PTR [rsp+0x60]
    6f4d:	48 29 d7             	sub    rdi,rdx
    6f50:	48 89 d0             	mov    rax,rdx
    6f53:	48 01 f9             	add    rcx,rdi
    6f56:	44 29 e8             	sub    eax,r13d
    6f59:	48 8d 7c 0d 00       	lea    rdi,[rbp+rcx*1+0x0]
    6f5e:	48 63 d0             	movsxd rdx,eax
    6f61:	e8 8a bd ff ff       	call   2cf0 <memcpy@plt>
    6f66:	4c 89 e7             	mov    rdi,r12
    6f69:	e8 a2 bb ff ff       	call   2b10 <free@plt>
    6f6e:	49 8b 46 08          	mov    rax,QWORD PTR [r14+0x8]
    6f72:	45 2b 2e             	sub    r13d,DWORD PTR [r14]
    6f75:	44 03 2b             	add    r13d,DWORD PTR [rbx]
    6f78:	48 89 84 24 98 00 00 	mov    QWORD PTR [rsp+0x98],rax
    6f7f:	00 
    6f80:	48 8b 53 08          	mov    rdx,QWORD PTR [rbx+0x8]
    6f84:	49 89 56 08          	mov    QWORD PTR [r14+0x8],rdx
    6f88:	48 89 43 08          	mov    QWORD PTR [rbx+0x8],rax
    6f8c:	45 89 2e             	mov    DWORD PTR [r14],r13d
    6f8f:	e9 27 ff ff ff       	jmp    6ebb <asn1_der_coding+0xf8b>
    6f94:	4c 3b 74 24 08       	cmp    r14,QWORD PTR [rsp+0x8]
    6f99:	0f 84 a3 00 00 00    	je     7042 <asn1_der_coding+0x1112>
    6f9f:	49 8b 46 18          	mov    rax,QWORD PTR [r14+0x18]
    6fa3:	4c 89 f7             	mov    rdi,r14
    6fa6:	48 c7 40 10 00 00 00 	mov    QWORD PTR [rax+0x10],0x0
    6fad:	00 
    6fae:	e8 5d bb ff ff       	call   2b10 <free@plt>
    6fb3:	e9 df fe ff ff       	jmp    6e97 <asn1_der_coding+0xf67>
    6fb8:	48 8b 5c 24 08       	mov    rbx,QWORD PTR [rsp+0x8]
    6fbd:	ba 0d 00 00 00       	mov    edx,0xd
    6fc2:	89 d5                	mov    ebp,edx
    6fc4:	48 89 df             	mov    rdi,rbx
    6fc7:	48 8b 5f 10          	mov    rbx,QWORD PTR [rdi+0x10]
    6fcb:	e8 40 bb ff ff       	call   2b10 <free@plt>
    6fd0:	48 85 db             	test   rbx,rbx
    6fd3:	48 89 df             	mov    rdi,rbx
    6fd6:	75 ef                	jne    6fc7 <asn1_der_coding+0x1097>
    6fd8:	89 ea                	mov    edx,ebp
    6fda:	e9 ed f2 ff ff       	jmp    62cc <asn1_der_coding+0x39c>
    6fdf:	48 8b 5c 24 08       	mov    rbx,QWORD PTR [rsp+0x8]
    6fe4:	ba 04 00 00 00       	mov    edx,0x4
    6fe9:	89 d5                	mov    ebp,edx
    6feb:	48 89 df             	mov    rdi,rbx
    6fee:	eb d7                	jmp    6fc7 <asn1_der_coding+0x1097>
    6ff0:	48 8b 5c 24 08       	mov    rbx,QWORD PTR [rsp+0x8]
    6ff5:	89 c5                	mov    ebp,eax
    6ff7:	48 89 df             	mov    rdi,rbx
    6ffa:	eb cb                	jmp    6fc7 <asn1_der_coding+0x1097>
    6ffc:	48 8b 7c 24 08       	mov    rdi,QWORD PTR [rsp+0x8]
    7001:	48 8b 6c 24 20       	mov    rbp,QWORD PTR [rsp+0x20]
    7006:	8b 5c 24 28          	mov    ebx,DWORD PTR [rsp+0x28]
    700a:	e8 01 bb ff ff       	call   2b10 <free@plt>
    700f:	89 d8                	mov    eax,ebx
    7011:	2b 84 24 80 00 00 00 	sub    eax,DWORD PTR [rsp+0x80]
    7018:	89 c6                	mov    esi,eax
    701a:	e9 06 f6 ff ff       	jmp    6625 <asn1_der_coding+0x6f5>
    701f:	41 8b 4f 48          	mov    ecx,DWORD PTR [r15+0x48]
    7023:	e9 f8 f7 ff ff       	jmp    6820 <asn1_der_coding+0x8f0>
    7028:	48 8b 5c 24 08       	mov    rbx,QWORD PTR [rsp+0x8]
    702d:	ba 0d 00 00 00       	mov    edx,0xd
    7032:	48 85 db             	test   rbx,rbx
    7035:	0f 84 91 f2 ff ff    	je     62cc <asn1_der_coding+0x39c>
    703b:	89 d5                	mov    ebp,edx
    703d:	48 89 df             	mov    rdi,rbx
    7040:	eb 85                	jmp    6fc7 <asn1_der_coding+0x1097>
    7042:	4c 89 f7             	mov    rdi,r14
    7045:	48 8b 6c 24 20       	mov    rbp,QWORD PTR [rsp+0x20]
    704a:	8b 5c 24 28          	mov    ebx,DWORD PTR [rsp+0x28]
    704e:	e8 bd ba ff ff       	call   2b10 <free@plt>
    7053:	eb ba                	jmp    700f <asn1_der_coding+0x10df>
    7055:	89 d8                	mov    eax,ebx
    7057:	48 8b 6c 24 30       	mov    rbp,QWORD PTR [rsp+0x30]
    705c:	44 8b 64 24 60       	mov    r12d,DWORD PTR [rsp+0x60]
    7061:	41 39 c5             	cmp    r13d,eax
    7064:	44 89 f3             	mov    ebx,r14d
    7067:	7d 1e                	jge    7087 <asn1_der_coding+0x1157>
    7069:	ba 04 00 00 00       	mov    edx,0x4
    706e:	48 8b 7c 24 08       	mov    rdi,QWORD PTR [rsp+0x8]
    7073:	89 14 24             	mov    DWORD PTR [rsp],edx
